	.text
	.file	"llvm-link"
	.file	1 "/usr/lib/gcc/x86_64-linux-gnu/9/../../../../include/x86_64-linux-gnu/c++/9/bits/atomic_word.h"
	.file	2 "/usr/lib/gcc/x86_64-linux-gnu/9/../../../../include/c++/9/bits/ios_base.h"
	.file	3 "/usr/lib/gcc/x86_64-linux-gnu/9/../../../../include/c++/9/iostream"
	.file	4 "/usr/lib/gcc/x86_64-linux-gnu/9/../../../../include/c++/9/ext/concurrence.h"
	.file	5 "./include/audio.h"
	.file	6 "/usr/lib/gcc/x86_64-linux-gnu/9/../../../../include/c++/9/iosfwd"
	.file	7 "/usr/lib/gcc/x86_64-linux-gnu/9/../../../../include/c++/9/bits/stringfwd.h"
	.file	8 "/usr/lib/gcc/x86_64-linux-gnu/9/../../../../include/c++/9/bits/basic_string.h"
	.file	9 "/usr/lib/gcc/x86_64-linux-gnu/9/../../../../include/c++/9/chrono"
	.file	10 "/usr/include/x86_64-linux-gnu/bits/types.h"
	.file	11 "/usr/include/stdint.h"
	.file	12 "/usr/lib/gcc/x86_64-linux-gnu/9/../../../../include/c++/9/ratio"
	.file	13 "/usr/lib/gcc/x86_64-linux-gnu/9/../../../../include/c++/9/type_traits"
	.file	14 "/usr/lib/gcc/x86_64-linux-gnu/9/../../../../include/x86_64-linux-gnu/c++/9/bits/c++config.h"
	.file	15 "/usr/lib/gcc/x86_64-linux-gnu/9/../../../../include/c++/9/bits/postypes.h"
	.file	16 "/usr/lib/gcc/x86_64-linux-gnu/9/../../../../include/c++/9/bits/alloc_traits.h"
	.file	17 "/usr/lib/gcc/x86_64-linux-gnu/9/../../../../include/c++/9/ext/alloc_traits.h"
	.file	18 "/usr/lib/gcc/x86_64-linux-gnu/9/../../../../include/c++/9/bits/char_traits.h"
	.file	19 "/usr/include/stdlib.h"
	.file	20 "/usr/lib/gcc/x86_64-linux-gnu/9/../../../../include/c++/9/bits/std_abs.h"
	.file	21 "/usr/include/x86_64-linux-gnu/bits/mathcalls.h"
	.file	22 "/usr/lib/gcc/x86_64-linux-gnu/9/../../../../include/c++/9/cmath"
	.file	23 "/usr/include/math.h"
	.file	24 "/usr/lib/gcc/x86_64-linux-gnu/9/../../../../include/c++/9/math.h"
	.file	25 "/usr/lib/gcc/x86_64-linux-gnu/9/../../../../include/c++/9/debug/debug.h"
	.file	26 "/usr/lib/gcc/x86_64-linux-gnu/9/../../../../include/c++/9/bits/exception_ptr.h"
	.file	27 "/usr/lib/gcc/x86_64-linux-gnu/9/../../../../include/c++/9/ext/new_allocator.h"
	.file	28 "/usr/include/x86_64-linux-gnu/bits/types/__mbstate_t.h"
	.file	29 "/usr/include/x86_64-linux-gnu/bits/types/mbstate_t.h"
	.file	30 "/usr/lib/gcc/x86_64-linux-gnu/9/../../../../include/c++/9/cwchar"
	.file	31 "/usr/include/x86_64-linux-gnu/bits/types/wint_t.h"
	.file	32 "/usr/include/wchar.h"
	.file	33 "/usr/include/x86_64-linux-gnu/bits/types/__FILE.h"
	.file	34 "/home/yingj4/llvm-6.0/builtLLVM/lib/clang/6.0.1/include/stddef.h"
	.file	35 "/usr/include/x86_64-linux-gnu/bits/stdint-intn.h"
	.file	36 "/usr/lib/gcc/x86_64-linux-gnu/9/../../../../include/c++/9/cstdint"
	.file	37 "/usr/include/x86_64-linux-gnu/bits/stdint-uintn.h"
	.file	38 "/usr/lib/gcc/x86_64-linux-gnu/9/../../../../include/c++/9/clocale"
	.file	39 "/usr/include/locale.h"
	.file	40 "/usr/include/ctype.h"
	.file	41 "/usr/lib/gcc/x86_64-linux-gnu/9/../../../../include/c++/9/cctype"
	.file	42 "/usr/lib/gcc/x86_64-linux-gnu/9/../../../../include/c++/9/cstdlib"
	.file	43 "/usr/include/x86_64-linux-gnu/bits/types/FILE.h"
	.file	44 "/usr/lib/gcc/x86_64-linux-gnu/9/../../../../include/c++/9/cstdio"
	.file	45 "/usr/include/x86_64-linux-gnu/bits/types/__fpos_t.h"
	.file	46 "/usr/include/stdio.h"
	.file	47 "/usr/lib/gcc/x86_64-linux-gnu/9/../../../../include/c++/9/bits/shared_ptr_base.h"
	.file	48 "/usr/lib/gcc/x86_64-linux-gnu/9/../../../../include/c++/9/stdlib.h"
	.file	49 "/usr/include/wctype.h"
	.file	50 "/usr/lib/gcc/x86_64-linux-gnu/9/../../../../include/c++/9/cwctype"
	.file	51 "/usr/include/x86_64-linux-gnu/bits/wctype-wchar.h"
	.file	52 "/usr/include/x86_64-linux-gnu/bits/types/clock_t.h"
	.file	53 "/usr/lib/gcc/x86_64-linux-gnu/9/../../../../include/c++/9/ctime"
	.file	54 "/usr/include/x86_64-linux-gnu/bits/types/time_t.h"
	.file	55 "/usr/include/time.h"
	.section	.text.startup,"ax",@progbits
	.p2align	4, 0x90         # -- Begin function _GLOBAL__sub_I_main.cpp
	.type	_GLOBAL__sub_I_main.cpp,@function
_GLOBAL__sub_I_main.cpp:                # @_GLOBAL__sub_I_main.cpp
.Lfunc_begin0:
	.file	56 "src/main.cpp"
	.loc	56 0 0                  # src/main.cpp:0:0
	.cfi_startproc
# %bb.0:
	.loc	56 0 0 prologue_end     # src/main.cpp:0:0
	jmp	__cxx_global_var_init   # TAILCALL
.Ltmp0:
.Lfunc_end0:
	.size	_GLOBAL__sub_I_main.cpp, .Lfunc_end0-_GLOBAL__sub_I_main.cpp
	.cfi_endproc
                                        # -- End function
	.p2align	4, 0x90         # -- Begin function __cxx_global_var_init
	.type	__cxx_global_var_init,@function
__cxx_global_var_init:                  # @__cxx_global_var_init
.Lfunc_begin1:
	.loc	3 74 0                  # /usr/lib/gcc/x86_64-linux-gnu/9/../../../../include/c++/9/iostream:74:0
	.cfi_startproc
# %bb.0:
	.loc	3 74 25 prologue_end    # /usr/lib/gcc/x86_64-linux-gnu/9/../../../../include/c++/9/iostream:74:25
	pushq	%rax
	.cfi_def_cfa_offset 16
	movl	$1, (%rsp)
	movl	$74, %edi
	movl	$.L.str.4, %esi
	movl	$.L.str.8, %edx
	movl	$.L.str.9, %ecx
	movl	$54, %r8d
	xorl	%r9d, %r9d
	callq	trace_logger_log0
	movq	$.L.str.11, (%rsp)
	movl	$2, %edi
	movl	$64, %esi
	movl	$_ZNSt8ios_base4InitC1Ev, %edx
	movl	$1, %ecx
	movl	$.L.str.10, %r8d
	xorl	%r9d, %r9d
	callq	trace_logger_log_ptr
	movq	$.L.str.11, (%rsp)
	movl	$1, %edi
	movl	$64, %esi
	movl	$_ZStL8__ioinit, %edx
	movl	$1, %ecx
	movl	$.L.str.12, %r8d
	xorl	%r9d, %r9d
	callq	trace_logger_log_ptr
	movl	$_ZStL8__ioinit, %edi
	callq	_ZNSt8ios_base4InitC1Ev
	movl	$1, (%rsp)
	movl	$74, %edi
	movl	$.L.str.4, %esi
	movl	$.L.str.8, %edx
	movl	$.L.str.13, %ecx
	movl	$54, %r8d
	xorl	%r9d, %r9d
	callq	trace_logger_log0
	movq	$.L.str.11, (%rsp)
	movl	$4, %edi
	movl	$64, %esi
	movl	$__cxa_atexit, %edx
	movl	$1, %ecx
	movl	$.L.str.14, %r8d
	xorl	%r9d, %r9d
	callq	trace_logger_log_ptr
	movq	$.L.str.11, (%rsp)
	movl	$1, %edi
	movl	$64, %esi
	movl	$_ZNSt8ios_base4InitD1Ev, %edx
	xorl	%ecx, %ecx
	movl	$.L.str.15, %r8d
	xorl	%r9d, %r9d
	callq	trace_logger_log_ptr
	movq	$.L.str.11, (%rsp)
	movl	$2, %edi
	movl	$64, %esi
	movl	$_ZStL8__ioinit, %edx
	xorl	%ecx, %ecx
	movl	$.L.str.15, %r8d
	xorl	%r9d, %r9d
	callq	trace_logger_log_ptr
	movq	$.L.str.11, (%rsp)
	movl	$3, %edi
	movl	$64, %esi
	movl	$__dso_handle, %edx
	movl	$1, %ecx
	movl	$.L.str.16, %r8d
	xorl	%r9d, %r9d
	callq	trace_logger_log_ptr
	movl	$_ZNSt8ios_base4InitD1Ev, %edi
	movl	$_ZStL8__ioinit, %esi
	movl	$__dso_handle, %edx
	callq	__cxa_atexit
	movl	%eax, %edx
	movq	$.L.str.11, (%rsp)
	movl	$19134, %edi            # imm = 0x4ABE
	movl	$32, %esi
	movl	$1, %ecx
	movl	$.L.str.13, %r8d
	xorl	%r9d, %r9d
	callq	trace_logger_log_int
	movl	$1, (%rsp)
	movl	$74, %edi
	movl	$.L.str.4, %esi
	movl	$.L.str.8, %edx
	movl	$.L.str.17, %ecx
	movl	$1, %r8d
	xorl	%r9d, %r9d
	callq	trace_logger_log0
	movl	$.L.str.4, %edi
	movl	$1, %esi
	xorl	%edx, %edx
	movl	$1, %ecx
	callq	trace_logger_update_status
	popq	%rax
	retq
.Ltmp1:
.Lfunc_end1:
	.size	__cxx_global_var_init, .Lfunc_end1-__cxx_global_var_init
	.cfi_endproc
                                        # -- End function
	.text
	.globl	main                    # -- Begin function main
	.p2align	4, 0x90
	.type	main,@function
main:                                   # @main
.Lfunc_begin2:
	.loc	56 7 0                  # src/main.cpp:7:0
	.cfi_startproc
	.cfi_personality 3, __gxx_personality_v0
	.cfi_lsda 3, .Lexception0
# %bb.0:
	pushq	%rbp
	.cfi_def_cfa_offset 16
	pushq	%r15
	.cfi_def_cfa_offset 24
	pushq	%r14
	.cfi_def_cfa_offset 32
	pushq	%r13
	.cfi_def_cfa_offset 40
	pushq	%r12
	.cfi_def_cfa_offset 48
	pushq	%rbx
	.cfi_def_cfa_offset 56
	subq	$712, %rsp              # imm = 0x2C8
	.cfi_def_cfa_offset 768
	.cfi_offset %rbx, -56
	.cfi_offset %r12, -48
	.cfi_offset %r13, -40
	.cfi_offset %r14, -32
	.cfi_offset %r15, -24
	.cfi_offset %rbp, -16
	#DEBUG_VALUE: main:argc <- %edi
	#DEBUG_VALUE: main:argv <- %rsi
	movq	%rsi, %r14
	movl	%edi, %ebp
	callq	trace_logger_init
.Ltmp39:
	movl	$1, (%rsp)
	movq	$-1, %rdi
	movl	$.L.str.18, %esi
	movl	$.L.str.19, %edx
	movl	$.L.str.20, %ecx
	movl	$29, %r8d
	xorl	%r9d, %r9d
	callq	trace_logger_log0
	movq	$.L.str.11, (%rsp)
	movl	$1, %edi
	movl	$32, %esi
	movl	$1, %edx
	movl	$1, %ecx
	movl	$.L.str.21, %r8d
	xorl	%r9d, %r9d
	callq	trace_logger_log_int
	movq	$.L.str.11, (%rsp)
	leaq	152(%rsp), %rdx
	movl	$19134, %edi            # imm = 0x4ABE
	movl	$64, %esi
	movl	$1, %ecx
	movl	$.L.str.20, %r8d
	xorl	%r9d, %r9d
	callq	trace_logger_log_ptr
	movl	$1, (%rsp)
	movq	$-1, %rdi
	movl	$.L.str.18, %esi
	movl	$.L.str.19, %edx
	movl	$.L.str.22, %ecx
	movl	$29, %r8d
	xorl	%r9d, %r9d
	callq	trace_logger_log0
	movq	$.L.str.11, (%rsp)
	movl	$1, %edi
	movl	$32, %esi
	movl	$1, %edx
	movl	$1, %ecx
	movl	$.L.str.21, %r8d
	xorl	%r9d, %r9d
	callq	trace_logger_log_int
	movq	$.L.str.11, (%rsp)
	leaq	72(%rsp), %rdx
	movl	$19134, %edi            # imm = 0x4ABE
	movl	$64, %esi
	movl	$1, %ecx
	movl	$.L.str.22, %r8d
	xorl	%r9d, %r9d
	callq	trace_logger_log_ptr
	movl	$1, (%rsp)
	movq	$-1, %rdi
	movl	$.L.str.18, %esi
	movl	$.L.str.19, %edx
	movl	$.L.str.23, %ecx
	movl	$29, %r8d
	xorl	%r9d, %r9d
	callq	trace_logger_log0
	movq	$.L.str.11, (%rsp)
	movl	$1, %edi
	movl	$32, %esi
	movl	$1, %edx
	movl	$1, %ecx
	movl	$.L.str.21, %r8d
	xorl	%r9d, %r9d
	callq	trace_logger_log_int
	movq	$.L.str.11, (%rsp)
	leaq	200(%rsp), %rdx
	movl	$19134, %edi            # imm = 0x4ABE
	movl	$64, %esi
	movl	$1, %ecx
	movl	$.L.str.23, %r8d
	xorl	%r9d, %r9d
	callq	trace_logger_log_ptr
	movl	$1, (%rsp)
	movq	$-1, %rdi
	movl	$.L.str.18, %esi
	movl	$.L.str.19, %edx
	movl	$.L.str.24, %ecx
	movl	$29, %r8d
	xorl	%r9d, %r9d
	callq	trace_logger_log0
	movq	$.L.str.11, (%rsp)
	movl	$1, %edi
	movl	$32, %esi
	movl	$1, %edx
	movl	$1, %ecx
	movl	$.L.str.21, %r8d
	xorl	%r9d, %r9d
	callq	trace_logger_log_int
	movq	$.L.str.11, (%rsp)
	leaq	104(%rsp), %rdx
	movl	$19134, %edi            # imm = 0x4ABE
	movl	$64, %esi
	movl	$1, %ecx
	movl	$.L.str.24, %r8d
	xorl	%r9d, %r9d
	callq	trace_logger_log_ptr
	movl	$1, (%rsp)
	movq	$-1, %rdi
	movl	$.L.str.18, %esi
	movl	$.L.str.19, %edx
	movl	$.L.str.25, %ecx
	movl	$29, %r8d
	xorl	%r9d, %r9d
	callq	trace_logger_log0
	movq	$.L.str.11, (%rsp)
	movl	$1, %edi
	movl	$32, %esi
	movl	$1, %edx
	movl	$1, %ecx
	movl	$.L.str.21, %r8d
	xorl	%r9d, %r9d
	callq	trace_logger_log_int
	movq	$.L.str.11, (%rsp)
	leaq	40(%rsp), %rdx
	movl	$19134, %edi            # imm = 0x4ABE
	movl	$64, %esi
	movl	$1, %ecx
	movl	$.L.str.25, %r8d
	xorl	%r9d, %r9d
	callq	trace_logger_log_ptr
	movl	$1, (%rsp)
	movq	$-1, %rdi
	movl	$.L.str.18, %esi
	movl	$.L.str.19, %edx
	movl	$.L.str.26, %ecx
	movl	$29, %r8d
	xorl	%r9d, %r9d
	callq	trace_logger_log0
	movq	$.L.str.11, (%rsp)
	movl	$1, %edi
	movl	$32, %esi
	movl	$1, %edx
	movl	$1, %ecx
	movl	$.L.str.21, %r8d
	xorl	%r9d, %r9d
	callq	trace_logger_log_int
	movq	$.L.str.11, (%rsp)
	leaq	200(%rsp), %rdx
	movl	$19134, %edi            # imm = 0x4ABE
	movl	$64, %esi
	movl	$1, %ecx
	movl	$.L.str.26, %r8d
	xorl	%r9d, %r9d
	callq	trace_logger_log_ptr
	movl	$1, (%rsp)
	movq	$-1, %rdi
	movl	$.L.str.18, %esi
	movl	$.L.str.19, %edx
	movl	$.L.str.27, %ecx
	movl	$29, %r8d
	xorl	%r9d, %r9d
	callq	trace_logger_log0
	movq	$.L.str.11, (%rsp)
	movl	$1, %edi
	movl	$32, %esi
	movl	$1, %edx
	movl	$1, %ecx
	movl	$.L.str.21, %r8d
	xorl	%r9d, %r9d
	callq	trace_logger_log_int
	movq	$.L.str.11, (%rsp)
	leaq	200(%rsp), %rdx
	movl	$19134, %edi            # imm = 0x4ABE
	movl	$64, %esi
	movl	$1, %ecx
	movl	$.L.str.27, %r8d
	xorl	%r9d, %r9d
	callq	trace_logger_log_ptr
	movl	$1, (%rsp)
	movq	$-1, %rdi
	movl	$.L.str.18, %esi
	movl	$.L.str.19, %edx
	movl	$.L.str.28, %ecx
	movl	$29, %r8d
	xorl	%r9d, %r9d
	callq	trace_logger_log0
	movq	$.L.str.11, (%rsp)
	movl	$1, %edi
	movl	$32, %esi
	movl	$1, %edx
	movl	$1, %ecx
	movl	$.L.str.21, %r8d
	xorl	%r9d, %r9d
	callq	trace_logger_log_int
	movq	$.L.str.11, (%rsp)
	leaq	32(%rsp), %rdx
	movl	$19134, %edi            # imm = 0x4ABE
	movl	$64, %esi
	movl	$1, %ecx
	movl	$.L.str.28, %r8d
	xorl	%r9d, %r9d
	callq	trace_logger_log_ptr
	movl	$1, (%rsp)
	movq	$-1, %rdi
	movl	$.L.str.18, %esi
	movl	$.L.str.19, %edx
	movl	$.L.str.29, %ecx
	movl	$29, %r8d
	xorl	%r9d, %r9d
	callq	trace_logger_log0
	movq	$.L.str.11, (%rsp)
	movl	$1, %edi
	movl	$32, %esi
	movl	$1, %edx
	movl	$1, %ecx
	movl	$.L.str.21, %r8d
	xorl	%r9d, %r9d
	callq	trace_logger_log_int
	movq	$.L.str.11, (%rsp)
	leaq	24(%rsp), %rdx
	movl	$19134, %edi            # imm = 0x4ABE
	movl	$64, %esi
	movl	$1, %ecx
	movl	$.L.str.29, %r8d
	xorl	%r9d, %r9d
	callq	trace_logger_log_ptr
	movl	$1, (%rsp)
	movq	$-1, %rdi
	movl	$.L.str.18, %esi
	movl	$.L.str.19, %edx
	movl	$.L.str.30, %ecx
	movl	$29, %r8d
	xorl	%r9d, %r9d
	callq	trace_logger_log0
	movq	$.L.str.11, (%rsp)
	movl	$1, %edi
	movl	$32, %esi
	movl	$1, %edx
	movl	$1, %ecx
	movl	$.L.str.21, %r8d
	xorl	%r9d, %r9d
	callq	trace_logger_log_int
	movq	$.L.str.11, (%rsp)
	leaq	16(%rsp), %rdx
	movl	$19134, %edi            # imm = 0x4ABE
	movl	$64, %esi
	movl	$1, %ecx
	movl	$.L.str.30, %r8d
	xorl	%r9d, %r9d
	callq	trace_logger_log_ptr
	movl	$1, (%rsp)
	movq	$-1, %rdi
	movl	$.L.str.18, %esi
	movl	$.L.str.19, %edx
	movl	$.L.str.31, %ecx
	movl	$29, %r8d
	xorl	%r9d, %r9d
	callq	trace_logger_log0
	movq	$.L.str.11, (%rsp)
	movl	$1, %edi
	movl	$32, %esi
	movl	$1, %edx
	movl	$1, %ecx
	movl	$.L.str.21, %r8d
	xorl	%r9d, %r9d
	callq	trace_logger_log_int
.Ltmp40:
	#DEBUG_VALUE: main:argv <- %r14
	#DEBUG_VALUE: main:argc <- %ebp
	.loc	56 6 14 prologue_end    # src/main.cpp:6:14
	movq	$.L.str.11, (%rsp)
	leaq	8(%rsp), %rdx
	movl	$19134, %edi            # imm = 0x4ABE
	movl	$64, %esi
	movl	$1, %ecx
	movl	$.L.str.31, %r8d
	xorl	%r9d, %r9d
	callq	trace_logger_log_ptr
.Ltmp41:
	.loc	56 10 14                # src/main.cpp:10:14
	movl	$1, (%rsp)
	movl	$10, %edi
	movl	$.L.str.18, %esi
	movl	$.L.str.19, %edx
	movl	$.L.str.32, %ecx
	movl	$51, %r8d
	xorl	%r9d, %r9d
	callq	trace_logger_log0
	movq	$.L.str.11, (%rsp)
	movl	$2, %edi
	movl	$32, %esi
	movl	$2, %edx
	movl	$1, %ecx
	movl	$.L.str.33, %r8d
	xorl	%r9d, %r9d
	callq	trace_logger_log_int
	movl	%ebp, %edx
	movq	$.L.str.11, (%rsp)
	movl	$1, %edi
	movl	$32, %esi
	movl	$1, %ecx
	movl	$.L.str.34, %r8d
	xorl	%r9d, %r9d
	callq	trace_logger_log_int
	xorl	%ebx, %ebx
	cmpl	$2, %ebp
	setl	%bl
.Ltmp42:
	.loc	56 10 9 is_stmt 0       # src/main.cpp:10:9
	movq	$.L.str.11, (%rsp)
	movl	$19134, %edi            # imm = 0x4ABE
	movl	$1, %esi
	movl	$1, %ecx
	movl	$.L.str.32, %r8d
	xorl	%r9d, %r9d
	movq	%rbx, %rdx
	callq	trace_logger_log_int
	movl	$1, (%rsp)
	movl	$10, %edi
	movl	$.L.str.18, %esi
	movl	$.L.str.19, %edx
	movl	$.L.str.35, %ecx
	movl	$2, %r8d
	xorl	%r9d, %r9d
	callq	trace_logger_log0
	movq	$.L.str.11, (%rsp)
	movl	$3, %edi
	movl	$0, %esi
	xorl	%edx, %edx
	movl	$1, %ecx
	movl	$.L.str.36, %r8d
	xorl	%r9d, %r9d
	callq	trace_logger_log_int
	movq	$.L.str.11, (%rsp)
	movl	$2, %edi
	movl	$0, %esi
	xorl	%edx, %edx
	movl	$1, %ecx
	movl	$.L.str.37, %r8d
	xorl	%r9d, %r9d
	callq	trace_logger_log_int
	movq	$.L.str.11, (%rsp)
	movl	$1, %edi
	movl	$1, %esi
	movl	$1, %ecx
	movl	$.L.str.32, %r8d
	xorl	%r9d, %r9d
	movq	%rbx, %rdx
	callq	trace_logger_log_int
.Ltmp43:
	.loc	56 10 14                # src/main.cpp:10:14
	cmpl	$1, %ebp
.Ltmp44:
	.loc	56 10 9                 # src/main.cpp:10:9
	jg	.LBB2_2
.Ltmp45:
# %bb.1:
	#DEBUG_VALUE: main:argc <- %ebp
	#DEBUG_VALUE: main:argv <- %r14
	.loc	56 11 13 is_stmt 1      # src/main.cpp:11:13
	movl	$1, (%rsp)
	movl	$11, %edi
	movl	$.L.str.18, %esi
	movl	$.L.str.36, %edx
	movl	$.L.str.38, %ecx
	movl	$54, %r8d
	xorl	%r9d, %r9d
	callq	trace_logger_log0
	movq	$.L.str.11, (%rsp)
	movl	$3, %edi
	movl	$64, %esi
	movl	$_ZStlsISt11char_traitsIcEERSt13basic_ostreamIcT_ES5_PKc, %edx
	movl	$1, %ecx
	movl	$.L.str.39, %r8d
	xorl	%r9d, %r9d
	callq	trace_logger_log_ptr
	movq	$.L.str.11, (%rsp)
	movl	$1, %edi
	movl	$64, %esi
	movl	$_ZSt4cout, %edx
	movl	$1, %ecx
	movl	$.L.str.40, %r8d
	xorl	%r9d, %r9d
	callq	trace_logger_log_ptr
	movq	$.L.str.11, (%rsp)
	movl	$2, %edi
	movl	$64, %esi
	movl	$.L.str.41, %edx
	xorl	%ecx, %ecx
	movl	$.L.str.15, %r8d
	xorl	%r9d, %r9d
	callq	trace_logger_log_string
	movl	$_ZSt4cout, %edi
	movl	$.L.str, %esi
	callq	_ZStlsISt11char_traitsIcEERSt13basic_ostreamIcT_ES5_PKc
	movq	%rax, %rbp
.Ltmp46:
	.loc	56 11 29 is_stmt 0      # src/main.cpp:11:29
	movq	$.L.str.11, (%rsp)
	movl	$19134, %edi            # imm = 0x4ABE
	movl	$64, %esi
	movl	$1, %ecx
	movl	$.L.str.38, %r8d
	xorl	%r9d, %r9d
	movq	%rbp, %rdx
	callq	trace_logger_log_ptr
	movl	$1, (%rsp)
	movl	$11, %edi
	movl	$.L.str.18, %esi
	movl	$.L.str.36, %edx
	movl	$.L.str.42, %ecx
	movl	$30, %r8d
	xorl	%r9d, %r9d
	callq	trace_logger_log0
	movq	$.L.str.11, (%rsp)
	movl	$1, %edi
	movl	$64, %esi
	movl	$1, %ecx
	movl	$.L.str.43, %r8d
	xorl	%r9d, %r9d
	movq	%r14, %rdx
	callq	trace_logger_log_ptr
	movq	(%r14), %rbx
	.loc	56 11 26                # src/main.cpp:11:26
	movq	$.L.str.11, (%rsp)
	movl	$19134, %edi            # imm = 0x4ABE
	movl	$64, %esi
	movl	$1, %ecx
	movl	$.L.str.42, %r8d
	xorl	%r9d, %r9d
	movq	%rbx, %rdx
	callq	trace_logger_log_ptr
	movl	$1, (%rsp)
	movl	$11, %edi
	movl	$.L.str.18, %esi
	movl	$.L.str.36, %edx
	movl	$.L.str.44, %ecx
	movl	$54, %r8d
	xorl	%r9d, %r9d
	callq	trace_logger_log0
	movq	$.L.str.11, (%rsp)
	movl	$3, %edi
	movl	$64, %esi
	movl	$_ZStlsISt11char_traitsIcEERSt13basic_ostreamIcT_ES5_PKc, %edx
	movl	$1, %ecx
	movl	$.L.str.39, %r8d
	xorl	%r9d, %r9d
	callq	trace_logger_log_ptr
	movq	$.L.str.11, (%rsp)
	movl	$1, %edi
	movl	$64, %esi
	movl	$1, %ecx
	movl	$.L.str.38, %r8d
	xorl	%r9d, %r9d
	movq	%rbp, %rdx
	callq	trace_logger_log_ptr
	movq	$.L.str.11, (%rsp)
	movl	$2, %edi
	movl	$64, %esi
	movl	$1, %ecx
	movl	$.L.str.42, %r8d
	xorl	%r9d, %r9d
	movq	%rbx, %rdx
	callq	trace_logger_log_ptr
	movq	%rbp, %rdi
	movq	%rbx, %rsi
	callq	_ZStlsISt11char_traitsIcEERSt13basic_ostreamIcT_ES5_PKc
	movq	%rax, %rbx
	.loc	56 11 37                # src/main.cpp:11:37
	movq	$.L.str.11, (%rsp)
	movl	$19134, %edi            # imm = 0x4ABE
	movl	$64, %esi
	movl	$1, %ecx
	movl	$.L.str.44, %r8d
	xorl	%r9d, %r9d
	movq	%rbx, %rdx
	callq	trace_logger_log_ptr
	movl	$1, (%rsp)
	movl	$11, %edi
	movl	$.L.str.18, %esi
	movl	$.L.str.36, %edx
	movl	$.L.str.45, %ecx
	movl	$54, %r8d
	xorl	%r9d, %r9d
	callq	trace_logger_log0
	movq	$.L.str.11, (%rsp)
	movl	$3, %edi
	movl	$64, %esi
	movl	$_ZStlsISt11char_traitsIcEERSt13basic_ostreamIcT_ES5_PKc, %edx
	movl	$1, %ecx
	movl	$.L.str.39, %r8d
	xorl	%r9d, %r9d
	callq	trace_logger_log_ptr
	movq	$.L.str.11, (%rsp)
	movl	$1, %edi
	movl	$64, %esi
	movl	$1, %ecx
	movl	$.L.str.44, %r8d
	xorl	%r9d, %r9d
	movq	%rbx, %rdx
	callq	trace_logger_log_ptr
	movq	$.L.str.11, (%rsp)
	movl	$2, %edi
	movl	$64, %esi
	movl	$.L.str.46, %edx
	xorl	%ecx, %ecx
	movl	$.L.str.15, %r8d
	xorl	%r9d, %r9d
	callq	trace_logger_log_string
	movl	$.L.str.1, %esi
	movq	%rbx, %rdi
	callq	_ZStlsISt11char_traitsIcEERSt13basic_ostreamIcT_ES5_PKc
	.loc	56 12 13 is_stmt 1      # src/main.cpp:12:13
	movq	$.L.str.11, (%rsp)
	movl	$19134, %edi            # imm = 0x4ABE
	movl	$64, %esi
	movl	$1, %ecx
	movl	$.L.str.45, %r8d
	xorl	%r9d, %r9d
	movq	%rax, %rdx
	callq	trace_logger_log_ptr
	movl	$1, (%rsp)
	movl	$12, %edi
	movl	$.L.str.18, %esi
	movl	$.L.str.36, %edx
	movl	$.L.str.47, %ecx
	movl	$54, %r8d
	xorl	%r9d, %r9d
	callq	trace_logger_log0
	movq	$.L.str.11, (%rsp)
	movl	$3, %edi
	movl	$64, %esi
	movl	$_ZStlsISt11char_traitsIcEERSt13basic_ostreamIcT_ES5_PKc, %edx
	movl	$1, %ecx
	movl	$.L.str.39, %r8d
	xorl	%r9d, %r9d
	callq	trace_logger_log_ptr
	movq	$.L.str.11, (%rsp)
	movl	$1, %edi
	movl	$64, %esi
	movl	$_ZSt4cout, %edx
	movl	$1, %ecx
	movl	$.L.str.40, %r8d
	xorl	%r9d, %r9d
	callq	trace_logger_log_ptr
	movq	$.L.str.11, (%rsp)
	movl	$2, %edi
	movl	$64, %esi
	movl	$.L.str.48, %edx
	xorl	%ecx, %ecx
	movl	$.L.str.15, %r8d
	xorl	%r9d, %r9d
	callq	trace_logger_log_string
	movl	$_ZSt4cout, %edi
	movl	$.L.str.2, %esi
	callq	_ZStlsISt11char_traitsIcEERSt13basic_ostreamIcT_ES5_PKc
	.loc	56 13 13                # src/main.cpp:13:13
	movq	$.L.str.11, (%rsp)
	movl	$19134, %edi            # imm = 0x4ABE
	movl	$64, %esi
	movl	$1, %ecx
	movl	$.L.str.47, %r8d
	xorl	%r9d, %r9d
	movq	%rax, %rdx
	callq	trace_logger_log_ptr
	movl	$1, (%rsp)
	movl	$13, %edi
	movl	$.L.str.18, %esi
	movl	$.L.str.36, %edx
	movl	$.L.str.49, %ecx
	movl	$54, %r8d
	xorl	%r9d, %r9d
	callq	trace_logger_log0
	movq	$.L.str.11, (%rsp)
	movl	$3, %edi
	movl	$64, %esi
	movl	$_ZStlsISt11char_traitsIcEERSt13basic_ostreamIcT_ES5_PKc, %edx
	movl	$1, %ecx
	movl	$.L.str.39, %r8d
	xorl	%r9d, %r9d
	callq	trace_logger_log_ptr
	movq	$.L.str.11, (%rsp)
	movl	$1, %edi
	movl	$64, %esi
	movl	$_ZSt4cout, %edx
	movl	$1, %ecx
	movl	$.L.str.40, %r8d
	xorl	%r9d, %r9d
	callq	trace_logger_log_ptr
	movq	$.L.str.11, (%rsp)
	movl	$2, %edi
	movl	$64, %esi
	movl	$.L.str.50, %edx
	xorl	%ecx, %ecx
	movl	$.L.str.15, %r8d
	xorl	%r9d, %r9d
	callq	trace_logger_log_string
	movl	$_ZSt4cout, %edi
	movl	$.L.str.3, %esi
	callq	_ZStlsISt11char_traitsIcEERSt13basic_ostreamIcT_ES5_PKc
	.loc	56 14 9                 # src/main.cpp:14:9
	movq	$.L.str.11, (%rsp)
	movl	$19134, %edi            # imm = 0x4ABE
	movl	$64, %esi
	movl	$1, %ecx
	movl	$.L.str.49, %r8d
	xorl	%r9d, %r9d
	movq	%rax, %rdx
	callq	trace_logger_log_ptr
	movl	$1, (%rsp)
	movl	$14, %edi
	movl	$.L.str.18, %esi
	movl	$.L.str.36, %edx
	movl	$.L.str.51, %ecx
	movl	$2, %r8d
	xorl	%r9d, %r9d
	callq	trace_logger_log0
	movq	$.L.str.11, (%rsp)
	movl	$1, %edi
	movl	$0, %esi
	xorl	%edx, %edx
	movl	$1, %ecx
	movl	$.L.str.52, %r8d
	xorl	%r9d, %r9d
	callq	trace_logger_log_int
	movl	$1, %ebx
.Ltmp47:
.LBB2_19:
	.loc	56 44 1                 # src/main.cpp:44:1
	movl	$1, (%rsp)
	movq	$-1, %rdi
	movl	$.L.str.18, %esi
	movl	$.L.str.52, %edx
	movl	$.L.str.199, %ecx
	movl	$53, %r8d
	xorl	%r9d, %r9d
	callq	trace_logger_log0
	movq	$.L.str.86, (%rsp)
	movl	$2, %edi
	movl	$32, %esi
	xorl	%edx, %edx
	movl	$1, %ecx
	movl	$.L.str.55, %r8d
	movl	$1, %r9d
	callq	trace_logger_log_int
	movq	$.L.str.36, (%rsp)
	movl	$1, %edi
	movl	$32, %esi
	movl	$1, %edx
	movl	$1, %ecx
	movl	$.L.str.21, %r8d
	movl	$1, %r9d
	callq	trace_logger_log_int
	movl	%ebx, %ebp
	movq	$.L.str.36, (%rsp)
	movl	$19134, %edi            # imm = 0x4ABE
	movl	$32, %esi
	movl	$1, %ecx
	movl	$.L.str.199, %r8d
	xorl	%r9d, %r9d
	movq	%rbp, %rdx
	callq	trace_logger_log_int
	movl	$1, (%rsp)
	movl	$44, %edi
	movl	$.L.str.18, %esi
	movl	$.L.str.52, %edx
	movl	$.L.str.200, %ecx
	movl	$1, %r8d
	xorl	%r9d, %r9d
	callq	trace_logger_log0
	movq	$.L.str.11, (%rsp)
	movl	$1, %edi
	movl	$32, %esi
	movl	$1, %ecx
	movl	$.L.str.199, %r8d
	xorl	%r9d, %r9d
	movq	%rbp, %rdx
	callq	trace_logger_log_int
	movl	$.L.str.18, %edi
	movl	$1, %esi
	xorl	%edx, %edx
	movl	$1, %ecx
	callq	trace_logger_update_status
	movl	%ebx, %eax
	addq	$712, %rsp              # imm = 0x2C8
	popq	%rbx
	popq	%r12
	popq	%r13
	popq	%r14
	popq	%r15
	popq	%rbp
	retq
.LBB2_2:
.Ltmp48:
	#DEBUG_VALUE: main:argc <- %ebp
	#DEBUG_VALUE: main:argv <- %r14
	#DEBUG_VALUE: main:procType <- 0
	#DEBUG_VALUE: main:procencode <- 1
	#DEBUG_VALUE: main:procdecode <- 2
	.loc	56 29 5                 # src/main.cpp:29:5
	movl	$1, (%rsp)
	movl	$29, %edi
	movl	$.L.str.18, %esi
	movl	$.L.str.37, %edx
	movl	$.L.str.53, %ecx
	movl	$47, %r8d
	xorl	%r9d, %r9d
	callq	trace_logger_log0
	movq	$.L.str.11, (%rsp)
	leaq	152(%rsp), %rbx
	movl	$1, %edi
	movl	$64, %esi
	movl	$1, %ecx
	movl	$.L.str.20, %r8d
	xorl	%r9d, %r9d
	movq	%rbx, %rdx
	callq	trace_logger_log_ptr
	movq	$.L.str.11, (%rsp)
	movl	$19134, %edi            # imm = 0x4ABE
	movl	$64, %esi
	movl	$1, %ecx
	movl	$.L.str.20, %r8d
	xorl	%r9d, %r9d
	movq	%rbx, %rdx
	callq	trace_logger_log_ptr
	.loc	56 29 21 is_stmt 0      # src/main.cpp:29:21
	movl	$1, (%rsp)
	movl	$29, %edi
	movl	$.L.str.18, %esi
	movl	$.L.str.37, %edx
	movl	$.L.str.54, %ecx
	movl	$32, %r8d
	xorl	%r9d, %r9d
	callq	trace_logger_log0
	movq	$.L.str.11, (%rsp)
	movl	$3, %edi
	movl	$32, %esi
	xorl	%edx, %edx
	movl	$1, %ecx
	movl	$.L.str.55, %r8d
	xorl	%r9d, %r9d
	callq	trace_logger_log_int
	movq	$.L.str.11, (%rsp)
	movl	$2, %edi
	movl	$64, %esi
	xorl	%edx, %edx
	xorl	%ecx, %ecx
	movl	$.L.str.15, %r8d
	xorl	%r9d, %r9d
	callq	trace_logger_log_int
	movq	$.L.str.11, (%rsp)
	leaq	200(%rsp), %rbx
	movl	$1, %edi
	movl	$64, %esi
	movl	$1, %ecx
	movl	$.L.str.23, %r8d
	xorl	%r9d, %r9d
	movq	%rbx, %rdx
	callq	trace_logger_log_ptr
	movq	$.L.str.11, (%rsp)
	movl	$19134, %edi            # imm = 0x4ABE
	movl	$64, %esi
	movl	$1, %ecx
	movl	$.L.str.54, %r8d
	xorl	%r9d, %r9d
	movq	%rbx, %rdx
	callq	trace_logger_log_ptr
	movl	$1, (%rsp)
	movl	$29, %edi
	movl	$.L.str.18, %esi
	movl	$.L.str.37, %edx
	movl	$.L.str.56, %ecx
	movl	$54, %r8d
	xorl	%r9d, %r9d
	callq	trace_logger_log0
	movq	$.L.str.11, (%rsp)
	movl	$2, %edi
	movl	$64, %esi
	movl	$_ZNSaIcEC2Ev, %edx
	movl	$1, %ecx
	movl	$.L.str.57, %r8d
	xorl	%r9d, %r9d
	callq	trace_logger_log_ptr
	movq	$.L.str.11, (%rsp)
	movl	$1, %edi
	movl	$64, %esi
	movl	$1, %ecx
	movl	$.L.str.23, %r8d
	xorl	%r9d, %r9d
	movq	%rbx, %rdx
	callq	trace_logger_log_ptr
	movq	%rbx, %rdi
	callq	_ZNSaIcEC2Ev
.Ltmp2:
	leaq	72(%rsp), %rdi
	movl	$.L.str.5, %esi
	movq	%rbx, %rdx
	callq	_ZNSt7__cxx1112basic_stringIcSt11char_traitsIcESaIcEEC2EPKcRKS3_
.Ltmp3:
.Ltmp49:
# %bb.3:
	#DEBUG_VALUE: main:argc <- %ebp
	#DEBUG_VALUE: main:argv <- %r14
.Ltmp5:
	.loc	56 0 21                 # src/main.cpp:0:21
	leaq	152(%rsp), %rdi
	leaq	72(%rsp), %rsi
	.loc	56 29 13                # src/main.cpp:29:13
	movl	$1, %edx
	callq	_ZN12ILLIXR_AUDIO7ABAudioC1ENSt7__cxx1112basic_stringIcSt11char_traitsIcESaIcEEENS0_11ProcessTypeE
.Ltmp6:
.Ltmp50:
# %bb.4:
	#DEBUG_VALUE: main:argc <- %ebp
	#DEBUG_VALUE: main:argv <- %r14
	movl	$1, (%rsp)
	movl	$29, %edi
	movl	$.L.str.18, %esi
	movl	$.L.str.58, %edx
	movl	$.L.str.59, %ecx
	movl	$54, %r8d
	xorl	%r9d, %r9d
	callq	trace_logger_log0
	movq	$.L.str.11, (%rsp)
	movl	$2, %edi
	movl	$64, %esi
	movl	$_ZNSt7__cxx1112basic_stringIcSt11char_traitsIcESaIcEED2Ev, %edx
	movl	$1, %ecx
	movl	$.L.str.60, %r8d
	xorl	%r9d, %r9d
	callq	trace_logger_log_ptr
	movq	$.L.str.11, (%rsp)
	leaq	72(%rsp), %rbx
	movl	$1, %edi
	movl	$64, %esi
	movl	$1, %ecx
	movl	$.L.str.22, %r8d
	xorl	%r9d, %r9d
	movq	%rbx, %rdx
	callq	trace_logger_log_ptr
	movq	%rbx, %rdi
	callq	_ZNSt7__cxx1112basic_stringIcSt11char_traitsIcESaIcEED2Ev
	movl	$1, (%rsp)
	movl	$29, %edi
	movl	$.L.str.18, %esi
	movl	$.L.str.58, %edx
	movl	$.L.str.61, %ecx
	movl	$54, %r8d
	xorl	%r9d, %r9d
	callq	trace_logger_log0
	movq	$.L.str.11, (%rsp)
	movl	$2, %edi
	movl	$64, %esi
	movl	$_ZNSaIcED2Ev, %edx
	movl	$1, %ecx
	movl	$.L.str.62, %r8d
	xorl	%r9d, %r9d
	callq	trace_logger_log_ptr
	movq	$.L.str.11, (%rsp)
	leaq	200(%rsp), %rbx
	movl	$1, %edi
	movl	$64, %esi
	movl	$1, %ecx
	movl	$.L.str.23, %r8d
	xorl	%r9d, %r9d
	movq	%rbx, %rdx
	callq	trace_logger_log_ptr
	movq	%rbx, %rdi
	callq	_ZNSaIcED2Ev
	.loc	56 30 5 is_stmt 1       # src/main.cpp:30:5
	movl	$1, (%rsp)
	movl	$30, %edi
	movl	$.L.str.18, %esi
	movl	$.L.str.58, %edx
	movl	$.L.str.63, %ecx
	movl	$47, %r8d
	xorl	%r9d, %r9d
	callq	trace_logger_log0
	movq	$.L.str.11, (%rsp)
	leaq	104(%rsp), %rbx
	movl	$1, %edi
	movl	$64, %esi
	movl	$1, %ecx
	movl	$.L.str.24, %r8d
	xorl	%r9d, %r9d
	movq	%rbx, %rdx
	callq	trace_logger_log_ptr
	movq	$.L.str.11, (%rsp)
	movl	$19134, %edi            # imm = 0x4ABE
	movl	$64, %esi
	movl	$1, %ecx
	movl	$.L.str.24, %r8d
	xorl	%r9d, %r9d
	movq	%rbx, %rdx
	callq	trace_logger_log_ptr
	.loc	56 30 21 is_stmt 0      # src/main.cpp:30:21
	movl	$1, (%rsp)
	movl	$30, %edi
	movl	$.L.str.18, %esi
	movl	$.L.str.58, %edx
	movl	$.L.str.64, %ecx
	movl	$32, %r8d
	xorl	%r9d, %r9d
	callq	trace_logger_log0
	movq	$.L.str.11, (%rsp)
	movl	$3, %edi
	movl	$32, %esi
	xorl	%edx, %edx
	movl	$1, %ecx
	movl	$.L.str.55, %r8d
	xorl	%r9d, %r9d
	callq	trace_logger_log_int
	movq	$.L.str.11, (%rsp)
	movl	$2, %edi
	movl	$64, %esi
	xorl	%edx, %edx
	xorl	%ecx, %ecx
	movl	$.L.str.15, %r8d
	xorl	%r9d, %r9d
	callq	trace_logger_log_int
	movq	$.L.str.11, (%rsp)
	leaq	200(%rsp), %rbx
	movl	$1, %edi
	movl	$64, %esi
	movl	$1, %ecx
	movl	$.L.str.26, %r8d
	xorl	%r9d, %r9d
	movq	%rbx, %rdx
	callq	trace_logger_log_ptr
	movq	$.L.str.11, (%rsp)
	movl	$19134, %edi            # imm = 0x4ABE
	movl	$64, %esi
	movl	$1, %ecx
	movl	$.L.str.64, %r8d
	xorl	%r9d, %r9d
	movq	%rbx, %rdx
	callq	trace_logger_log_ptr
	movl	$1, (%rsp)
	movl	$30, %edi
	movl	$.L.str.18, %esi
	movl	$.L.str.58, %edx
	movl	$.L.str.65, %ecx
	movl	$54, %r8d
	xorl	%r9d, %r9d
	callq	trace_logger_log0
	movq	$.L.str.11, (%rsp)
	movl	$2, %edi
	movl	$64, %esi
	movl	$_ZNSaIcEC2Ev, %edx
	movl	$1, %ecx
	movl	$.L.str.57, %r8d
	xorl	%r9d, %r9d
	callq	trace_logger_log_ptr
	movq	$.L.str.11, (%rsp)
	movl	$1, %edi
	movl	$64, %esi
	movl	$1, %ecx
	movl	$.L.str.26, %r8d
	xorl	%r9d, %r9d
	movq	%rbx, %rdx
	callq	trace_logger_log_ptr
	movq	%rbx, %rdi
	callq	_ZNSaIcEC2Ev
.Ltmp8:
	leaq	40(%rsp), %rdi
	movl	$.L.str.5, %esi
	movq	%rbx, %rdx
	callq	_ZNSt7__cxx1112basic_stringIcSt11char_traitsIcESaIcEEC2EPKcRKS3_
.Ltmp9:
.Ltmp51:
# %bb.5:
	#DEBUG_VALUE: main:argc <- %ebp
	#DEBUG_VALUE: main:argv <- %r14
.Ltmp11:
	.loc	56 0 21                 # src/main.cpp:0:21
	leaq	104(%rsp), %rdi
	leaq	40(%rsp), %rsi
	.loc	56 30 13                # src/main.cpp:30:13
	movl	$2, %edx
	callq	_ZN12ILLIXR_AUDIO7ABAudioC1ENSt7__cxx1112basic_stringIcSt11char_traitsIcESaIcEEENS0_11ProcessTypeE
.Ltmp12:
.Ltmp52:
# %bb.6:
	#DEBUG_VALUE: main:argc <- %ebp
	#DEBUG_VALUE: main:argv <- %r14
	movl	$1, (%rsp)
	movl	$30, %edi
	movl	$.L.str.18, %esi
	movl	$.L.str.66, %edx
	movl	$.L.str.67, %ecx
	movl	$54, %r8d
	xorl	%r9d, %r9d
	callq	trace_logger_log0
	movq	$.L.str.11, (%rsp)
	movl	$2, %edi
	movl	$64, %esi
	movl	$_ZNSt7__cxx1112basic_stringIcSt11char_traitsIcESaIcEED2Ev, %edx
	movl	$1, %ecx
	movl	$.L.str.60, %r8d
	xorl	%r9d, %r9d
	callq	trace_logger_log_ptr
	movq	$.L.str.11, (%rsp)
	leaq	40(%rsp), %rbx
	movl	$1, %edi
	movl	$64, %esi
	movl	$1, %ecx
	movl	$.L.str.25, %r8d
	xorl	%r9d, %r9d
	movq	%rbx, %rdx
	callq	trace_logger_log_ptr
	movq	%rbx, %rdi
	callq	_ZNSt7__cxx1112basic_stringIcSt11char_traitsIcESaIcEED2Ev
	movl	$1, (%rsp)
	movl	$30, %edi
	movl	$.L.str.18, %esi
	movl	$.L.str.66, %edx
	movl	$.L.str.68, %ecx
	movl	$54, %r8d
	xorl	%r9d, %r9d
	callq	trace_logger_log0
	movq	$.L.str.11, (%rsp)
	movl	$2, %edi
	movl	$64, %esi
	movl	$_ZNSaIcED2Ev, %edx
	movl	$1, %ecx
	movl	$.L.str.62, %r8d
	xorl	%r9d, %r9d
	callq	trace_logger_log_ptr
	movq	$.L.str.11, (%rsp)
	leaq	200(%rsp), %rbx
	movl	$1, %edi
	movl	$64, %esi
	movl	$1, %ecx
	movl	$.L.str.26, %r8d
	xorl	%r9d, %r9d
	movq	%rbx, %rdx
	callq	trace_logger_log_ptr
	movq	%rbx, %rdi
	callq	_ZNSaIcED2Ev
.Ltmp14:
	leaq	152(%rsp), %rdi
	.loc	56 31 13 is_stmt 1      # src/main.cpp:31:13
	callq	_ZN12ILLIXR_AUDIO7ABAudio10loadSourceEv
.Ltmp15:
.Ltmp53:
# %bb.7:
	#DEBUG_VALUE: main:argc <- %ebp
	#DEBUG_VALUE: main:argv <- %r14
.Ltmp16:
	.loc	56 0 13 is_stmt 0       # src/main.cpp:0:13
	leaq	104(%rsp), %rdi
	.loc	56 32 13 is_stmt 1      # src/main.cpp:32:13
	callq	_ZN12ILLIXR_AUDIO7ABAudio10loadSourceEv
.Ltmp17:
.Ltmp54:
# %bb.8:
	#DEBUG_VALUE: main:argc <- %ebp
	#DEBUG_VALUE: main:argv <- %r14
	.loc	56 33 5                 # src/main.cpp:33:5
	movl	$1, (%rsp)
	movl	$33, %edi
	movl	$.L.str.18, %esi
	movl	$.L.str.69, %edx
	movl	$.L.str.70, %ecx
	movl	$47, %r8d
	xorl	%r9d, %r9d
	callq	trace_logger_log0
	movq	$.L.str.11, (%rsp)
	leaq	200(%rsp), %rbx
	movl	$1, %edi
	movl	$64, %esi
	movl	$1, %ecx
	movl	$.L.str.27, %r8d
	xorl	%r9d, %r9d
	movq	%rbx, %rdx
	callq	trace_logger_log_ptr
	movq	$.L.str.11, (%rsp)
	movl	$19134, %edi            # imm = 0x4ABE
	movl	$64, %esi
	movl	$1, %ecx
	movl	$.L.str.27, %r8d
	xorl	%r9d, %r9d
	movq	%rbx, %rdx
	callq	trace_logger_log_ptr
.Ltmp19:
	.loc	56 33 19 is_stmt 0      # src/main.cpp:33:19
	movq	%rbx, %rdi
	callq	_ZNSt14basic_ofstreamIcSt11char_traitsIcEEC1Ev
.Ltmp20:
.Ltmp55:
# %bb.9:
	#DEBUG_VALUE: main:argc <- %ebp
	#DEBUG_VALUE: main:argv <- %r14
.Ltmp22:
	.loc	56 0 19                 # src/main.cpp:0:19
	leaq	200(%rsp), %rdi
	.loc	56 34 16 is_stmt 1      # src/main.cpp:34:16
	movl	$.L.str.6, %esi
	movl	$16, %edx
	callq	_ZNSt14basic_ofstreamIcSt11char_traitsIcEE4openEPKcSt13_Ios_Openmode
.Ltmp23:
.Ltmp56:
# %bb.10:
	#DEBUG_VALUE: main:argc <- %ebp
	#DEBUG_VALUE: main:argv <- %r14
	.loc	56 35 5                 # src/main.cpp:35:5
	movl	$1, (%rsp)
	xorl	%ebx, %ebx
	movl	$35, %edi
	movl	$.L.str.18, %esi
	movl	$.L.str.71, %edx
	movl	$.L.str.72, %ecx
	movl	$47, %r8d
	xorl	%r9d, %r9d
	callq	trace_logger_log0
	movq	$.L.str.11, (%rsp)
	leaq	32(%rsp), %r12
.Ltmp57:
	#DEBUG_VALUE: main:blockStart <- [DW_OP_plus_uconst 32] [%rsp+0]
	movl	$1, %edi
	movl	$64, %esi
	movl	$1, %ecx
	movl	$.L.str.28, %r8d
	xorl	%r9d, %r9d
	movq	%r12, %rdx
	callq	trace_logger_log_ptr
	movq	$.L.str.11, (%rsp)
	movl	$19134, %edi            # imm = 0x4ABE
	movl	$64, %esi
	movl	$1, %ecx
	movl	$.L.str.28, %r8d
	xorl	%r9d, %r9d
	movq	%r12, %rdx
	callq	trace_logger_log_ptr
	.loc	56 35 56 is_stmt 0      # src/main.cpp:35:56
	movl	$1, (%rsp)
	movl	$35, %edi
	movl	$.L.str.18, %esi
	movl	$.L.str.71, %edx
	movl	$.L.str.73, %ecx
	movl	$54, %r8d
	xorl	%r9d, %r9d
	callq	trace_logger_log0
	movq	$.L.str.11, (%rsp)
	movl	$2, %edi
	movl	$64, %esi
	movl	$_ZNSt6chrono10time_pointINS_3_V212system_clockENS_8durationIlSt5ratioILl1ELl1000000000EEEEEC2Ev, %edx
	movl	$1, %ecx
	movl	$.L.str.74, %r8d
	xorl	%r9d, %r9d
	callq	trace_logger_log_ptr
	movq	$.L.str.11, (%rsp)
	movl	$1, %edi
	movl	$64, %esi
	movl	$1, %ecx
	movl	$.L.str.28, %r8d
	xorl	%r9d, %r9d
	movq	%r12, %rdx
	callq	trace_logger_log_ptr
	movq	%r12, %rdi
	callq	_ZNSt6chrono10time_pointINS_3_V212system_clockENS_8durationIlSt5ratioILl1ELl1000000000EEEEEC2Ev
	.loc	56 35 5                 # src/main.cpp:35:5
	movl	$1, (%rsp)
	movl	$35, %edi
	movl	$.L.str.18, %esi
	movl	$.L.str.71, %edx
	movl	$.L.str.75, %ecx
	movl	$47, %r8d
	xorl	%r9d, %r9d
	callq	trace_logger_log0
	movq	$.L.str.11, (%rsp)
	leaq	24(%rsp), %r15
.Ltmp58:
	#DEBUG_VALUE: main:blockFinish <- [DW_OP_plus_uconst 24] [%rsp+0]
	movl	$1, %edi
	movl	$64, %esi
	movl	$1, %ecx
	movl	$.L.str.29, %r8d
	xorl	%r9d, %r9d
	movq	%r15, %rdx
	callq	trace_logger_log_ptr
	movq	$.L.str.11, (%rsp)
	movl	$19134, %edi            # imm = 0x4ABE
	movl	$64, %esi
	movl	$1, %ecx
	movl	$.L.str.29, %r8d
	xorl	%r9d, %r9d
	movq	%r15, %rdx
	callq	trace_logger_log_ptr
	.loc	56 35 68                # src/main.cpp:35:68
	movl	$1, (%rsp)
	movl	$35, %edi
	movl	$.L.str.18, %esi
	movl	$.L.str.71, %edx
	movl	$.L.str.76, %ecx
	movl	$54, %r8d
	xorl	%r9d, %r9d
	callq	trace_logger_log0
	movq	$.L.str.11, (%rsp)
	movl	$2, %edi
	movl	$64, %esi
	movl	$_ZNSt6chrono10time_pointINS_3_V212system_clockENS_8durationIlSt5ratioILl1ELl1000000000EEEEEC2Ev, %edx
	movl	$1, %ecx
	movl	$.L.str.74, %r8d
	xorl	%r9d, %r9d
	callq	trace_logger_log_ptr
	movq	$.L.str.11, (%rsp)
	movl	$1, %edi
	movl	$64, %esi
	movl	$1, %ecx
	movl	$.L.str.29, %r8d
	xorl	%r9d, %r9d
	movq	%r15, %rdx
	callq	trace_logger_log_ptr
	movq	%r15, %rdi
	callq	_ZNSt6chrono10time_pointINS_3_V212system_clockENS_8durationIlSt5ratioILl1ELl1000000000EEEEEC2Ev
	movl	$1, (%rsp)
	movq	$-1, %rdi
	movl	$.L.str.18, %esi
	movl	$.L.str.71, %edx
	movl	$.L.str.77, %ecx
	movl	$32, %r8d
	xorl	%r9d, %r9d
	callq	trace_logger_log0
	movq	$.L.str.11, (%rsp)
	movl	$4, %edi
	movl	$32, %esi
	xorl	%edx, %edx
	movl	$1, %ecx
	movl	$.L.str.55, %r8d
	xorl	%r9d, %r9d
	callq	trace_logger_log_int
	movq	$.L.str.11, (%rsp)
	movl	$3, %edi
	movl	$32, %esi
	xorl	%edx, %edx
	movl	$1, %ecx
	movl	$.L.str.55, %r8d
	xorl	%r9d, %r9d
	callq	trace_logger_log_int
	movq	$.L.str.11, (%rsp)
	movl	$2, %edi
	movl	$64, %esi
	xorl	%edx, %edx
	xorl	%ecx, %ecx
	movl	$.L.str.15, %r8d
	xorl	%r9d, %r9d
	callq	trace_logger_log_int
	movq	$.L.str.11, (%rsp)
	movl	$1, %edi
	movl	$64, %esi
	movl	$1, %ecx
	movl	$.L.str.28, %r8d
	xorl	%r9d, %r9d
	movq	%r12, %rdx
	callq	trace_logger_log_ptr
	movq	$.L.str.11, (%rsp)
	movl	$19134, %edi            # imm = 0x4ABE
	movl	$64, %esi
	movl	$1, %ecx
	movl	$.L.str.77, %r8d
	xorl	%r9d, %r9d
	movq	%r12, %rdx
	callq	trace_logger_log_ptr
	movl	$1, (%rsp)
	movq	$-1, %rdi
	movl	$.L.str.18, %esi
	movl	$.L.str.71, %edx
	movl	$.L.str.78, %ecx
	movl	$32, %r8d
	xorl	%r9d, %r9d
	callq	trace_logger_log0
	movq	$.L.str.11, (%rsp)
	movl	$4, %edi
	movl	$32, %esi
	xorl	%edx, %edx
	movl	$1, %ecx
	movl	$.L.str.55, %r8d
	xorl	%r9d, %r9d
	callq	trace_logger_log_int
	movq	$.L.str.11, (%rsp)
	movl	$3, %edi
	movl	$32, %esi
	xorl	%edx, %edx
	movl	$1, %ecx
	movl	$.L.str.55, %r8d
	xorl	%r9d, %r9d
	callq	trace_logger_log_int
	movq	$.L.str.11, (%rsp)
	movl	$2, %edi
	movl	$64, %esi
	xorl	%edx, %edx
	xorl	%ecx, %ecx
	movl	$.L.str.15, %r8d
	xorl	%r9d, %r9d
	callq	trace_logger_log_int
	movq	$.L.str.11, (%rsp)
	movl	$1, %edi
	movl	$64, %esi
	movl	$1, %ecx
	movl	$.L.str.29, %r8d
	xorl	%r9d, %r9d
	movq	%r15, %rdx
	callq	trace_logger_log_ptr
	movq	$.L.str.11, (%rsp)
	movl	$19134, %edi            # imm = 0x4ABE
	movl	$64, %esi
	movl	$1, %ecx
	movl	$.L.str.78, %r8d
	xorl	%r9d, %r9d
	movq	%r15, %rdx
	callq	trace_logger_log_ptr
	movl	$1, (%rsp)
	movq	$-1, %rdi
	movl	$.L.str.18, %esi
	movl	$.L.str.71, %edx
	movl	$.L.str.79, %ecx
	movl	$47, %r8d
	xorl	%r9d, %r9d
	callq	trace_logger_log0
	movq	$.L.str.11, (%rsp)
	leaq	200(%rsp), %rbp
.Ltmp59:
	.loc	56 0 68                 # src/main.cpp:0:68
	movl	$1, %edi
	movl	$64, %esi
	movl	$1, %ecx
	movl	$.L.str.27, %r8d
	xorl	%r9d, %r9d
	movq	%rbp, %rdx
	callq	trace_logger_log_ptr
	movq	$.L.str.11, (%rsp)
	movl	$19134, %edi            # imm = 0x4ABE
	movl	$64, %esi
	movl	$1, %ecx
	movl	$.L.str.27, %r8d
	xorl	%r9d, %r9d
	movq	%rbp, %rdx
	callq	trace_logger_log_ptr
	movl	$1, (%rsp)
	movq	$-1, %rdi
	movl	$.L.str.18, %esi
	movl	$.L.str.71, %edx
	movl	$.L.str.80, %ecx
	movl	$47, %r8d
	xorl	%r9d, %r9d
	callq	trace_logger_log0
	movq	$.L.str.11, (%rsp)
	leaq	16(%rsp), %r13
	movl	$1, %edi
	movl	$64, %esi
	movl	$1, %ecx
	movl	$.L.str.30, %r8d
	xorl	%r9d, %r9d
	movq	%r13, %rdx
	callq	trace_logger_log_ptr
	movq	$.L.str.11, (%rsp)
	movl	$19134, %edi            # imm = 0x4ABE
	movl	$64, %esi
	movl	$1, %ecx
	movl	$.L.str.80, %r8d
	xorl	%r9d, %r9d
	movq	%r13, %rdx
	callq	trace_logger_log_ptr
	movl	$1, (%rsp)
	movq	$-1, %rdi
	movl	$.L.str.18, %esi
	movl	$.L.str.71, %edx
	movl	$.L.str.81, %ecx
	movl	$47, %r8d
	xorl	%r9d, %r9d
	callq	trace_logger_log0
	movq	$.L.str.11, (%rsp)
	leaq	8(%rsp), %r14
.Ltmp60:
	movl	$1, %edi
	movl	$64, %esi
	movl	$1, %ecx
	movl	$.L.str.31, %r8d
	xorl	%r9d, %r9d
	movq	%r14, %rdx
	callq	trace_logger_log_ptr
	movq	$.L.str.11, (%rsp)
	movl	$19134, %edi            # imm = 0x4ABE
	movl	$64, %esi
	movl	$1, %ecx
	movl	$.L.str.81, %r8d
	xorl	%r9d, %r9d
	movq	%r14, %rdx
	callq	trace_logger_log_ptr
	movl	$1, (%rsp)
	movq	$-1, %rdi
	movl	$.L.str.18, %esi
	movl	$.L.str.71, %edx
	movl	$.L.str.82, %ecx
	movl	$32, %r8d
	xorl	%r9d, %r9d
	callq	trace_logger_log0
	movq	$.L.str.11, (%rsp)
	movl	$3, %edi
	movl	$32, %esi
	xorl	%edx, %edx
	movl	$1, %ecx
	movl	$.L.str.55, %r8d
	xorl	%r9d, %r9d
	callq	trace_logger_log_int
	movq	$.L.str.11, (%rsp)
	movl	$2, %edi
	movl	$64, %esi
	xorl	%edx, %edx
	xorl	%ecx, %ecx
	movl	$.L.str.15, %r8d
	xorl	%r9d, %r9d
	callq	trace_logger_log_int
	movq	$.L.str.11, (%rsp)
	movl	$1, %edi
	movl	$64, %esi
	movl	$1, %ecx
	movl	$.L.str.31, %r8d
	xorl	%r9d, %r9d
	movq	%r14, %rdx
	callq	trace_logger_log_ptr
	movq	$.L.str.11, (%rsp)
	movl	$19134, %edi            # imm = 0x4ABE
	movl	$64, %esi
	movl	$1, %ecx
	movl	$.L.str.82, %r8d
	xorl	%r9d, %r9d
	movq	%r14, %rdx
	callq	trace_logger_log_ptr
	movl	$1, (%rsp)
	movq	$-1, %rdi
	movl	$.L.str.18, %esi
	movl	$.L.str.71, %edx
	movl	$.L.str.83, %ecx
	movl	$32, %r8d
	xorl	%r9d, %r9d
	callq	trace_logger_log0
	movq	$.L.str.11, (%rsp)
	movl	$3, %edi
	movl	$32, %esi
	xorl	%edx, %edx
	movl	$1, %ecx
	movl	$.L.str.55, %r8d
	xorl	%r9d, %r9d
	callq	trace_logger_log_int
	movq	$.L.str.11, (%rsp)
	movl	$2, %edi
	movl	$64, %esi
	xorl	%edx, %edx
	xorl	%ecx, %ecx
	movl	$.L.str.15, %r8d
	xorl	%r9d, %r9d
	callq	trace_logger_log_int
	movq	$.L.str.11, (%rsp)
	movl	$1, %edi
	movl	$64, %esi
	movl	$1, %ecx
	movl	$.L.str.30, %r8d
	xorl	%r9d, %r9d
	movq	%r13, %rdx
	callq	trace_logger_log_ptr
.Ltmp61:
	#DEBUG_VALUE: i <- 0
	.loc	56 36 5 is_stmt 1       # src/main.cpp:36:5
	movq	$.L.str.11, (%rsp)
	movl	$19134, %edi            # imm = 0x4ABE
	movl	$64, %esi
	movl	$1, %ecx
	movl	$.L.str.83, %r8d
	xorl	%r9d, %r9d
	movq	%r13, %rdx
	callq	trace_logger_log_ptr
	movl	$1, (%rsp)
	movl	$36, %edi
	movl	$.L.str.18, %esi
	movl	$.L.str.71, %edx
	movl	$.L.str.84, %ecx
	movl	$2, %r8d
	xorl	%r9d, %r9d
	callq	trace_logger_log0
	movq	$.L.str.11, (%rsp)
	movl	$1, %edi
	movl	$0, %esi
	xorl	%edx, %edx
	movl	$1, %ecx
	movl	$.L.str.85, %r8d
	xorl	%r9d, %r9d
	callq	trace_logger_log_int
.Ltmp62:
	.p2align	4, 0x90
.LBB2_11:                               # =>This Inner Loop Header: Depth=1
	#DEBUG_VALUE: main:blockFinish <- [DW_OP_plus_uconst 24] [%rsp+0]
	#DEBUG_VALUE: main:blockStart <- [DW_OP_plus_uconst 32] [%rsp+0]
	.loc	56 36 14 is_stmt 0      # src/main.cpp:36:14
	movl	$1, (%rsp)
	movq	$-1, %rdi
	movl	$.L.str.18, %esi
	movl	$.L.str.85, %edx
	movl	$.L.str.145, %ecx
	movl	$53, %r8d
	xorl	%r9d, %r9d
	callq	trace_logger_log0
	movq	$.L.str.146, (%rsp)
	movl	$2, %edi
	movl	$32, %esi
	xorl	%edx, %edx
	movl	$1, %ecx
	movl	$.L.str.145, %r8d
	movl	$1, %r9d
	callq	trace_logger_log_int
	movq	$.L.str.71, (%rsp)
	movl	$1, %edi
	movl	$32, %esi
	xorl	%edx, %edx
	movl	$1, %ecx
	movl	$.L.str.55, %r8d
	movl	$1, %r9d
	callq	trace_logger_log_int
	movq	$.L.str.71, (%rsp)
	movl	$19134, %edi            # imm = 0x4ABE
	movl	$32, %esi
	movl	$1, %ecx
	movl	$.L.str.145, %r8d
	xorl	%r9d, %r9d
	movq	%rbx, %rdx
	callq	trace_logger_log_int
.Ltmp63:
	.loc	56 37 22 is_stmt 1      # src/main.cpp:37:22
	movl	$1, (%rsp)
	movl	$37, %edi
	movl	$.L.str.18, %esi
	movl	$.L.str.85, %edx
	movl	$.L.str.147, %ecx
	movl	$54, %r8d
	xorl	%r9d, %r9d
	callq	trace_logger_log0
	movq	$.L.str.11, (%rsp)
	movl	$1, %edi
	movl	$64, %esi
	movl	$_ZNSt6chrono3_V212system_clock3nowEv, %edx
	movl	$1, %ecx
	movl	$.L.str.148, %r8d
	xorl	%r9d, %r9d
	callq	trace_logger_log_ptr
	callq	_ZNSt6chrono3_V212system_clock3nowEv
	movq	%rax, %rbp
	.loc	56 37 20 is_stmt 0      # src/main.cpp:37:20
	movq	$.L.str.11, (%rsp)
	movl	$19134, %edi            # imm = 0x4ABE
	movl	$64, %esi
	movl	$1, %ecx
	movl	$.L.str.147, %r8d
	xorl	%r9d, %r9d
	movq	%rbp, %rdx
	callq	trace_logger_log_int
	movl	$1, (%rsp)
	movl	$37, %edi
	movl	$.L.str.18, %esi
	movl	$.L.str.85, %edx
	movl	$.L.str.149, %ecx
	movl	$31, %r8d
	xorl	%r9d, %r9d
	callq	trace_logger_log0
	movq	$.L.str.11, (%rsp)
	movl	$2, %edi
	movl	$64, %esi
	movl	$1, %ecx
	movl	$.L.str.77, %r8d
	xorl	%r9d, %r9d
	movq	%r12, %rdx
	callq	trace_logger_log_ptr
	movq	$.L.str.11, (%rsp)
	movl	$1, %edi
	movl	$64, %esi
	movl	$1, %ecx
	movl	$.L.str.147, %r8d
	xorl	%r9d, %r9d
	movq	%rbp, %rdx
	callq	trace_logger_log_int
	movq	%rbp, 32(%rsp)
.Ltmp25:
	.loc	56 38 17 is_stmt 1      # src/main.cpp:38:17
	leaq	152(%rsp), %rdi
	callq	_ZN12ILLIXR_AUDIO7ABAudio12processBlockEv
.Ltmp26:
.Ltmp64:
# %bb.12:                               #   in Loop: Header=BB2_11 Depth=1
	#DEBUG_VALUE: main:blockFinish <- [DW_OP_plus_uconst 24] [%rsp+0]
	#DEBUG_VALUE: main:blockStart <- [DW_OP_plus_uconst 32] [%rsp+0]
.Ltmp27:
	.loc	56 39 17                # src/main.cpp:39:17
	leaq	104(%rsp), %rdi
	callq	_ZN12ILLIXR_AUDIO7ABAudio12processBlockEv
.Ltmp28:
.Ltmp65:
# %bb.13:                               #   in Loop: Header=BB2_11 Depth=1
	#DEBUG_VALUE: main:blockFinish <- [DW_OP_plus_uconst 24] [%rsp+0]
	#DEBUG_VALUE: main:blockStart <- [DW_OP_plus_uconst 32] [%rsp+0]
	.loc	56 40 23                # src/main.cpp:40:23
	movl	$1, (%rsp)
	movl	$40, %edi
	movl	$.L.str.18, %esi
	movl	$.L.str.150, %edx
	movl	$.L.str.151, %ecx
	movl	$54, %r8d
	xorl	%r9d, %r9d
	callq	trace_logger_log0
	movq	$.L.str.11, (%rsp)
	movl	$1, %edi
	movl	$64, %esi
	movl	$_ZNSt6chrono3_V212system_clock3nowEv, %edx
	movl	$1, %ecx
	movl	$.L.str.148, %r8d
	xorl	%r9d, %r9d
	callq	trace_logger_log_ptr
	callq	_ZNSt6chrono3_V212system_clock3nowEv
	movq	%rax, %rbp
	.loc	56 40 21 is_stmt 0      # src/main.cpp:40:21
	movq	$.L.str.11, (%rsp)
	movl	$19134, %edi            # imm = 0x4ABE
	movl	$64, %esi
	movl	$1, %ecx
	movl	$.L.str.151, %r8d
	xorl	%r9d, %r9d
	movq	%rbp, %rdx
	callq	trace_logger_log_int
	movl	$1, (%rsp)
	movl	$40, %edi
	movl	$.L.str.18, %esi
	movl	$.L.str.150, %edx
	movl	$.L.str.152, %ecx
	movl	$31, %r8d
	xorl	%r9d, %r9d
	callq	trace_logger_log0
	movq	$.L.str.11, (%rsp)
	movl	$2, %edi
	movl	$64, %esi
	movl	$1, %ecx
	movl	$.L.str.78, %r8d
	xorl	%r9d, %r9d
	movq	%r15, %rdx
	callq	trace_logger_log_ptr
	movq	$.L.str.11, (%rsp)
	movl	$1, %edi
	movl	$64, %esi
	movl	$1, %ecx
	movl	$.L.str.151, %r8d
	xorl	%r9d, %r9d
	movq	%rbp, %rdx
	callq	trace_logger_log_int
	movq	%rbp, 24(%rsp)
.Ltmp30:
	.loc	56 41 89 is_stmt 1      # src/main.cpp:41:89
	movq	%r15, %rdi
	movq	%r12, %rsi
	callq	_ZNSt6chronomiINS_3_V212system_clockENS_8durationIlSt5ratioILl1ELl1000000000EEEES6_EENSt11common_typeIJT0_T1_EE4typeERKNS_10time_pointIT_S8_EERKNSC_ISD_S9_EE
	movq	%rax, %rbp
.Ltmp31:
.Ltmp66:
# %bb.14:                               #   in Loop: Header=BB2_11 Depth=1
	#DEBUG_VALUE: main:blockFinish <- [DW_OP_plus_uconst 24] [%rsp+0]
	#DEBUG_VALUE: main:blockStart <- [DW_OP_plus_uconst 32] [%rsp+0]
	movl	$1, (%rsp)
	movl	$41, %edi
	movl	$.L.str.18, %esi
	movl	$.L.str.153, %edx
	movl	$.L.str.154, %ecx
	movl	$31, %r8d
	xorl	%r9d, %r9d
	callq	trace_logger_log0
	movq	$.L.str.11, (%rsp)
	movl	$2, %edi
	movl	$64, %esi
	movl	$1, %ecx
	movl	$.L.str.82, %r8d
	xorl	%r9d, %r9d
	movq	%r14, %rdx
	callq	trace_logger_log_ptr
	movq	$.L.str.11, (%rsp)
	movl	$1, %edi
	movl	$64, %esi
	movl	$1, %ecx
	movl	$.L.str.155, %r8d
	xorl	%r9d, %r9d
	movq	%rbp, %rdx
	callq	trace_logger_log_int
	movq	%rbp, 8(%rsp)
.Ltmp32:
	.loc	56 41 23 is_stmt 0      # src/main.cpp:41:23
	movq	%r14, %rdi
	callq	_ZNSt6chrono13duration_castINS_8durationIlSt5ratioILl1ELl1000EEEElS2_ILl1ELl1000000000EEEENSt9enable_ifIXsr13__is_durationIT_EE5valueES7_E4typeERKNS1_IT0_T1_EE
	movq	%rax, %rbp
.Ltmp33:
.Ltmp67:
# %bb.15:                               #   in Loop: Header=BB2_11 Depth=1
	#DEBUG_VALUE: main:blockFinish <- [DW_OP_plus_uconst 24] [%rsp+0]
	#DEBUG_VALUE: main:blockStart <- [DW_OP_plus_uconst 32] [%rsp+0]
	movl	$1, (%rsp)
	movl	$41, %edi
	movl	$.L.str.18, %esi
	movl	$.L.str.156, %edx
	movl	$.L.str.157, %ecx
	movl	$31, %r8d
	xorl	%r9d, %r9d
	callq	trace_logger_log0
	movq	$.L.str.11, (%rsp)
	movl	$2, %edi
	movl	$64, %esi
	movl	$1, %ecx
	movl	$.L.str.83, %r8d
	xorl	%r9d, %r9d
	movq	%r13, %rdx
	callq	trace_logger_log_ptr
	movq	$.L.str.11, (%rsp)
	movl	$1, %edi
	movl	$64, %esi
	movl	$1, %ecx
	movl	$.L.str.158, %r8d
	xorl	%r9d, %r9d
	movq	%rbp, %rdx
	callq	trace_logger_log_int
	movq	%rbp, 16(%rsp)
	.loc	56 41 103               # src/main.cpp:41:103
	movl	$1, (%rsp)
	movl	$41, %edi
	movl	$.L.str.18, %esi
	movl	$.L.str.156, %edx
	movl	$.L.str.159, %ecx
	movl	$54, %r8d
	xorl	%r9d, %r9d
	callq	trace_logger_log0
	movq	$.L.str.11, (%rsp)
	movl	$2, %edi
	movl	$64, %esi
	movl	$_ZNKSt6chrono8durationIlSt5ratioILl1ELl1000EEE5countEv, %edx
	movl	$1, %ecx
	movl	$.L.str.160, %r8d
	xorl	%r9d, %r9d
	callq	trace_logger_log_ptr
	movq	$.L.str.11, (%rsp)
	movl	$1, %edi
	movl	$64, %esi
	movl	$1, %ecx
	movl	$.L.str.30, %r8d
	xorl	%r9d, %r9d
	movq	%r13, %rdx
	callq	trace_logger_log_ptr
	movq	%r13, %rdi
	callq	_ZNKSt6chrono8durationIlSt5ratioILl1ELl1000EEE5countEv
	movq	%rax, %rbp
	.loc	56 41 20                # src/main.cpp:41:20
	movq	$.L.str.11, (%rsp)
	movl	$19134, %edi            # imm = 0x4ABE
	movl	$64, %esi
	movl	$1, %ecx
	movl	$.L.str.159, %r8d
	xorl	%r9d, %r9d
	movq	%rbp, %rdx
	callq	trace_logger_log_int
.Ltmp34:
	leaq	200(%rsp), %rdi
	movq	%rbp, %rsi
	callq	_ZNSolsEl
.Ltmp35:
.Ltmp68:
# %bb.16:                               #   in Loop: Header=BB2_11 Depth=1
	#DEBUG_VALUE: main:blockFinish <- [DW_OP_plus_uconst 24] [%rsp+0]
	#DEBUG_VALUE: main:blockStart <- [DW_OP_plus_uconst 32] [%rsp+0]
.Ltmp36:
	.loc	56 41 111               # src/main.cpp:41:111
	movl	$_ZSt4endlIcSt11char_traitsIcEERSt13basic_ostreamIT_T0_ES6_, %esi
	movq	%rax, %rdi
	callq	_ZNSolsEPFRSoS_E
.Ltmp37:
.Ltmp69:
# %bb.17:                               #   in Loop: Header=BB2_11 Depth=1
	#DEBUG_VALUE: main:blockFinish <- [DW_OP_plus_uconst 24] [%rsp+0]
	#DEBUG_VALUE: main:blockStart <- [DW_OP_plus_uconst 32] [%rsp+0]
	.loc	56 36 31 is_stmt 1      # src/main.cpp:36:31
	movl	$1, (%rsp)
	movl	$36, %edi
	movl	$.L.str.18, %esi
	movl	$.L.str.146, %edx
	movl	$.L.str.145, %ecx
	movl	$11, %r8d
	xorl	%r9d, %r9d
	callq	trace_logger_log0
	movq	$.L.str.11, (%rsp)
	movl	$2, %edi
	movl	$32, %esi
	movl	$1, %edx
	movl	$1, %ecx
	movl	$.L.str.21, %r8d
	xorl	%r9d, %r9d
	callq	trace_logger_log_int
	movq	$.L.str.11, (%rsp)
	movl	$1, %edi
	movl	$32, %esi
	movl	$1, %ecx
	movl	$.L.str.145, %r8d
	xorl	%r9d, %r9d
	movq	%rbx, %rdx
	callq	trace_logger_log_int
.Ltmp70:
	.loc	56 36 14 is_stmt 0      # src/main.cpp:36:14
	addq	$1, %rbx
	movq	$.L.str.11, (%rsp)
	movl	$19134, %edi            # imm = 0x4ABE
	movl	$32, %esi
	movl	$1, %ecx
	movl	$.L.str.145, %r8d
	xorl	%r9d, %r9d
	movq	%rbx, %rdx
	callq	trace_logger_log_int
.Ltmp71:
	.loc	56 36 23                # src/main.cpp:36:23
	movl	$1, (%rsp)
	movl	$36, %edi
	movl	$.L.str.18, %esi
	movl	$.L.str.146, %edx
	movl	$.L.str.161, %ecx
	movl	$51, %r8d
	xorl	%r9d, %r9d
	callq	trace_logger_log0
	movq	$.L.str.11, (%rsp)
	movl	$2, %edi
	movl	$32, %esi
	movl	$7200, %edx             # imm = 0x1C20
	xorl	%ecx, %ecx
	movl	$.L.str.15, %r8d
	xorl	%r9d, %r9d
	callq	trace_logger_log_int
	movq	$.L.str.11, (%rsp)
	movl	$1, %edi
	movl	$32, %esi
	movl	$1, %ecx
	movl	$.L.str.145, %r8d
	xorl	%r9d, %r9d
	movq	%rbx, %rdx
	callq	trace_logger_log_int
	movq	%r12, %rbp
	xorl	%r12d, %r12d
	cmpl	$7200, %ebx             # imm = 0x1C20
	setb	%r12b
.Ltmp72:
	.loc	56 36 5                 # src/main.cpp:36:5
	movq	$.L.str.11, (%rsp)
	movl	$19134, %edi            # imm = 0x4ABE
	movl	$1, %esi
	movl	$1, %ecx
	movl	$.L.str.161, %r8d
	xorl	%r9d, %r9d
	movq	%r12, %rdx
	callq	trace_logger_log_int
	movl	$1, (%rsp)
	movl	$36, %edi
	movl	$.L.str.18, %esi
	movl	$.L.str.146, %edx
	movl	$.L.str.162, %ecx
	movl	$2, %r8d
	xorl	%r9d, %r9d
	callq	trace_logger_log0
	movq	$.L.str.11, (%rsp)
	movl	$3, %edi
	xorl	%esi, %esi
	xorl	%edx, %edx
	movl	$1, %ecx
	movl	$.L.str.85, %r8d
	xorl	%r9d, %r9d
	callq	trace_logger_log_int
	movq	$.L.str.11, (%rsp)
	movl	$2, %edi
	xorl	%esi, %esi
	xorl	%edx, %edx
	movl	$1, %ecx
	movl	$.L.str.86, %r8d
	xorl	%r9d, %r9d
	callq	trace_logger_log_int
	movq	$.L.str.11, (%rsp)
	movl	$1, %edi
	movl	$1, %esi
	movl	$1, %ecx
	movl	$.L.str.161, %r8d
	xorl	%r9d, %r9d
	movq	%r12, %rdx
	movq	%rbp, %r12
	callq	trace_logger_log_int
.Ltmp73:
	.loc	56 36 23                # src/main.cpp:36:23
	cmpl	$7200, %ebx             # imm = 0x1C20
.Ltmp74:
	.loc	56 36 5                 # src/main.cpp:36:5
	jb	.LBB2_11
.Ltmp75:
# %bb.18:
	#DEBUG_VALUE: main:blockFinish <- [DW_OP_plus_uconst 24] [%rsp+0]
	#DEBUG_VALUE: main:blockStart <- [DW_OP_plus_uconst 32] [%rsp+0]
	.loc	56 44 1 is_stmt 1       # src/main.cpp:44:1
	movl	$1, (%rsp)
	xorl	%ebx, %ebx
	movl	$44, %edi
	movl	$.L.str.18, %esi
	movl	$.L.str.86, %edx
	movl	$.L.str.87, %ecx
	movl	$54, %r8d
	xorl	%r9d, %r9d
	callq	trace_logger_log0
	movq	$.L.str.11, (%rsp)
	movl	$2, %edi
	movl	$64, %esi
	movl	$_ZNSt14basic_ofstreamIcSt11char_traitsIcEED1Ev, %edx
	movl	$1, %ecx
	movl	$.L.str.88, %r8d
	xorl	%r9d, %r9d
	callq	trace_logger_log_ptr
	movq	$.L.str.11, (%rsp)
	leaq	200(%rsp), %rbp
.Ltmp76:
	#DEBUG_VALUE: main:outputFile <- [DW_OP_plus_uconst 200] [%rsp+0]
	movl	$1, %edi
	movl	$64, %esi
	movl	$1, %ecx
	movl	$.L.str.27, %r8d
	xorl	%r9d, %r9d
	movq	%rbp, %rdx
	callq	trace_logger_log_ptr
	movq	%rbp, %rdi
	callq	_ZNSt14basic_ofstreamIcSt11char_traitsIcEED1Ev
	movl	$1, (%rsp)
	movl	$44, %edi
	movl	$.L.str.18, %esi
	movl	$.L.str.86, %edx
	movl	$.L.str.89, %ecx
	movl	$54, %r8d
	xorl	%r9d, %r9d
	callq	trace_logger_log0
	movq	$.L.str.11, (%rsp)
	movl	$2, %edi
	movl	$64, %esi
	movl	$_ZN12ILLIXR_AUDIO7ABAudioD1Ev, %edx
	movl	$1, %ecx
	movl	$.L.str.90, %r8d
	xorl	%r9d, %r9d
	callq	trace_logger_log_ptr
	movq	$.L.str.11, (%rsp)
	leaq	104(%rsp), %rbp
.Ltmp77:
	#DEBUG_VALUE: main:decoder <- [DW_OP_plus_uconst 104] [%rsp+0]
	movl	$1, %edi
	movl	$64, %esi
	movl	$1, %ecx
	movl	$.L.str.24, %r8d
	xorl	%r9d, %r9d
	movq	%rbp, %rdx
	callq	trace_logger_log_ptr
	movq	%rbp, %rdi
	callq	_ZN12ILLIXR_AUDIO7ABAudioD1Ev
	movl	$1, (%rsp)
	movl	$44, %edi
	movl	$.L.str.18, %esi
	movl	$.L.str.86, %edx
	movl	$.L.str.91, %ecx
	movl	$54, %r8d
	xorl	%r9d, %r9d
	callq	trace_logger_log0
	movq	$.L.str.11, (%rsp)
	movl	$2, %edi
	movl	$64, %esi
	movl	$_ZN12ILLIXR_AUDIO7ABAudioD1Ev, %edx
	movl	$1, %ecx
	movl	$.L.str.90, %r8d
	xorl	%r9d, %r9d
	callq	trace_logger_log_ptr
	movq	$.L.str.11, (%rsp)
	leaq	152(%rsp), %rbp
.Ltmp78:
	#DEBUG_VALUE: main:encoder <- [DW_OP_plus_uconst 152] [%rsp+0]
	movl	$1, %edi
	movl	$64, %esi
	movl	$1, %ecx
	movl	$.L.str.20, %r8d
	xorl	%r9d, %r9d
	movq	%rbp, %rdx
	callq	trace_logger_log_ptr
	movq	%rbp, %rdi
	callq	_ZN12ILLIXR_AUDIO7ABAudioD1Ev
	movl	$1, (%rsp)
	movq	$-1, %rdi
	movl	$.L.str.18, %esi
	movl	$.L.str.86, %edx
	movl	$.L.str.92, %ecx
	movl	$2, %r8d
	xorl	%r9d, %r9d
	callq	trace_logger_log0
	movq	$.L.str.11, (%rsp)
	movl	$1, %edi
	movl	$0, %esi
	xorl	%edx, %edx
	movl	$1, %ecx
	movl	$.L.str.52, %r8d
	xorl	%r9d, %r9d
	callq	trace_logger_log_int
	jmp	.LBB2_19
.Ltmp79:
.LBB2_28:
	#DEBUG_VALUE: main:argc <- %ebp
	#DEBUG_VALUE: main:argv <- %r14
.Ltmp24:
	.loc	56 0 1 is_stmt 0        # src/main.cpp:0:1
	movq	%rdx, %r14
.Ltmp80:
	movq	%rax, %rbx
	.loc	56 44 1                 # src/main.cpp:44:1
	movl	$1, (%rsp)
	movl	$44, %edi
	movl	$.L.str.18, %esi
	movl	$.L.str.139, %edx
	movl	$.L.str.140, %ecx
	movl	$62, %r8d
	xorl	%r9d, %r9d
	callq	trace_logger_log0
	movq	$.L.str.11, (%rsp)
	movl	$19134, %edi            # imm = 0x4ABE
	movl	$64, %esi
	movl	$1, %ecx
	movl	$.L.str.140, %r8d
	xorl	%r9d, %r9d
	movq	%rbx, %rdx
	callq	trace_logger_log_ptr
	movl	$1, (%rsp)
	movl	$44, %edi
	movl	$.L.str.18, %esi
	movl	$.L.str.139, %edx
	movl	$.L.str.142, %ecx
	movl	$62, %r8d
	xorl	%r9d, %r9d
	callq	trace_logger_log0
	movl	%r14d, %edx
	movq	$.L.str.11, (%rsp)
	movl	$19134, %edi            # imm = 0x4ABE
	movl	$32, %esi
	movl	$1, %ecx
	movl	$.L.str.142, %r8d
	xorl	%r9d, %r9d
	callq	trace_logger_log_int
	movl	$1, (%rsp)
	movl	$44, %edi
	movl	$.L.str.18, %esi
	movl	$.L.str.139, %edx
	movl	$.L.str.143, %ecx
	jmp	.LBB2_32
.Ltmp81:
.LBB2_27:
	#DEBUG_VALUE: main:argc <- %ebp
	#DEBUG_VALUE: main:argv <- %r14
.Ltmp21:
	.loc	56 0 1                  # src/main.cpp:0:1
	movq	%rdx, %r14
.Ltmp82:
	movq	%rax, %rbx
	.loc	56 44 1                 # src/main.cpp:44:1
	movl	$1, (%rsp)
	movl	$44, %edi
	movl	$.L.str.18, %esi
	movl	$.L.str.133, %edx
	movl	$.L.str.134, %ecx
	movl	$62, %r8d
	xorl	%r9d, %r9d
	callq	trace_logger_log0
	movq	$.L.str.11, (%rsp)
	movl	$19134, %edi            # imm = 0x4ABE
	movl	$64, %esi
	movl	$1, %ecx
	movl	$.L.str.134, %r8d
	xorl	%r9d, %r9d
	movq	%rbx, %rdx
	callq	trace_logger_log_ptr
	movl	$1, (%rsp)
	movl	$44, %edi
	movl	$.L.str.18, %esi
	movl	$.L.str.133, %edx
	movl	$.L.str.136, %ecx
	movl	$62, %r8d
	xorl	%r9d, %r9d
	callq	trace_logger_log0
	movl	%r14d, %edx
	movq	$.L.str.11, (%rsp)
	movl	$19134, %edi            # imm = 0x4ABE
	movl	$32, %esi
	movl	$1, %ecx
	movl	$.L.str.136, %r8d
	xorl	%r9d, %r9d
	callq	trace_logger_log_int
	movl	$1, (%rsp)
	movl	$44, %edi
	movl	$.L.str.18, %esi
	movl	$.L.str.133, %edx
	movl	$.L.str.137, %ecx
	jmp	.LBB2_33
.Ltmp83:
.LBB2_24:
	#DEBUG_VALUE: main:argc <- %ebp
	#DEBUG_VALUE: main:argv <- %r14
.Ltmp13:
	.loc	56 0 1                  # src/main.cpp:0:1
	movq	%rdx, %r14
.Ltmp84:
	movq	%rax, %rbx
	.loc	56 44 1                 # src/main.cpp:44:1
	movl	$1, (%rsp)
	movl	$44, %edi
	movl	$.L.str.18, %esi
	movl	$.L.str.116, %edx
	movl	$.L.str.117, %ecx
	movl	$62, %r8d
	xorl	%r9d, %r9d
	callq	trace_logger_log0
	movq	$.L.str.11, (%rsp)
	movl	$19134, %edi            # imm = 0x4ABE
	movl	$64, %esi
	movl	$1, %ecx
	movl	$.L.str.117, %r8d
	xorl	%r9d, %r9d
	movq	%rbx, %rdx
	callq	trace_logger_log_ptr
	movl	$1, (%rsp)
	movl	$44, %edi
	movl	$.L.str.18, %esi
	movl	$.L.str.116, %edx
	movl	$.L.str.119, %ecx
	movl	$62, %r8d
	xorl	%r9d, %r9d
	callq	trace_logger_log0
	.loc	56 30 13 is_stmt 1      # src/main.cpp:30:13
	movl	%r14d, %edx
	movq	$.L.str.11, (%rsp)
	movl	$19134, %edi            # imm = 0x4ABE
	movl	$32, %esi
	movl	$1, %ecx
	movl	$.L.str.119, %r8d
	xorl	%r9d, %r9d
	callq	trace_logger_log_int
	movl	$1, (%rsp)
	movl	$30, %edi
	movl	$.L.str.18, %esi
	movl	$.L.str.116, %edx
	movl	$.L.str.120, %ecx
	movl	$54, %r8d
	xorl	%r9d, %r9d
	callq	trace_logger_log0
	movq	$.L.str.11, (%rsp)
	movl	$2, %edi
	movl	$64, %esi
	movl	$_ZNSt7__cxx1112basic_stringIcSt11char_traitsIcESaIcEED2Ev, %edx
	movl	$1, %ecx
	movl	$.L.str.60, %r8d
	xorl	%r9d, %r9d
	callq	trace_logger_log_ptr
	movq	$.L.str.11, (%rsp)
	leaq	40(%rsp), %rbp
.Ltmp85:
	movl	$1, %edi
	movl	$64, %esi
	movl	$1, %ecx
	movl	$.L.str.25, %r8d
	xorl	%r9d, %r9d
	movq	%rbp, %rdx
	callq	trace_logger_log_ptr
	movq	%rbp, %rdi
	callq	_ZNSt7__cxx1112basic_stringIcSt11char_traitsIcESaIcEED2Ev
	movl	$1, (%rsp)
	movl	$30, %edi
	movl	$.L.str.18, %esi
	movl	$.L.str.116, %edx
	movl	$.L.str.121, %ecx
	jmp	.LBB2_25
.LBB2_23:
.Ltmp86:
	#DEBUG_VALUE: main:argc <- %ebp
	#DEBUG_VALUE: main:argv <- %r14
.Ltmp10:
	.loc	56 0 13 is_stmt 0       # src/main.cpp:0:13
	movq	%rdx, %r14
.Ltmp87:
	movq	%rax, %rbx
	.loc	56 44 1 is_stmt 1       # src/main.cpp:44:1
	movl	$1, (%rsp)
	movl	$44, %edi
	movl	$.L.str.18, %esi
	movl	$.L.str.110, %edx
	movl	$.L.str.111, %ecx
	movl	$62, %r8d
	xorl	%r9d, %r9d
	callq	trace_logger_log0
	movq	$.L.str.11, (%rsp)
	movl	$19134, %edi            # imm = 0x4ABE
	movl	$64, %esi
	movl	$1, %ecx
	movl	$.L.str.111, %r8d
	xorl	%r9d, %r9d
	movq	%rbx, %rdx
	callq	trace_logger_log_ptr
	movl	$1, (%rsp)
	movl	$44, %edi
	movl	$.L.str.18, %esi
	movl	$.L.str.110, %edx
	movl	$.L.str.113, %ecx
	movl	$62, %r8d
	xorl	%r9d, %r9d
	callq	trace_logger_log0
	movl	%r14d, %edx
	movq	$.L.str.11, (%rsp)
	movl	$19134, %edi            # imm = 0x4ABE
	movl	$32, %esi
	movl	$1, %ecx
	movl	$.L.str.113, %r8d
	xorl	%r9d, %r9d
	callq	trace_logger_log_int
	movl	$1, (%rsp)
	movl	$44, %edi
	movl	$.L.str.18, %esi
	movl	$.L.str.110, %edx
	movl	$.L.str.114, %ecx
.Ltmp88:
.LBB2_25:
	.loc	56 0 1 is_stmt 0        # src/main.cpp:0:1
	movl	$2, %r8d
	xorl	%r9d, %r9d
	callq	trace_logger_log0
	movq	$.L.str.11, (%rsp)
	movl	$1, %edi
	movl	$0, %esi
	xorl	%edx, %edx
	movl	$1, %ecx
	movl	$.L.str.115, %r8d
	xorl	%r9d, %r9d
	callq	trace_logger_log_int
	.loc	56 30 13 is_stmt 1      # src/main.cpp:30:13
	movl	$1, (%rsp)
	movq	$-1, %rdi
	movl	$.L.str.18, %esi
	movl	$.L.str.115, %edx
	movl	$.L.str.122, %ecx
	movl	$53, %r8d
	xorl	%r9d, %r9d
	callq	trace_logger_log0
	movq	$.L.str.110, (%rsp)
	movl	$2, %edi
	movl	$64, %esi
	xorl	%edx, %edx
	movl	$1, %ecx
	movl	$.L.str.111, %r8d
	movl	$1, %r9d
	callq	trace_logger_log_int
	movq	$.L.str.116, (%rsp)
	movl	$1, %edi
	movl	$64, %esi
	xorl	%edx, %edx
	movl	$1, %ecx
	movl	$.L.str.117, %r8d
	movl	$1, %r9d
	callq	trace_logger_log_int
	movq	$.L.str.116, (%rsp)
	movl	$19134, %edi            # imm = 0x4ABE
	movl	$64, %esi
	movl	$1, %ecx
	movl	$.L.str.122, %r8d
	xorl	%r9d, %r9d
	movq	%rbx, %rdx
	callq	trace_logger_log_ptr
	movl	$1, (%rsp)
	movq	$-1, %rdi
	movl	$.L.str.18, %esi
	movl	$.L.str.115, %edx
	movl	$.L.str.123, %ecx
	movl	$53, %r8d
	xorl	%r9d, %r9d
	callq	trace_logger_log0
	movq	$.L.str.110, (%rsp)
	movl	$2, %edi
	movl	$32, %esi
	xorl	%edx, %edx
	movl	$1, %ecx
	movl	$.L.str.113, %r8d
	movl	$1, %r9d
	callq	trace_logger_log_int
	movq	$.L.str.116, (%rsp)
	movl	$1, %edi
	movl	$32, %esi
	xorl	%edx, %edx
	movl	$1, %ecx
	movl	$.L.str.119, %r8d
	movl	$1, %r9d
	callq	trace_logger_log_int
	movl	%r14d, %edx
	movq	$.L.str.116, (%rsp)
	movl	$19134, %edi            # imm = 0x4ABE
	movl	$32, %esi
	movl	$1, %ecx
	movl	$.L.str.123, %r8d
	xorl	%r9d, %r9d
	callq	trace_logger_log_int
	movl	$1, (%rsp)
	movl	$30, %edi
	movl	$.L.str.18, %esi
	movl	$.L.str.115, %edx
	movl	$.L.str.124, %ecx
	movl	$54, %r8d
	xorl	%r9d, %r9d
	callq	trace_logger_log0
	movq	$.L.str.11, (%rsp)
	movl	$2, %edi
	movl	$64, %esi
	movl	$_ZNSaIcED2Ev, %edx
	movl	$1, %ecx
	movl	$.L.str.62, %r8d
	xorl	%r9d, %r9d
	callq	trace_logger_log_ptr
	movq	$.L.str.11, (%rsp)
	leaq	200(%rsp), %rbp
	movl	$1, %edi
	movl	$64, %esi
	movl	$1, %ecx
	movl	$.L.str.26, %r8d
	xorl	%r9d, %r9d
	movq	%rbp, %rdx
	callq	trace_logger_log_ptr
	movq	%rbp, %rdi
	callq	_ZNSaIcED2Ev
	movl	$1, (%rsp)
	movl	$30, %edi
	movl	$.L.str.18, %esi
	movl	$.L.str.115, %edx
	movl	$.L.str.125, %ecx
	jmp	.LBB2_35
.LBB2_21:
.Ltmp89:
	#DEBUG_VALUE: main:argc <- %ebp
	#DEBUG_VALUE: main:argv <- %r14
.Ltmp7:
	.loc	56 0 13 is_stmt 0       # src/main.cpp:0:13
	movq	%rdx, %r14
.Ltmp90:
	movq	%rax, %rbx
	.loc	56 44 1 is_stmt 1       # src/main.cpp:44:1
	movl	$1, (%rsp)
	movl	$44, %edi
	movl	$.L.str.18, %esi
	movl	$.L.str.99, %edx
	movl	$.L.str.100, %ecx
	movl	$62, %r8d
	xorl	%r9d, %r9d
	callq	trace_logger_log0
	movq	$.L.str.11, (%rsp)
	movl	$19134, %edi            # imm = 0x4ABE
	movl	$64, %esi
	movl	$1, %ecx
	movl	$.L.str.100, %r8d
	xorl	%r9d, %r9d
	movq	%rbx, %rdx
	callq	trace_logger_log_ptr
	movl	$1, (%rsp)
	movl	$44, %edi
	movl	$.L.str.18, %esi
	movl	$.L.str.99, %edx
	movl	$.L.str.102, %ecx
	movl	$62, %r8d
	xorl	%r9d, %r9d
	callq	trace_logger_log0
	.loc	56 29 13                # src/main.cpp:29:13
	movl	%r14d, %edx
	movq	$.L.str.11, (%rsp)
	movl	$19134, %edi            # imm = 0x4ABE
	movl	$32, %esi
	movl	$1, %ecx
	movl	$.L.str.102, %r8d
	xorl	%r9d, %r9d
	callq	trace_logger_log_int
	movl	$1, (%rsp)
	movl	$29, %edi
	movl	$.L.str.18, %esi
	movl	$.L.str.99, %edx
	movl	$.L.str.103, %ecx
	movl	$54, %r8d
	xorl	%r9d, %r9d
	callq	trace_logger_log0
	movq	$.L.str.11, (%rsp)
	movl	$2, %edi
	movl	$64, %esi
	movl	$_ZNSt7__cxx1112basic_stringIcSt11char_traitsIcESaIcEED2Ev, %edx
	movl	$1, %ecx
	movl	$.L.str.60, %r8d
	xorl	%r9d, %r9d
	callq	trace_logger_log_ptr
	movq	$.L.str.11, (%rsp)
	leaq	72(%rsp), %rbp
.Ltmp91:
	movl	$1, %edi
	movl	$64, %esi
	movl	$1, %ecx
	movl	$.L.str.22, %r8d
	xorl	%r9d, %r9d
	movq	%rbp, %rdx
	callq	trace_logger_log_ptr
	movq	%rbp, %rdi
	callq	_ZNSt7__cxx1112basic_stringIcSt11char_traitsIcESaIcEED2Ev
	movl	$1, (%rsp)
	movl	$29, %edi
	movl	$.L.str.18, %esi
	movl	$.L.str.99, %edx
	movl	$.L.str.104, %ecx
	jmp	.LBB2_22
.LBB2_20:
.Ltmp92:
	#DEBUG_VALUE: main:argc <- %ebp
	#DEBUG_VALUE: main:argv <- %r14
.Ltmp4:
	.loc	56 0 13 is_stmt 0       # src/main.cpp:0:13
	movq	%rdx, %r14
.Ltmp93:
	movq	%rax, %rbx
	.loc	56 44 1 is_stmt 1       # src/main.cpp:44:1
	movl	$1, (%rsp)
	movl	$44, %edi
	movl	$.L.str.18, %esi
	movl	$.L.str.93, %edx
	movl	$.L.str.94, %ecx
	movl	$62, %r8d
	xorl	%r9d, %r9d
	callq	trace_logger_log0
	movq	$.L.str.11, (%rsp)
	movl	$19134, %edi            # imm = 0x4ABE
	movl	$64, %esi
	movl	$1, %ecx
	movl	$.L.str.94, %r8d
	xorl	%r9d, %r9d
	movq	%rbx, %rdx
	callq	trace_logger_log_ptr
	movl	$1, (%rsp)
	movl	$44, %edi
	movl	$.L.str.18, %esi
	movl	$.L.str.93, %edx
	movl	$.L.str.96, %ecx
	movl	$62, %r8d
	xorl	%r9d, %r9d
	callq	trace_logger_log0
	movl	%r14d, %edx
	movq	$.L.str.11, (%rsp)
	movl	$19134, %edi            # imm = 0x4ABE
	movl	$32, %esi
	movl	$1, %ecx
	movl	$.L.str.96, %r8d
	xorl	%r9d, %r9d
	callq	trace_logger_log_int
	movl	$1, (%rsp)
	movl	$44, %edi
	movl	$.L.str.18, %esi
	movl	$.L.str.93, %edx
	movl	$.L.str.97, %ecx
.Ltmp94:
.LBB2_22:
	.loc	56 0 1 is_stmt 0        # src/main.cpp:0:1
	movl	$2, %r8d
	xorl	%r9d, %r9d
	callq	trace_logger_log0
	movq	$.L.str.11, (%rsp)
	movl	$1, %edi
	movl	$0, %esi
	xorl	%edx, %edx
	movl	$1, %ecx
	movl	$.L.str.98, %r8d
	xorl	%r9d, %r9d
	callq	trace_logger_log_int
	.loc	56 29 13 is_stmt 1      # src/main.cpp:29:13
	movl	$1, (%rsp)
	movq	$-1, %rdi
	movl	$.L.str.18, %esi
	movl	$.L.str.98, %edx
	movl	$.L.str.105, %ecx
	movl	$53, %r8d
	xorl	%r9d, %r9d
	callq	trace_logger_log0
	movq	$.L.str.93, (%rsp)
	movl	$2, %edi
	movl	$64, %esi
	xorl	%edx, %edx
	movl	$1, %ecx
	movl	$.L.str.94, %r8d
	movl	$1, %r9d
	callq	trace_logger_log_int
	movq	$.L.str.99, (%rsp)
	movl	$1, %edi
	movl	$64, %esi
	xorl	%edx, %edx
	movl	$1, %ecx
	movl	$.L.str.100, %r8d
	movl	$1, %r9d
	callq	trace_logger_log_int
	movq	$.L.str.99, (%rsp)
	movl	$19134, %edi            # imm = 0x4ABE
	movl	$64, %esi
	movl	$1, %ecx
	movl	$.L.str.105, %r8d
	xorl	%r9d, %r9d
	movq	%rbx, %rdx
	callq	trace_logger_log_ptr
	movl	$1, (%rsp)
	movq	$-1, %rdi
	movl	$.L.str.18, %esi
	movl	$.L.str.98, %edx
	movl	$.L.str.106, %ecx
	movl	$53, %r8d
	xorl	%r9d, %r9d
	callq	trace_logger_log0
	movq	$.L.str.93, (%rsp)
	movl	$2, %edi
	movl	$32, %esi
	xorl	%edx, %edx
	movl	$1, %ecx
	movl	$.L.str.96, %r8d
	movl	$1, %r9d
	callq	trace_logger_log_int
	movq	$.L.str.99, (%rsp)
	movl	$1, %edi
	movl	$32, %esi
	xorl	%edx, %edx
	movl	$1, %ecx
	movl	$.L.str.102, %r8d
	movl	$1, %r9d
	callq	trace_logger_log_int
	movl	%r14d, %edx
	movq	$.L.str.99, (%rsp)
	movl	$19134, %edi            # imm = 0x4ABE
	movl	$32, %esi
	movl	$1, %ecx
	movl	$.L.str.106, %r8d
	xorl	%r9d, %r9d
	callq	trace_logger_log_int
	movl	$1, (%rsp)
	movl	$29, %edi
	movl	$.L.str.18, %esi
	movl	$.L.str.98, %edx
	movl	$.L.str.107, %ecx
	movl	$54, %r8d
	xorl	%r9d, %r9d
	callq	trace_logger_log0
	movq	$.L.str.11, (%rsp)
	movl	$2, %edi
	movl	$64, %esi
	movl	$_ZNSaIcED2Ev, %edx
	movl	$1, %ecx
	movl	$.L.str.62, %r8d
	xorl	%r9d, %r9d
	callq	trace_logger_log_ptr
	movq	$.L.str.11, (%rsp)
	leaq	200(%rsp), %rbp
	movl	$1, %edi
	movl	$64, %esi
	movl	$1, %ecx
	movl	$.L.str.23, %r8d
	xorl	%r9d, %r9d
	movq	%rbp, %rdx
	callq	trace_logger_log_ptr
	movq	%rbp, %rdi
	callq	_ZNSaIcED2Ev
	movl	$1, (%rsp)
	movl	$29, %edi
	movl	$.L.str.18, %esi
	movl	$.L.str.98, %edx
	movl	$.L.str.108, %ecx
	jmp	.LBB2_36
.LBB2_26:
.Ltmp95:
	#DEBUG_VALUE: main:argc <- %ebp
	#DEBUG_VALUE: main:argv <- %r14
.Ltmp18:
	.loc	56 0 13 is_stmt 0       # src/main.cpp:0:13
	movq	%rdx, %r14
.Ltmp96:
	movq	%rax, %rbx
	.loc	56 44 1 is_stmt 1       # src/main.cpp:44:1
	movl	$1, (%rsp)
	movl	$44, %edi
	movl	$.L.str.18, %esi
	movl	$.L.str.127, %edx
	movl	$.L.str.128, %ecx
	movl	$62, %r8d
	xorl	%r9d, %r9d
	callq	trace_logger_log0
	movq	$.L.str.11, (%rsp)
	movl	$19134, %edi            # imm = 0x4ABE
	movl	$64, %esi
	movl	$1, %ecx
	movl	$.L.str.128, %r8d
	xorl	%r9d, %r9d
	movq	%rbx, %rdx
	callq	trace_logger_log_ptr
	movl	$1, (%rsp)
	movl	$44, %edi
	movl	$.L.str.18, %esi
	movl	$.L.str.127, %edx
	movl	$.L.str.130, %ecx
	movl	$62, %r8d
	xorl	%r9d, %r9d
	callq	trace_logger_log0
	movl	%r14d, %edx
	movq	$.L.str.11, (%rsp)
	movl	$19134, %edi            # imm = 0x4ABE
	movl	$32, %esi
	movl	$1, %ecx
	movl	$.L.str.130, %r8d
	xorl	%r9d, %r9d
	callq	trace_logger_log_int
	movl	$1, (%rsp)
	movl	$44, %edi
	movl	$.L.str.18, %esi
	movl	$.L.str.127, %edx
	movl	$.L.str.131, %ecx
	jmp	.LBB2_34
.Ltmp97:
.LBB2_29:
	#DEBUG_VALUE: main:blockFinish <- [DW_OP_plus_uconst 24] [%rsp+0]
	#DEBUG_VALUE: main:blockStart <- [DW_OP_plus_uconst 32] [%rsp+0]
.Ltmp29:
	.loc	56 0 1 is_stmt 0        # src/main.cpp:0:1
	movq	%rdx, %r14
	movq	%rax, %rbx
.Ltmp98:
	.loc	56 44 1                 # src/main.cpp:44:1
	movl	$1, (%rsp)
	movl	$44, %edi
	movl	$.L.str.18, %esi
	movl	$.L.str.163, %edx
	movl	$.L.str.164, %ecx
	movl	$62, %r8d
	xorl	%r9d, %r9d
	callq	trace_logger_log0
	movq	$.L.str.11, (%rsp)
	movl	$19134, %edi            # imm = 0x4ABE
	movl	$64, %esi
	movl	$1, %ecx
	movl	$.L.str.164, %r8d
	xorl	%r9d, %r9d
	movq	%rbx, %rdx
	callq	trace_logger_log_ptr
	movl	$1, (%rsp)
	movl	$44, %edi
	movl	$.L.str.18, %esi
	movl	$.L.str.163, %edx
	movl	$.L.str.166, %ecx
	movl	$62, %r8d
	xorl	%r9d, %r9d
	callq	trace_logger_log0
	movl	%r14d, %edx
	movq	$.L.str.11, (%rsp)
	movl	$19134, %edi            # imm = 0x4ABE
	movl	$32, %esi
	movl	$1, %ecx
	movl	$.L.str.166, %r8d
	xorl	%r9d, %r9d
	callq	trace_logger_log_int
	movl	$1, (%rsp)
	movl	$44, %edi
	movl	$.L.str.18, %esi
	movl	$.L.str.163, %edx
	movl	$.L.str.167, %ecx
	jmp	.LBB2_31
.Ltmp99:
.LBB2_30:
	#DEBUG_VALUE: main:blockFinish <- [DW_OP_plus_uconst 24] [%rsp+0]
	#DEBUG_VALUE: main:blockStart <- [DW_OP_plus_uconst 32] [%rsp+0]
.Ltmp38:
	.loc	56 0 1                  # src/main.cpp:0:1
	movq	%rdx, %r14
	movq	%rax, %rbx
	.loc	56 41 23 is_stmt 1      # src/main.cpp:41:23
	movl	$1, (%rsp)
	movl	$41, %edi
	movl	$.L.str.18, %esi
	movl	$.L.str.169, %edx
	movl	$.L.str.170, %ecx
	movl	$47, %r8d
	xorl	%r9d, %r9d
	callq	trace_logger_log0
	movq	$.L.str.11, (%rsp)
	leaq	16(%rsp), %rbp
	movl	$1, %edi
	movl	$64, %esi
	movl	$1, %ecx
	movl	$.L.str.30, %r8d
	xorl	%r9d, %r9d
	movq	%rbp, %rdx
	callq	trace_logger_log_ptr
	.loc	56 41 77 is_stmt 0      # src/main.cpp:41:77
	movq	$.L.str.11, (%rsp)
	movl	$19134, %edi            # imm = 0x4ABE
	movl	$64, %esi
	movl	$1, %ecx
	movl	$.L.str.170, %r8d
	xorl	%r9d, %r9d
	movq	%rbp, %rdx
	callq	trace_logger_log_ptr
	movl	$1, (%rsp)
	movl	$41, %edi
	movl	$.L.str.18, %esi
	movl	$.L.str.169, %edx
	movl	$.L.str.171, %ecx
	movl	$47, %r8d
	xorl	%r9d, %r9d
	callq	trace_logger_log0
	movq	$.L.str.11, (%rsp)
	leaq	8(%rsp), %rbp
	movl	$1, %edi
	movl	$64, %esi
	movl	$1, %ecx
	movl	$.L.str.31, %r8d
	xorl	%r9d, %r9d
	movq	%rbp, %rdx
	callq	trace_logger_log_ptr
	.loc	56 44 1 is_stmt 1       # src/main.cpp:44:1
	movq	$.L.str.11, (%rsp)
	movl	$19134, %edi            # imm = 0x4ABE
	movl	$64, %esi
	movl	$1, %ecx
	movl	$.L.str.171, %r8d
	xorl	%r9d, %r9d
	movq	%rbp, %rdx
	callq	trace_logger_log_ptr
	movl	$1, (%rsp)
	movl	$44, %edi
	movl	$.L.str.18, %esi
	movl	$.L.str.169, %edx
	movl	$.L.str.172, %ecx
	movl	$62, %r8d
	xorl	%r9d, %r9d
	callq	trace_logger_log0
	movq	$.L.str.11, (%rsp)
	movl	$19134, %edi            # imm = 0x4ABE
	movl	$64, %esi
	movl	$1, %ecx
	movl	$.L.str.172, %r8d
	xorl	%r9d, %r9d
	movq	%rbx, %rdx
	callq	trace_logger_log_ptr
	movl	$1, (%rsp)
	movl	$44, %edi
	movl	$.L.str.18, %esi
	movl	$.L.str.169, %edx
	movl	$.L.str.174, %ecx
	movl	$62, %r8d
	xorl	%r9d, %r9d
	callq	trace_logger_log0
	.loc	56 41 9                 # src/main.cpp:41:9
	movl	%r14d, %edx
	movq	$.L.str.11, (%rsp)
	movl	$19134, %edi            # imm = 0x4ABE
	movl	$32, %esi
	movl	$1, %ecx
	movl	$.L.str.174, %r8d
	xorl	%r9d, %r9d
	callq	trace_logger_log_int
	movl	$1, (%rsp)
	movl	$41, %edi
	movl	$.L.str.18, %esi
	movl	$.L.str.169, %edx
	movl	$.L.str.175, %ecx
.Ltmp100:
.LBB2_31:
	#DEBUG_VALUE: main:blockFinish <- [DW_OP_plus_uconst 24] [%rsp+0]
	#DEBUG_VALUE: main:blockStart <- [DW_OP_plus_uconst 32] [%rsp+0]
	.loc	56 0 9 is_stmt 0        # src/main.cpp:0:9
	movl	$2, %r8d
	xorl	%r9d, %r9d
	callq	trace_logger_log0
	movq	$.L.str.11, (%rsp)
	movl	$1, %edi
	movl	$0, %esi
	xorl	%edx, %edx
	movl	$1, %ecx
	movl	$.L.str.168, %r8d
	xorl	%r9d, %r9d
	callq	trace_logger_log_int
	.loc	56 44 1 is_stmt 1       # src/main.cpp:44:1
	movl	$1, (%rsp)
	movq	$-1, %rdi
	movl	$.L.str.18, %esi
	movl	$.L.str.168, %edx
	movl	$.L.str.176, %ecx
	movl	$53, %r8d
	xorl	%r9d, %r9d
	callq	trace_logger_log0
	movq	$.L.str.163, (%rsp)
	movl	$2, %edi
	movl	$64, %esi
	xorl	%edx, %edx
	movl	$1, %ecx
	movl	$.L.str.164, %r8d
	movl	$1, %r9d
	callq	trace_logger_log_int
	movq	$.L.str.169, (%rsp)
	movl	$1, %edi
	movl	$64, %esi
	xorl	%edx, %edx
	movl	$1, %ecx
	movl	$.L.str.172, %r8d
	movl	$1, %r9d
	callq	trace_logger_log_int
	movq	$.L.str.169, (%rsp)
	movl	$19134, %edi            # imm = 0x4ABE
	movl	$64, %esi
	movl	$1, %ecx
	movl	$.L.str.176, %r8d
	xorl	%r9d, %r9d
	movq	%rbx, %rdx
	callq	trace_logger_log_ptr
	movl	$1, (%rsp)
	movq	$-1, %rdi
	movl	$.L.str.18, %esi
	movl	$.L.str.168, %edx
	movl	$.L.str.177, %ecx
	movl	$53, %r8d
	xorl	%r9d, %r9d
	callq	trace_logger_log0
	movq	$.L.str.163, (%rsp)
	movl	$2, %edi
	movl	$32, %esi
	xorl	%edx, %edx
	movl	$1, %ecx
	movl	$.L.str.166, %r8d
	movl	$1, %r9d
	callq	trace_logger_log_int
	movq	$.L.str.169, (%rsp)
	movl	$1, %edi
	movl	$32, %esi
	xorl	%edx, %edx
	movl	$1, %ecx
	movl	$.L.str.174, %r8d
	movl	$1, %r9d
	callq	trace_logger_log_int
	movl	%r14d, %edx
	movq	$.L.str.169, (%rsp)
	movl	$19134, %edi            # imm = 0x4ABE
	movl	$32, %esi
	movl	$1, %ecx
	movl	$.L.str.177, %r8d
	xorl	%r9d, %r9d
	callq	trace_logger_log_int
	movl	$1, (%rsp)
	movl	$44, %edi
	movl	$.L.str.18, %esi
	movl	$.L.str.168, %edx
	movl	$.L.str.178, %ecx
.Ltmp101:
.LBB2_32:
	movl	$2, %r8d
	xorl	%r9d, %r9d
	callq	trace_logger_log0
	movq	$.L.str.11, (%rsp)
	movl	$1, %edi
	movl	$0, %esi
	xorl	%edx, %edx
	movl	$1, %ecx
	movl	$.L.str.144, %r8d
	xorl	%r9d, %r9d
	callq	trace_logger_log_int
	.loc	56 33 19                # src/main.cpp:33:19
	movl	$1, (%rsp)
	movq	$-1, %rdi
	movl	$.L.str.18, %esi
	movl	$.L.str.144, %edx
	movl	$.L.str.179, %ecx
	movl	$53, %r8d
	xorl	%r9d, %r9d
	callq	trace_logger_log0
	movq	$.L.str.139, (%rsp)
	movl	$2, %edi
	movl	$64, %esi
	xorl	%edx, %edx
	movl	$1, %ecx
	movl	$.L.str.140, %r8d
	movl	$1, %r9d
	callq	trace_logger_log_int
	movq	$.L.str.168, (%rsp)
	movl	$1, %edi
	movl	$64, %esi
	xorl	%edx, %edx
	movl	$1, %ecx
	movl	$.L.str.176, %r8d
	movl	$1, %r9d
	callq	trace_logger_log_int
	movq	$.L.str.168, (%rsp)
	movl	$19134, %edi            # imm = 0x4ABE
	movl	$64, %esi
	movl	$1, %ecx
	movl	$.L.str.179, %r8d
	xorl	%r9d, %r9d
	movq	%rbx, %rdx
	callq	trace_logger_log_ptr
	movl	$1, (%rsp)
	movq	$-1, %rdi
	movl	$.L.str.18, %esi
	movl	$.L.str.144, %edx
	movl	$.L.str.180, %ecx
	movl	$53, %r8d
	xorl	%r9d, %r9d
	callq	trace_logger_log0
	movq	$.L.str.139, (%rsp)
	movl	$2, %edi
	movl	$32, %esi
	xorl	%edx, %edx
	movl	$1, %ecx
	movl	$.L.str.142, %r8d
	movl	$1, %r9d
	callq	trace_logger_log_int
	movq	$.L.str.168, (%rsp)
	movl	$1, %edi
	movl	$32, %esi
	xorl	%edx, %edx
	movl	$1, %ecx
	movl	$.L.str.177, %r8d
	movl	$1, %r9d
	callq	trace_logger_log_int
	movl	%r14d, %edx
	movq	$.L.str.168, (%rsp)
	movl	$19134, %edi            # imm = 0x4ABE
	movl	$32, %esi
	movl	$1, %ecx
	movl	$.L.str.180, %r8d
	xorl	%r9d, %r9d
	callq	trace_logger_log_int
	.loc	56 44 1                 # src/main.cpp:44:1
	movl	$1, (%rsp)
	movl	$44, %edi
	movl	$.L.str.18, %esi
	movl	$.L.str.144, %edx
	movl	$.L.str.181, %ecx
	movl	$54, %r8d
	xorl	%r9d, %r9d
	callq	trace_logger_log0
	movq	$.L.str.11, (%rsp)
	movl	$2, %edi
	movl	$64, %esi
	movl	$_ZNSt14basic_ofstreamIcSt11char_traitsIcEED1Ev, %edx
	movl	$1, %ecx
	movl	$.L.str.88, %r8d
	xorl	%r9d, %r9d
	callq	trace_logger_log_ptr
	movq	$.L.str.11, (%rsp)
	leaq	200(%rsp), %rbp
.Ltmp102:
	#DEBUG_VALUE: main:outputFile <- [DW_OP_plus_uconst 200] [%rsp+0]
	movl	$1, %edi
	movl	$64, %esi
	movl	$1, %ecx
	movl	$.L.str.27, %r8d
	xorl	%r9d, %r9d
	movq	%rbp, %rdx
	callq	trace_logger_log_ptr
	movq	%rbp, %rdi
	callq	_ZNSt14basic_ofstreamIcSt11char_traitsIcEED1Ev
	movl	$1, (%rsp)
	movl	$44, %edi
	movl	$.L.str.18, %esi
	movl	$.L.str.144, %edx
	movl	$.L.str.182, %ecx
.Ltmp103:
.LBB2_33:
	movl	$2, %r8d
	xorl	%r9d, %r9d
	callq	trace_logger_log0
	movq	$.L.str.11, (%rsp)
	movl	$1, %edi
	movl	$0, %esi
	xorl	%edx, %edx
	movl	$1, %ecx
	movl	$.L.str.138, %r8d
	xorl	%r9d, %r9d
	callq	trace_logger_log_int
	movl	$1, (%rsp)
	movq	$-1, %rdi
	movl	$.L.str.18, %esi
	movl	$.L.str.138, %edx
	movl	$.L.str.183, %ecx
	movl	$53, %r8d
	xorl	%r9d, %r9d
	callq	trace_logger_log0
	movq	$.L.str.133, (%rsp)
	movl	$2, %edi
	movl	$64, %esi
	xorl	%edx, %edx
	movl	$1, %ecx
	movl	$.L.str.134, %r8d
	movl	$1, %r9d
	callq	trace_logger_log_int
	movq	$.L.str.144, (%rsp)
	movl	$1, %edi
	movl	$64, %esi
	xorl	%edx, %edx
	movl	$1, %ecx
	movl	$.L.str.179, %r8d
	movl	$1, %r9d
	callq	trace_logger_log_int
	movq	$.L.str.144, (%rsp)
	movl	$19134, %edi            # imm = 0x4ABE
	movl	$64, %esi
	movl	$1, %ecx
	movl	$.L.str.183, %r8d
	xorl	%r9d, %r9d
	movq	%rbx, %rdx
	callq	trace_logger_log_ptr
	movl	$1, (%rsp)
	movq	$-1, %rdi
	movl	$.L.str.18, %esi
	movl	$.L.str.138, %edx
	movl	$.L.str.184, %ecx
	movl	$53, %r8d
	xorl	%r9d, %r9d
	callq	trace_logger_log0
	movq	$.L.str.133, (%rsp)
	movl	$2, %edi
	movl	$32, %esi
	xorl	%edx, %edx
	movl	$1, %ecx
	movl	$.L.str.136, %r8d
	movl	$1, %r9d
	callq	trace_logger_log_int
	movq	$.L.str.144, (%rsp)
	movl	$1, %edi
	movl	$32, %esi
	xorl	%edx, %edx
	movl	$1, %ecx
	movl	$.L.str.180, %r8d
	movl	$1, %r9d
	callq	trace_logger_log_int
	movl	%r14d, %edx
	movq	$.L.str.144, (%rsp)
	movl	$19134, %edi            # imm = 0x4ABE
	movl	$32, %esi
	movl	$1, %ecx
	movl	$.L.str.184, %r8d
	xorl	%r9d, %r9d
	callq	trace_logger_log_int
	movl	$1, (%rsp)
	movl	$44, %edi
	movl	$.L.str.18, %esi
	movl	$.L.str.138, %edx
	movl	$.L.str.185, %ecx
.LBB2_34:
	movl	$2, %r8d
	xorl	%r9d, %r9d
	callq	trace_logger_log0
	movq	$.L.str.11, (%rsp)
	movl	$1, %edi
	movl	$0, %esi
	xorl	%edx, %edx
	movl	$1, %ecx
	movl	$.L.str.132, %r8d
	xorl	%r9d, %r9d
	callq	trace_logger_log_int
	.loc	56 30 13                # src/main.cpp:30:13
	movl	$1, (%rsp)
	movq	$-1, %rdi
	movl	$.L.str.18, %esi
	movl	$.L.str.132, %edx
	movl	$.L.str.186, %ecx
	movl	$53, %r8d
	xorl	%r9d, %r9d
	callq	trace_logger_log0
	movq	$.L.str.127, (%rsp)
	movl	$2, %edi
	movl	$64, %esi
	xorl	%edx, %edx
	movl	$1, %ecx
	movl	$.L.str.128, %r8d
	movl	$1, %r9d
	callq	trace_logger_log_int
	movq	$.L.str.138, (%rsp)
	movl	$1, %edi
	movl	$64, %esi
	xorl	%edx, %edx
	movl	$1, %ecx
	movl	$.L.str.183, %r8d
	movl	$1, %r9d
	callq	trace_logger_log_int
	movq	$.L.str.138, (%rsp)
	movl	$19134, %edi            # imm = 0x4ABE
	movl	$64, %esi
	movl	$1, %ecx
	movl	$.L.str.186, %r8d
	xorl	%r9d, %r9d
	movq	%rbx, %rdx
	callq	trace_logger_log_ptr
	movl	$1, (%rsp)
	movq	$-1, %rdi
	movl	$.L.str.18, %esi
	movl	$.L.str.132, %edx
	movl	$.L.str.187, %ecx
	movl	$53, %r8d
	xorl	%r9d, %r9d
	callq	trace_logger_log0
	movq	$.L.str.127, (%rsp)
	movl	$2, %edi
	movl	$32, %esi
	xorl	%edx, %edx
	movl	$1, %ecx
	movl	$.L.str.130, %r8d
	movl	$1, %r9d
	callq	trace_logger_log_int
	movq	$.L.str.138, (%rsp)
	movl	$1, %edi
	movl	$32, %esi
	xorl	%edx, %edx
	movl	$1, %ecx
	movl	$.L.str.184, %r8d
	movl	$1, %r9d
	callq	trace_logger_log_int
	movl	%r14d, %edx
	movq	$.L.str.138, (%rsp)
	movl	$19134, %edi            # imm = 0x4ABE
	movl	$32, %esi
	movl	$1, %ecx
	movl	$.L.str.187, %r8d
	xorl	%r9d, %r9d
	callq	trace_logger_log_int
	.loc	56 44 1                 # src/main.cpp:44:1
	movl	$1, (%rsp)
	movl	$44, %edi
	movl	$.L.str.18, %esi
	movl	$.L.str.132, %edx
	movl	$.L.str.188, %ecx
	movl	$54, %r8d
	xorl	%r9d, %r9d
	callq	trace_logger_log0
	movq	$.L.str.11, (%rsp)
	movl	$2, %edi
	movl	$64, %esi
	movl	$_ZN12ILLIXR_AUDIO7ABAudioD1Ev, %edx
	movl	$1, %ecx
	movl	$.L.str.90, %r8d
	xorl	%r9d, %r9d
	callq	trace_logger_log_ptr
	movq	$.L.str.11, (%rsp)
	leaq	104(%rsp), %rbp
.Ltmp104:
	#DEBUG_VALUE: main:decoder <- [DW_OP_plus_uconst 104] [%rsp+0]
	movl	$1, %edi
	movl	$64, %esi
	movl	$1, %ecx
	movl	$.L.str.24, %r8d
	xorl	%r9d, %r9d
	movq	%rbp, %rdx
	callq	trace_logger_log_ptr
	movq	%rbp, %rdi
	callq	_ZN12ILLIXR_AUDIO7ABAudioD1Ev
	movl	$1, (%rsp)
	movl	$44, %edi
	movl	$.L.str.18, %esi
	movl	$.L.str.132, %edx
	movl	$.L.str.189, %ecx
.Ltmp105:
.LBB2_35:
	.loc	56 0 1 is_stmt 0        # src/main.cpp:0:1
	movl	$2, %r8d
	xorl	%r9d, %r9d
	callq	trace_logger_log0
	movq	$.L.str.11, (%rsp)
	movl	$1, %edi
	movl	$0, %esi
	xorl	%edx, %edx
	movl	$1, %ecx
	movl	$.L.str.126, %r8d
	xorl	%r9d, %r9d
	callq	trace_logger_log_int
	.loc	56 44 1                 # src/main.cpp:44:1
	movl	$1, (%rsp)
	movq	$-1, %rdi
	movl	$.L.str.18, %esi
	movl	$.L.str.126, %edx
	movl	$.L.str.190, %ecx
	movl	$53, %r8d
	xorl	%r9d, %r9d
	callq	trace_logger_log0
	movq	$.L.str.115, (%rsp)
	movl	$2, %edi
	movl	$64, %esi
	xorl	%edx, %edx
	movl	$1, %ecx
	movl	$.L.str.122, %r8d
	movl	$1, %r9d
	callq	trace_logger_log_int
	movq	$.L.str.132, (%rsp)
	movl	$1, %edi
	movl	$64, %esi
	xorl	%edx, %edx
	movl	$1, %ecx
	movl	$.L.str.186, %r8d
	movl	$1, %r9d
	callq	trace_logger_log_int
	movq	$.L.str.132, (%rsp)
	movl	$19134, %edi            # imm = 0x4ABE
	movl	$64, %esi
	movl	$1, %ecx
	movl	$.L.str.190, %r8d
	xorl	%r9d, %r9d
	movq	%rbx, %rdx
	callq	trace_logger_log_ptr
	movl	$1, (%rsp)
	movq	$-1, %rdi
	movl	$.L.str.18, %esi
	movl	$.L.str.126, %edx
	movl	$.L.str.191, %ecx
	movl	$53, %r8d
	xorl	%r9d, %r9d
	callq	trace_logger_log0
	movq	$.L.str.115, (%rsp)
	movl	$2, %edi
	movl	$32, %esi
	xorl	%edx, %edx
	movl	$1, %ecx
	movl	$.L.str.123, %r8d
	movl	$1, %r9d
	callq	trace_logger_log_int
	movq	$.L.str.132, (%rsp)
	movl	$1, %edi
	movl	$32, %esi
	xorl	%edx, %edx
	movl	$1, %ecx
	movl	$.L.str.187, %r8d
	movl	$1, %r9d
	callq	trace_logger_log_int
	movl	%r14d, %edx
	movq	$.L.str.132, (%rsp)
	movl	$19134, %edi            # imm = 0x4ABE
	movl	$32, %esi
	movl	$1, %ecx
	movl	$.L.str.191, %r8d
	xorl	%r9d, %r9d
	callq	trace_logger_log_int
	movl	$1, (%rsp)
	movl	$44, %edi
	movl	$.L.str.18, %esi
	movl	$.L.str.126, %edx
	movl	$.L.str.192, %ecx
	movl	$54, %r8d
	xorl	%r9d, %r9d
	callq	trace_logger_log0
	movq	$.L.str.11, (%rsp)
	movl	$2, %edi
	movl	$64, %esi
	movl	$_ZN12ILLIXR_AUDIO7ABAudioD1Ev, %edx
	movl	$1, %ecx
	movl	$.L.str.90, %r8d
	xorl	%r9d, %r9d
	callq	trace_logger_log_ptr
	movq	$.L.str.11, (%rsp)
	leaq	152(%rsp), %rbp
.Ltmp106:
	#DEBUG_VALUE: main:encoder <- [DW_OP_plus_uconst 152] [%rsp+0]
	movl	$1, %edi
	movl	$64, %esi
	movl	$1, %ecx
	movl	$.L.str.20, %r8d
	xorl	%r9d, %r9d
	movq	%rbp, %rdx
	callq	trace_logger_log_ptr
	movq	%rbp, %rdi
	callq	_ZN12ILLIXR_AUDIO7ABAudioD1Ev
	movl	$1, (%rsp)
	movl	$44, %edi
	movl	$.L.str.18, %esi
	movl	$.L.str.126, %edx
	movl	$.L.str.193, %ecx
.Ltmp107:
.LBB2_36:
	.loc	56 0 1                  # src/main.cpp:0:1
	movl	$2, %r8d
	xorl	%r9d, %r9d
	callq	trace_logger_log0
	movq	$.L.str.11, (%rsp)
	movl	$1, %edi
	movl	$0, %esi
	xorl	%edx, %edx
	movl	$1, %ecx
	movl	$.L.str.109, %r8d
	xorl	%r9d, %r9d
	callq	trace_logger_log_int
	.loc	56 44 1                 # src/main.cpp:44:1
	movl	$1, (%rsp)
	movq	$-1, %rdi
	movl	$.L.str.18, %esi
	movl	$.L.str.109, %edx
	movl	$.L.str.194, %ecx
	movl	$53, %r8d
	xorl	%r9d, %r9d
	callq	trace_logger_log0
	movq	$.L.str.98, (%rsp)
	movl	$2, %edi
	movl	$64, %esi
	xorl	%edx, %edx
	movl	$1, %ecx
	movl	$.L.str.105, %r8d
	movl	$1, %r9d
	callq	trace_logger_log_int
	movq	$.L.str.126, (%rsp)
	movl	$1, %edi
	movl	$64, %esi
	xorl	%edx, %edx
	movl	$1, %ecx
	movl	$.L.str.190, %r8d
	movl	$1, %r9d
	callq	trace_logger_log_int
	movq	$.L.str.126, (%rsp)
	movl	$19134, %edi            # imm = 0x4ABE
	movl	$64, %esi
	movl	$1, %ecx
	movl	$.L.str.194, %r8d
	xorl	%r9d, %r9d
	movq	%rbx, %rdx
	callq	trace_logger_log_ptr
	movl	$1, (%rsp)
	movq	$-1, %rdi
	movl	$.L.str.18, %esi
	movl	$.L.str.109, %edx
	movl	$.L.str.195, %ecx
	movl	$53, %r8d
	xorl	%r9d, %r9d
	callq	trace_logger_log0
	movq	$.L.str.98, (%rsp)
	movl	$2, %edi
	movl	$32, %esi
	xorl	%edx, %edx
	movl	$1, %ecx
	movl	$.L.str.106, %r8d
	movl	$1, %r9d
	callq	trace_logger_log_int
	movq	$.L.str.126, (%rsp)
	movl	$1, %edi
	movl	$32, %esi
	xorl	%edx, %edx
	movl	$1, %ecx
	movl	$.L.str.191, %r8d
	movl	$1, %r9d
	callq	trace_logger_log_int
	movl	%r14d, %ebp
	movq	$.L.str.126, (%rsp)
	movl	$19134, %edi            # imm = 0x4ABE
	movl	$32, %esi
	movl	$1, %ecx
	movl	$.L.str.195, %r8d
	xorl	%r9d, %r9d
	movq	%rbp, %rdx
	callq	trace_logger_log_int
	movl	$1, (%rsp)
	movl	$44, %edi
	movl	$.L.str.18, %esi
	movl	$.L.str.109, %edx
	movl	$.L.str.196, %ecx
	movl	$63, %r8d
	xorl	%r9d, %r9d
	callq	trace_logger_log0
	movq	$.L.str.11, (%rsp)
	movl	$2, %edi
	movl	$64, %esi
	movl	$1, %ecx
	movl	$.L.str.194, %r8d
	xorl	%r9d, %r9d
	movq	%rbx, %rdx
	callq	trace_logger_log_ptr
	movl	$1, (%rsp)
	movl	$44, %edi
	movl	$.L.str.18, %esi
	movl	$.L.str.109, %edx
	movl	$.L.str.197, %ecx
	movl	$63, %r8d
	xorl	%r9d, %r9d
	callq	trace_logger_log0
	movq	$.L.str.11, (%rsp)
	movl	$2, %edi
	movl	$32, %esi
	movl	$1, %ecx
	movl	$.L.str.195, %r8d
	xorl	%r9d, %r9d
	movq	%rbp, %rdx
	callq	trace_logger_log_int
	movl	$1, (%rsp)
	movl	$44, %edi
	movl	$.L.str.18, %esi
	movl	$.L.str.109, %edx
	movl	$.L.str.198, %ecx
	movl	$6, %r8d
	xorl	%r9d, %r9d
	callq	trace_logger_log0
	movq	%rbx, %rdi
	callq	_Unwind_Resume
.Ltmp108:
.Lfunc_end2:
	.size	main, .Lfunc_end2-main
	.cfi_endproc
	.section	.gcc_except_table,"a",@progbits
	.p2align	2
GCC_except_table2:
.Lexception0:
	.byte	255                     # @LPStart Encoding = omit
	.byte	3                       # @TType Encoding = udata4
	.asciz	"\207\202"              # @TType base offset
	.byte	3                       # Call site Encoding = udata4
	.ascii	"\204\002"              # Call site table length
	.long	.Lfunc_begin2-.Lfunc_begin2 # >> Call Site 1 <<
	.long	.Ltmp2-.Lfunc_begin2    #   Call between .Lfunc_begin2 and .Ltmp2
	.long	0                       #     has no landing pad
	.byte	0                       #   On action: cleanup
	.long	.Ltmp2-.Lfunc_begin2    # >> Call Site 2 <<
	.long	.Ltmp3-.Ltmp2           #   Call between .Ltmp2 and .Ltmp3
	.long	.Ltmp4-.Lfunc_begin2    #     jumps to .Ltmp4
	.byte	0                       #   On action: cleanup
	.long	.Ltmp5-.Lfunc_begin2    # >> Call Site 3 <<
	.long	.Ltmp6-.Ltmp5           #   Call between .Ltmp5 and .Ltmp6
	.long	.Ltmp7-.Lfunc_begin2    #     jumps to .Ltmp7
	.byte	0                       #   On action: cleanup
	.long	.Ltmp6-.Lfunc_begin2    # >> Call Site 4 <<
	.long	.Ltmp8-.Ltmp6           #   Call between .Ltmp6 and .Ltmp8
	.long	0                       #     has no landing pad
	.byte	0                       #   On action: cleanup
	.long	.Ltmp8-.Lfunc_begin2    # >> Call Site 5 <<
	.long	.Ltmp9-.Ltmp8           #   Call between .Ltmp8 and .Ltmp9
	.long	.Ltmp10-.Lfunc_begin2   #     jumps to .Ltmp10
	.byte	0                       #   On action: cleanup
	.long	.Ltmp11-.Lfunc_begin2   # >> Call Site 6 <<
	.long	.Ltmp12-.Ltmp11         #   Call between .Ltmp11 and .Ltmp12
	.long	.Ltmp13-.Lfunc_begin2   #     jumps to .Ltmp13
	.byte	0                       #   On action: cleanup
	.long	.Ltmp12-.Lfunc_begin2   # >> Call Site 7 <<
	.long	.Ltmp14-.Ltmp12         #   Call between .Ltmp12 and .Ltmp14
	.long	0                       #     has no landing pad
	.byte	0                       #   On action: cleanup
	.long	.Ltmp14-.Lfunc_begin2   # >> Call Site 8 <<
	.long	.Ltmp17-.Ltmp14         #   Call between .Ltmp14 and .Ltmp17
	.long	.Ltmp18-.Lfunc_begin2   #     jumps to .Ltmp18
	.byte	0                       #   On action: cleanup
	.long	.Ltmp17-.Lfunc_begin2   # >> Call Site 9 <<
	.long	.Ltmp19-.Ltmp17         #   Call between .Ltmp17 and .Ltmp19
	.long	0                       #     has no landing pad
	.byte	0                       #   On action: cleanup
	.long	.Ltmp19-.Lfunc_begin2   # >> Call Site 10 <<
	.long	.Ltmp20-.Ltmp19         #   Call between .Ltmp19 and .Ltmp20
	.long	.Ltmp21-.Lfunc_begin2   #     jumps to .Ltmp21
	.byte	0                       #   On action: cleanup
	.long	.Ltmp22-.Lfunc_begin2   # >> Call Site 11 <<
	.long	.Ltmp23-.Ltmp22         #   Call between .Ltmp22 and .Ltmp23
	.long	.Ltmp24-.Lfunc_begin2   #     jumps to .Ltmp24
	.byte	0                       #   On action: cleanup
	.long	.Ltmp23-.Lfunc_begin2   # >> Call Site 12 <<
	.long	.Ltmp25-.Ltmp23         #   Call between .Ltmp23 and .Ltmp25
	.long	0                       #     has no landing pad
	.byte	0                       #   On action: cleanup
	.long	.Ltmp25-.Lfunc_begin2   # >> Call Site 13 <<
	.long	.Ltmp28-.Ltmp25         #   Call between .Ltmp25 and .Ltmp28
	.long	.Ltmp29-.Lfunc_begin2   #     jumps to .Ltmp29
	.byte	0                       #   On action: cleanup
	.long	.Ltmp28-.Lfunc_begin2   # >> Call Site 14 <<
	.long	.Ltmp30-.Ltmp28         #   Call between .Ltmp28 and .Ltmp30
	.long	0                       #     has no landing pad
	.byte	0                       #   On action: cleanup
	.long	.Ltmp30-.Lfunc_begin2   # >> Call Site 15 <<
	.long	.Ltmp31-.Ltmp30         #   Call between .Ltmp30 and .Ltmp31
	.long	.Ltmp38-.Lfunc_begin2   #     jumps to .Ltmp38
	.byte	0                       #   On action: cleanup
	.long	.Ltmp31-.Lfunc_begin2   # >> Call Site 16 <<
	.long	.Ltmp32-.Ltmp31         #   Call between .Ltmp31 and .Ltmp32
	.long	0                       #     has no landing pad
	.byte	0                       #   On action: cleanup
	.long	.Ltmp32-.Lfunc_begin2   # >> Call Site 17 <<
	.long	.Ltmp33-.Ltmp32         #   Call between .Ltmp32 and .Ltmp33
	.long	.Ltmp38-.Lfunc_begin2   #     jumps to .Ltmp38
	.byte	0                       #   On action: cleanup
	.long	.Ltmp33-.Lfunc_begin2   # >> Call Site 18 <<
	.long	.Ltmp34-.Ltmp33         #   Call between .Ltmp33 and .Ltmp34
	.long	0                       #     has no landing pad
	.byte	0                       #   On action: cleanup
	.long	.Ltmp34-.Lfunc_begin2   # >> Call Site 19 <<
	.long	.Ltmp37-.Ltmp34         #   Call between .Ltmp34 and .Ltmp37
	.long	.Ltmp38-.Lfunc_begin2   #     jumps to .Ltmp38
	.byte	0                       #   On action: cleanup
	.long	.Ltmp37-.Lfunc_begin2   # >> Call Site 20 <<
	.long	.Lfunc_end2-.Ltmp37     #   Call between .Ltmp37 and .Lfunc_end2
	.long	0                       #     has no landing pad
	.byte	0                       #   On action: cleanup
	.p2align	2
                                        # -- End function
	.section	.text._ZNSt6chrono10time_pointINS_3_V212system_clockENS_8durationIlSt5ratioILl1ELl1000000000EEEEEC2Ev,"axG",@progbits,_ZNSt6chrono10time_pointINS_3_V212system_clockENS_8durationIlSt5ratioILl1ELl1000000000EEEEEC2Ev,comdat
	.weak	_ZNSt6chrono10time_pointINS_3_V212system_clockENS_8durationIlSt5ratioILl1ELl1000000000EEEEEC2Ev # -- Begin function _ZNSt6chrono10time_pointINS_3_V212system_clockENS_8durationIlSt5ratioILl1ELl1000000000EEEEEC2Ev
	.p2align	4, 0x90
	.type	_ZNSt6chrono10time_pointINS_3_V212system_clockENS_8durationIlSt5ratioILl1ELl1000000000EEEEEC2Ev,@function
_ZNSt6chrono10time_pointINS_3_V212system_clockENS_8durationIlSt5ratioILl1ELl1000000000EEEEEC2Ev: # @_ZNSt6chrono10time_pointINS_3_V212system_clockENS_8durationIlSt5ratioILl1ELl1000000000EEEEEC2Ev
.Lfunc_begin3:
	.loc	9 634 0 is_stmt 1       # /usr/lib/gcc/x86_64-linux-gnu/9/../../../../include/c++/9/chrono:634:0
	.cfi_startproc
# %bb.0:
	pushq	%rbx
	.cfi_def_cfa_offset 16
	.cfi_offset %rbx, -16
	#DEBUG_VALUE: time_point:this <- %rdi
	movq	%rdi, %rbx
.Ltmp109:
	#DEBUG_VALUE: time_point:this <- %rbx
	.loc	9 633 31 prologue_end   # /usr/lib/gcc/x86_64-linux-gnu/9/../../../../include/c++/9/chrono:633:31
	callq	_ZNSt6chrono8durationIlSt5ratioILl1ELl1000000000EEE4zeroEv
	movq	%rax, (%rbx)
	.loc	9 634 4                 # /usr/lib/gcc/x86_64-linux-gnu/9/../../../../include/c++/9/chrono:634:4
	popq	%rbx
.Ltmp110:
	retq
.Ltmp111:
.Lfunc_end3:
	.size	_ZNSt6chrono10time_pointINS_3_V212system_clockENS_8durationIlSt5ratioILl1ELl1000000000EEEEEC2Ev, .Lfunc_end3-_ZNSt6chrono10time_pointINS_3_V212system_clockENS_8durationIlSt5ratioILl1ELl1000000000EEEEEC2Ev
	.cfi_endproc
                                        # -- End function
	.section	.text._ZNSt6chronomiINS_3_V212system_clockENS_8durationIlSt5ratioILl1ELl1000000000EEEES6_EENSt11common_typeIJT0_T1_EE4typeERKNS_10time_pointIT_S8_EERKNSC_ISD_S9_EE,"axG",@progbits,_ZNSt6chronomiINS_3_V212system_clockENS_8durationIlSt5ratioILl1ELl1000000000EEEES6_EENSt11common_typeIJT0_T1_EE4typeERKNS_10time_pointIT_S8_EERKNSC_ISD_S9_EE,comdat
	.weak	_ZNSt6chronomiINS_3_V212system_clockENS_8durationIlSt5ratioILl1ELl1000000000EEEES6_EENSt11common_typeIJT0_T1_EE4typeERKNS_10time_pointIT_S8_EERKNSC_ISD_S9_EE # -- Begin function _ZNSt6chronomiINS_3_V212system_clockENS_8durationIlSt5ratioILl1ELl1000000000EEEES6_EENSt11common_typeIJT0_T1_EE4typeERKNS_10time_pointIT_S8_EERKNSC_ISD_S9_EE
	.p2align	4, 0x90
	.type	_ZNSt6chronomiINS_3_V212system_clockENS_8durationIlSt5ratioILl1ELl1000000000EEEES6_EENSt11common_typeIJT0_T1_EE4typeERKNS_10time_pointIT_S8_EERKNSC_ISD_S9_EE,@function
_ZNSt6chronomiINS_3_V212system_clockENS_8durationIlSt5ratioILl1ELl1000000000EEEES6_EENSt11common_typeIJT0_T1_EE4typeERKNS_10time_pointIT_S8_EERKNSC_ISD_S9_EE: # @_ZNSt6chronomiINS_3_V212system_clockENS_8durationIlSt5ratioILl1ELl1000000000EEEES6_EENSt11common_typeIJT0_T1_EE4typeERKNS_10time_pointIT_S8_EERKNSC_ISD_S9_EE
.Lfunc_begin4:
	.loc	9 764 0                 # /usr/lib/gcc/x86_64-linux-gnu/9/../../../../include/c++/9/chrono:764:0
	.cfi_startproc
# %bb.0:
	pushq	%rbx
	.cfi_def_cfa_offset 16
	subq	$16, %rsp
	.cfi_def_cfa_offset 32
	.cfi_offset %rbx, -16
	#DEBUG_VALUE: operator-<std::chrono::_V2::system_clock, std::chrono::duration<long, std::ratio<1, 1000000000> >, std::chrono::duration<long, std::ratio<1, 1000000000> > >:__lhs <- %rdi
	#DEBUG_VALUE: operator-<std::chrono::_V2::system_clock, std::chrono::duration<long, std::ratio<1, 1000000000> >, std::chrono::duration<long, std::ratio<1, 1000000000> > >:__rhs <- %rsi
	movq	%rsi, %rbx
.Ltmp112:
	#DEBUG_VALUE: operator-<std::chrono::_V2::system_clock, std::chrono::duration<long, std::ratio<1, 1000000000> >, std::chrono::duration<long, std::ratio<1, 1000000000> > >:__rhs <- %rbx
	#DEBUG_VALUE: operator-<std::chrono::_V2::system_clock, std::chrono::duration<long, std::ratio<1, 1000000000> >, std::chrono::duration<long, std::ratio<1, 1000000000> > >:__lhs <- %rdi
	#DEBUG_VALUE: operator-<std::chrono::_V2::system_clock, std::chrono::duration<long, std::ratio<1, 1000000000> >, std::chrono::duration<long, std::ratio<1, 1000000000> > >:__lhs <- %rdi
	.loc	9 764 22 prologue_end   # /usr/lib/gcc/x86_64-linux-gnu/9/../../../../include/c++/9/chrono:764:22
	callq	_ZNKSt6chrono10time_pointINS_3_V212system_clockENS_8durationIlSt5ratioILl1ELl1000000000EEEEE16time_since_epochEv
.Ltmp113:
	movq	%rax, 8(%rsp)
	.loc	9 764 49 is_stmt 0      # /usr/lib/gcc/x86_64-linux-gnu/9/../../../../include/c++/9/chrono:764:49
	movq	%rbx, %rdi
.Ltmp114:
	#DEBUG_VALUE: operator-<std::chrono::_V2::system_clock, std::chrono::duration<long, std::ratio<1, 1000000000> >, std::chrono::duration<long, std::ratio<1, 1000000000> > >:__rhs <- %rdi
	callq	_ZNKSt6chrono10time_pointINS_3_V212system_clockENS_8durationIlSt5ratioILl1ELl1000000000EEEEE16time_since_epochEv
.Ltmp115:
	movq	%rax, (%rsp)
	leaq	8(%rsp), %rdi
	movq	%rsp, %rsi
	.loc	9 764 41                # /usr/lib/gcc/x86_64-linux-gnu/9/../../../../include/c++/9/chrono:764:41
	callq	_ZNSt6chronomiIlSt5ratioILl1ELl1000000000EElS2_EENSt11common_typeIJNS_8durationIT_T0_EENS4_IT1_T2_EEEE4typeERKS7_RKSA_
	.loc	9 764 9                 # /usr/lib/gcc/x86_64-linux-gnu/9/../../../../include/c++/9/chrono:764:9
	addq	$16, %rsp
	popq	%rbx
	retq
.Ltmp116:
.Lfunc_end4:
	.size	_ZNSt6chronomiINS_3_V212system_clockENS_8durationIlSt5ratioILl1ELl1000000000EEEES6_EENSt11common_typeIJT0_T1_EE4typeERKNS_10time_pointIT_S8_EERKNSC_ISD_S9_EE, .Lfunc_end4-_ZNSt6chronomiINS_3_V212system_clockENS_8durationIlSt5ratioILl1ELl1000000000EEEES6_EENSt11common_typeIJT0_T1_EE4typeERKNS_10time_pointIT_S8_EERKNSC_ISD_S9_EE
	.cfi_endproc
                                        # -- End function
	.section	.text._ZNSt6chrono13duration_castINS_8durationIlSt5ratioILl1ELl1000EEEElS2_ILl1ELl1000000000EEEENSt9enable_ifIXsr13__is_durationIT_EE5valueES7_E4typeERKNS1_IT0_T1_EE,"axG",@progbits,_ZNSt6chrono13duration_castINS_8durationIlSt5ratioILl1ELl1000EEEElS2_ILl1ELl1000000000EEEENSt9enable_ifIXsr13__is_durationIT_EE5valueES7_E4typeERKNS1_IT0_T1_EE,comdat
	.weak	_ZNSt6chrono13duration_castINS_8durationIlSt5ratioILl1ELl1000EEEElS2_ILl1ELl1000000000EEEENSt9enable_ifIXsr13__is_durationIT_EE5valueES7_E4typeERKNS1_IT0_T1_EE # -- Begin function _ZNSt6chrono13duration_castINS_8durationIlSt5ratioILl1ELl1000EEEElS2_ILl1ELl1000000000EEEENSt9enable_ifIXsr13__is_durationIT_EE5valueES7_E4typeERKNS1_IT0_T1_EE
	.p2align	4, 0x90
	.type	_ZNSt6chrono13duration_castINS_8durationIlSt5ratioILl1ELl1000EEEElS2_ILl1ELl1000000000EEEENSt9enable_ifIXsr13__is_durationIT_EE5valueES7_E4typeERKNS1_IT0_T1_EE,@function
_ZNSt6chrono13duration_castINS_8durationIlSt5ratioILl1ELl1000EEEElS2_ILl1ELl1000000000EEEENSt9enable_ifIXsr13__is_durationIT_EE5valueES7_E4typeERKNS1_IT0_T1_EE: # @_ZNSt6chrono13duration_castINS_8durationIlSt5ratioILl1ELl1000EEEElS2_ILl1ELl1000000000EEEENSt9enable_ifIXsr13__is_durationIT_EE5valueES7_E4typeERKNS1_IT0_T1_EE
.Lfunc_begin5:
	.loc	9 192 0 is_stmt 1       # /usr/lib/gcc/x86_64-linux-gnu/9/../../../../include/c++/9/chrono:192:0
	.cfi_startproc
# %bb.0:
	#DEBUG_VALUE: duration_cast<std::chrono::duration<long, std::ratio<1, 1000> >, long, std::ratio<1, 1000000000> >:__d <- %rdi
	#DEBUG_VALUE: duration_cast<std::chrono::duration<long, std::ratio<1, 1000> >, long, std::ratio<1, 1000000000> >:__d <- %rdi
	#DEBUG_VALUE: duration_cast<std::chrono::duration<long, std::ratio<1, 1000> >, long, std::ratio<1, 1000000000> >:__d <- %rdi
	.loc	9 200 9 prologue_end    # /usr/lib/gcc/x86_64-linux-gnu/9/../../../../include/c++/9/chrono:200:9
	jmp	_ZNSt6chrono20__duration_cast_implINS_8durationIlSt5ratioILl1ELl1000EEEES2_ILl1ELl1000000EElLb1ELb0EE6__castIlS2_ILl1ELl1000000000EEEES4_RKNS1_IT_T0_EE # TAILCALL
.Ltmp117:
.Lfunc_end5:
	.size	_ZNSt6chrono13duration_castINS_8durationIlSt5ratioILl1ELl1000EEEElS2_ILl1ELl1000000000EEEENSt9enable_ifIXsr13__is_durationIT_EE5valueES7_E4typeERKNS1_IT0_T1_EE, .Lfunc_end5-_ZNSt6chrono13duration_castINS_8durationIlSt5ratioILl1ELl1000EEEElS2_ILl1ELl1000000000EEEENSt9enable_ifIXsr13__is_durationIT_EE5valueES7_E4typeERKNS1_IT0_T1_EE
	.cfi_endproc
                                        # -- End function
	.section	.text._ZNKSt6chrono8durationIlSt5ratioILl1ELl1000EEE5countEv,"axG",@progbits,_ZNKSt6chrono8durationIlSt5ratioILl1ELl1000EEE5countEv,comdat
	.weak	_ZNKSt6chrono8durationIlSt5ratioILl1ELl1000EEE5countEv # -- Begin function _ZNKSt6chrono8durationIlSt5ratioILl1ELl1000EEE5countEv
	.p2align	4, 0x90
	.type	_ZNKSt6chrono8durationIlSt5ratioILl1ELl1000EEE5countEv,@function
_ZNKSt6chrono8durationIlSt5ratioILl1ELl1000EEE5countEv: # @_ZNKSt6chrono8durationIlSt5ratioILl1ELl1000EEE5countEv
.Lfunc_begin6:
	.loc	9 347 0                 # /usr/lib/gcc/x86_64-linux-gnu/9/../../../../include/c++/9/chrono:347:0
	.cfi_startproc
# %bb.0:
	#DEBUG_VALUE: count:this <- %rdi
	#DEBUG_VALUE: count:this <- %rdi
	.loc	9 347 11 prologue_end   # /usr/lib/gcc/x86_64-linux-gnu/9/../../../../include/c++/9/chrono:347:11
	movq	(%rdi), %rax
	.loc	9 347 4 is_stmt 0       # /usr/lib/gcc/x86_64-linux-gnu/9/../../../../include/c++/9/chrono:347:4
	retq
.Ltmp118:
.Lfunc_end6:
	.size	_ZNKSt6chrono8durationIlSt5ratioILl1ELl1000EEE5countEv, .Lfunc_end6-_ZNKSt6chrono8durationIlSt5ratioILl1ELl1000EEE5countEv
	.cfi_endproc
                                        # -- End function
	.section	.text._ZSt13__check_facetISt5ctypeIcEERKT_PS3_,"axG",@progbits,_ZSt13__check_facetISt5ctypeIcEERKT_PS3_,comdat
	.weak	_ZSt13__check_facetISt5ctypeIcEERKT_PS3_ # -- Begin function _ZSt13__check_facetISt5ctypeIcEERKT_PS3_
	.p2align	4, 0x90
	.type	_ZSt13__check_facetISt5ctypeIcEERKT_PS3_,@function
_ZSt13__check_facetISt5ctypeIcEERKT_PS3_: # @_ZSt13__check_facetISt5ctypeIcEERKT_PS3_
.Lfunc_begin7:
	.file	57 "/usr/lib/gcc/x86_64-linux-gnu/9/../../../../include/c++/9/bits/basic_ios.h"
	.loc	57 48 0 is_stmt 1       # /usr/lib/gcc/x86_64-linux-gnu/9/../../../../include/c++/9/bits/basic_ios.h:48:0
	.cfi_startproc
# %bb.0:
	.loc	57 49 12 prologue_end   # /usr/lib/gcc/x86_64-linux-gnu/9/../../../../include/c++/9/bits/basic_ios.h:49:12
	pushq	%rax
	.cfi_def_cfa_offset 16
	#DEBUG_VALUE: __check_facet<std::ctype<char> >:__f <- %rdi
	#DEBUG_VALUE: __check_facet<std::ctype<char> >:__f <- %rdi
	testq	%rdi, %rdi
.Ltmp119:
	.loc	57 49 11 is_stmt 0      # /usr/lib/gcc/x86_64-linux-gnu/9/../../../../include/c++/9/bits/basic_ios.h:49:11
	je	.LBB7_2
.Ltmp120:
# %bb.1:
	#DEBUG_VALUE: __check_facet<std::ctype<char> >:__f <- %rdi
	.loc	57 51 7 is_stmt 1       # /usr/lib/gcc/x86_64-linux-gnu/9/../../../../include/c++/9/bits/basic_ios.h:51:7
	movq	%rdi, %rax
	popq	%rcx
	retq
.Ltmp121:
.LBB7_2:
	#DEBUG_VALUE: __check_facet<std::ctype<char> >:__f <- %rdi
	.loc	57 50 2                 # /usr/lib/gcc/x86_64-linux-gnu/9/../../../../include/c++/9/bits/basic_ios.h:50:2
	callq	_ZSt16__throw_bad_castv
.Ltmp122:
.Lfunc_end7:
	.size	_ZSt13__check_facetISt5ctypeIcEERKT_PS3_, .Lfunc_end7-_ZSt13__check_facetISt5ctypeIcEERKT_PS3_
	.cfi_endproc
                                        # -- End function
	.section	.text._ZNKSt5ctypeIcE5widenEc,"axG",@progbits,_ZNKSt5ctypeIcE5widenEc,comdat
	.weak	_ZNKSt5ctypeIcE5widenEc # -- Begin function _ZNKSt5ctypeIcE5widenEc
	.p2align	4, 0x90
	.type	_ZNKSt5ctypeIcE5widenEc,@function
_ZNKSt5ctypeIcE5widenEc:                # @_ZNKSt5ctypeIcE5widenEc
.Lfunc_begin8:
	.file	58 "/usr/lib/gcc/x86_64-linux-gnu/9/../../../../include/c++/9/bits/locale_facets.h"
	.loc	58 873 0                # /usr/lib/gcc/x86_64-linux-gnu/9/../../../../include/c++/9/bits/locale_facets.h:873:0
	.cfi_startproc
# %bb.0:
	pushq	%rbp
	.cfi_def_cfa_offset 16
	pushq	%rbx
	.cfi_def_cfa_offset 24
	pushq	%rax
	.cfi_def_cfa_offset 32
	.cfi_offset %rbx, -24
	.cfi_offset %rbp, -16
	#DEBUG_VALUE: widen:this <- %rdi
	#DEBUG_VALUE: widen:__c <- %esi
	movl	%esi, %ebp
.Ltmp123:
	#DEBUG_VALUE: widen:__c <- %ebp
	movq	%rdi, %rbx
.Ltmp124:
	#DEBUG_VALUE: widen:__c <- %bpl
	#DEBUG_VALUE: widen:this <- %rbx
	.loc	58 874 6 prologue_end   # /usr/lib/gcc/x86_64-linux-gnu/9/../../../../include/c++/9/bits/locale_facets.h:874:6
	cmpb	$0, 56(%rbx)
.Ltmp125:
	.loc	58 874 6 is_stmt 0      # /usr/lib/gcc/x86_64-linux-gnu/9/../../../../include/c++/9/bits/locale_facets.h:874:6
	je	.LBB8_2
.Ltmp126:
# %bb.1:
	#DEBUG_VALUE: widen:this <- %rbx
	#DEBUG_VALUE: widen:__c <- %bpl
	.loc	58 875 11 is_stmt 1     # /usr/lib/gcc/x86_64-linux-gnu/9/../../../../include/c++/9/bits/locale_facets.h:875:11
	movzbl	%bpl, %eax
	movb	57(%rbx,%rax), %al
.Ltmp127:
	.loc	58 878 7                # /usr/lib/gcc/x86_64-linux-gnu/9/../../../../include/c++/9/bits/locale_facets.h:878:7
	addq	$8, %rsp
	popq	%rbx
.Ltmp128:
	popq	%rbp
.Ltmp129:
	retq
.LBB8_2:
.Ltmp130:
	#DEBUG_VALUE: widen:this <- %rbx
	#DEBUG_VALUE: widen:__c <- %bpl
	.loc	58 876 8                # /usr/lib/gcc/x86_64-linux-gnu/9/../../../../include/c++/9/bits/locale_facets.h:876:8
	movq	%rbx, %rdi
	callq	_ZNKSt5ctypeIcE13_M_widen_initEv
	.loc	58 877 15               # /usr/lib/gcc/x86_64-linux-gnu/9/../../../../include/c++/9/bits/locale_facets.h:877:15
	movq	(%rbx), %rax
	movq	48(%rax), %rax
	movsbl	%bpl, %esi
	movq	%rbx, %rdi
	addq	$8, %rsp
	popq	%rbx
.Ltmp131:
	popq	%rbp
.Ltmp132:
	jmpq	*%rax                   # TAILCALL
.Ltmp133:
.Lfunc_end8:
	.size	_ZNKSt5ctypeIcE5widenEc, .Lfunc_end8-_ZNKSt5ctypeIcE5widenEc
	.cfi_endproc
                                        # -- End function
	.section	.text._ZNSt6chrono20__duration_cast_implINS_8durationIlSt5ratioILl1ELl1000EEEES2_ILl1ELl1000000EElLb1ELb0EE6__castIlS2_ILl1ELl1000000000EEEES4_RKNS1_IT_T0_EE,"axG",@progbits,_ZNSt6chrono20__duration_cast_implINS_8durationIlSt5ratioILl1ELl1000EEEES2_ILl1ELl1000000EElLb1ELb0EE6__castIlS2_ILl1ELl1000000000EEEES4_RKNS1_IT_T0_EE,comdat
	.weak	_ZNSt6chrono20__duration_cast_implINS_8durationIlSt5ratioILl1ELl1000EEEES2_ILl1ELl1000000EElLb1ELb0EE6__castIlS2_ILl1ELl1000000000EEEES4_RKNS1_IT_T0_EE # -- Begin function _ZNSt6chrono20__duration_cast_implINS_8durationIlSt5ratioILl1ELl1000EEEES2_ILl1ELl1000000EElLb1ELb0EE6__castIlS2_ILl1ELl1000000000EEEES4_RKNS1_IT_T0_EE
	.p2align	4, 0x90
	.type	_ZNSt6chrono20__duration_cast_implINS_8durationIlSt5ratioILl1ELl1000EEEES2_ILl1ELl1000000EElLb1ELb0EE6__castIlS2_ILl1ELl1000000000EEEES4_RKNS1_IT_T0_EE,@function
_ZNSt6chrono20__duration_cast_implINS_8durationIlSt5ratioILl1ELl1000EEEES2_ILl1ELl1000000EElLb1ELb0EE6__castIlS2_ILl1ELl1000000000EEEES4_RKNS1_IT_T0_EE: # @_ZNSt6chrono20__duration_cast_implINS_8durationIlSt5ratioILl1ELl1000EEEES2_ILl1ELl1000000EElLb1ELb0EE6__castIlS2_ILl1ELl1000000000EEEES4_RKNS1_IT_T0_EE
.Lfunc_begin9:
	.loc	9 150 0                 # /usr/lib/gcc/x86_64-linux-gnu/9/../../../../include/c++/9/chrono:150:0
	.cfi_startproc
# %bb.0:
	.loc	9 153 29 prologue_end   # /usr/lib/gcc/x86_64-linux-gnu/9/../../../../include/c++/9/chrono:153:29
	subq	$24, %rsp
	.cfi_def_cfa_offset 32
	#DEBUG_VALUE: __cast<long, std::ratio<1, 1000000000> >:__d <- %rdi
	#DEBUG_VALUE: __cast<long, std::ratio<1, 1000000000> >:__d <- %rdi
	#DEBUG_VALUE: __cast<long, std::ratio<1, 1000000000> >:__d <- %rdi
	callq	_ZNKSt6chrono8durationIlSt5ratioILl1ELl1000000000EEE5countEv
.Ltmp134:
	.loc	9 153 38 is_stmt 0      # /usr/lib/gcc/x86_64-linux-gnu/9/../../../../include/c++/9/chrono:153:38
	movabsq	$4835703278458516699, %rcx # imm = 0x431BDE82D7B634DB
	imulq	%rcx
	movq	%rdx, %rax
	shrq	$63, %rax
	sarq	$18, %rdx
	addq	%rax, %rdx
	.loc	9 152 20 is_stmt 1      # /usr/lib/gcc/x86_64-linux-gnu/9/../../../../include/c++/9/chrono:152:20
	movq	%rdx, 8(%rsp)
	leaq	16(%rsp), %rdi
	leaq	8(%rsp), %rsi
	.loc	9 152 13 is_stmt 0      # /usr/lib/gcc/x86_64-linux-gnu/9/../../../../include/c++/9/chrono:152:13
	callq	_ZNSt6chrono8durationIlSt5ratioILl1ELl1000EEEC2IlvEERKT_
	.loc	9 152 6                 # /usr/lib/gcc/x86_64-linux-gnu/9/../../../../include/c++/9/chrono:152:6
	movq	16(%rsp), %rax
	addq	$24, %rsp
	retq
.Ltmp135:
.Lfunc_end9:
	.size	_ZNSt6chrono20__duration_cast_implINS_8durationIlSt5ratioILl1ELl1000EEEES2_ILl1ELl1000000EElLb1ELb0EE6__castIlS2_ILl1ELl1000000000EEEES4_RKNS1_IT_T0_EE, .Lfunc_end9-_ZNSt6chrono20__duration_cast_implINS_8durationIlSt5ratioILl1ELl1000EEEES2_ILl1ELl1000000EElLb1ELb0EE6__castIlS2_ILl1ELl1000000000EEEES4_RKNS1_IT_T0_EE
	.cfi_endproc
                                        # -- End function
	.section	.text._ZNKSt6chrono8durationIlSt5ratioILl1ELl1000000000EEE5countEv,"axG",@progbits,_ZNKSt6chrono8durationIlSt5ratioILl1ELl1000000000EEE5countEv,comdat
	.weak	_ZNKSt6chrono8durationIlSt5ratioILl1ELl1000000000EEE5countEv # -- Begin function _ZNKSt6chrono8durationIlSt5ratioILl1ELl1000000000EEE5countEv
	.p2align	4, 0x90
	.type	_ZNKSt6chrono8durationIlSt5ratioILl1ELl1000000000EEE5countEv,@function
_ZNKSt6chrono8durationIlSt5ratioILl1ELl1000000000EEE5countEv: # @_ZNKSt6chrono8durationIlSt5ratioILl1ELl1000000000EEE5countEv
.Lfunc_begin10:
	.loc	9 347 0 is_stmt 1       # /usr/lib/gcc/x86_64-linux-gnu/9/../../../../include/c++/9/chrono:347:0
	.cfi_startproc
# %bb.0:
	#DEBUG_VALUE: count:this <- %rdi
	#DEBUG_VALUE: count:this <- %rdi
	.loc	9 347 11 prologue_end   # /usr/lib/gcc/x86_64-linux-gnu/9/../../../../include/c++/9/chrono:347:11
	movq	(%rdi), %rax
	.loc	9 347 4 is_stmt 0       # /usr/lib/gcc/x86_64-linux-gnu/9/../../../../include/c++/9/chrono:347:4
	retq
.Ltmp136:
.Lfunc_end10:
	.size	_ZNKSt6chrono8durationIlSt5ratioILl1ELl1000000000EEE5countEv, .Lfunc_end10-_ZNKSt6chrono8durationIlSt5ratioILl1ELl1000000000EEE5countEv
	.cfi_endproc
                                        # -- End function
	.section	.text._ZNSt6chrono8durationIlSt5ratioILl1ELl1000EEEC2IlvEERKT_,"axG",@progbits,_ZNSt6chrono8durationIlSt5ratioILl1ELl1000EEEC2IlvEERKT_,comdat
	.weak	_ZNSt6chrono8durationIlSt5ratioILl1ELl1000EEEC2IlvEERKT_ # -- Begin function _ZNSt6chrono8durationIlSt5ratioILl1ELl1000EEEC2IlvEERKT_
	.p2align	4, 0x90
	.type	_ZNSt6chrono8durationIlSt5ratioILl1ELl1000EEEC2IlvEERKT_,@function
_ZNSt6chrono8durationIlSt5ratioILl1ELl1000EEEC2IlvEERKT_: # @_ZNSt6chrono8durationIlSt5ratioILl1ELl1000EEEC2IlvEERKT_
.Lfunc_begin11:
	.loc	9 332 0 is_stmt 1       # /usr/lib/gcc/x86_64-linux-gnu/9/../../../../include/c++/9/chrono:332:0
	.cfi_startproc
# %bb.0:
	#DEBUG_VALUE: duration<long, void>:this <- %rdi
	#DEBUG_VALUE: duration<long, void>:this <- %rdi
	#DEBUG_VALUE: duration<long, void>:__rep <- %rsi
	#DEBUG_VALUE: duration<long, void>:__rep <- %rsi
	.loc	9 332 27 prologue_end   # /usr/lib/gcc/x86_64-linux-gnu/9/../../../../include/c++/9/chrono:332:27
	movq	(%rsi), %rax
	.loc	9 332 6 is_stmt 0       # /usr/lib/gcc/x86_64-linux-gnu/9/../../../../include/c++/9/chrono:332:6
	movq	%rax, (%rdi)
	.loc	9 332 37                # /usr/lib/gcc/x86_64-linux-gnu/9/../../../../include/c++/9/chrono:332:37
	retq
.Ltmp137:
.Lfunc_end11:
	.size	_ZNSt6chrono8durationIlSt5ratioILl1ELl1000EEEC2IlvEERKT_, .Lfunc_end11-_ZNSt6chrono8durationIlSt5ratioILl1ELl1000EEEC2IlvEERKT_
	.cfi_endproc
                                        # -- End function
	.section	.text._ZNKSt6chrono10time_pointINS_3_V212system_clockENS_8durationIlSt5ratioILl1ELl1000000000EEEEE16time_since_epochEv,"axG",@progbits,_ZNKSt6chrono10time_pointINS_3_V212system_clockENS_8durationIlSt5ratioILl1ELl1000000000EEEEE16time_since_epochEv,comdat
	.weak	_ZNKSt6chrono10time_pointINS_3_V212system_clockENS_8durationIlSt5ratioILl1ELl1000000000EEEEE16time_since_epochEv # -- Begin function _ZNKSt6chrono10time_pointINS_3_V212system_clockENS_8durationIlSt5ratioILl1ELl1000000000EEEEE16time_since_epochEv
	.p2align	4, 0x90
	.type	_ZNKSt6chrono10time_pointINS_3_V212system_clockENS_8durationIlSt5ratioILl1ELl1000000000EEEEE16time_since_epochEv,@function
_ZNKSt6chrono10time_pointINS_3_V212system_clockENS_8durationIlSt5ratioILl1ELl1000000000EEEEE16time_since_epochEv: # @_ZNKSt6chrono10time_pointINS_3_V212system_clockENS_8durationIlSt5ratioILl1ELl1000000000EEEEE16time_since_epochEv
.Lfunc_begin12:
	.loc	9 650 0 is_stmt 1       # /usr/lib/gcc/x86_64-linux-gnu/9/../../../../include/c++/9/chrono:650:0
	.cfi_startproc
# %bb.0:
	#DEBUG_VALUE: time_since_epoch:this <- %rdi
	#DEBUG_VALUE: time_since_epoch:this <- %rdi
	.loc	9 650 11 prologue_end   # /usr/lib/gcc/x86_64-linux-gnu/9/../../../../include/c++/9/chrono:650:11
	movq	(%rdi), %rax
	.loc	9 650 4 is_stmt 0       # /usr/lib/gcc/x86_64-linux-gnu/9/../../../../include/c++/9/chrono:650:4
	retq
.Ltmp138:
.Lfunc_end12:
	.size	_ZNKSt6chrono10time_pointINS_3_V212system_clockENS_8durationIlSt5ratioILl1ELl1000000000EEEEE16time_since_epochEv, .Lfunc_end12-_ZNKSt6chrono10time_pointINS_3_V212system_clockENS_8durationIlSt5ratioILl1ELl1000000000EEEEE16time_since_epochEv
	.cfi_endproc
                                        # -- End function
	.section	.text._ZNSt6chronomiIlSt5ratioILl1ELl1000000000EElS2_EENSt11common_typeIJNS_8durationIT_T0_EENS4_IT1_T2_EEEE4typeERKS7_RKSA_,"axG",@progbits,_ZNSt6chronomiIlSt5ratioILl1ELl1000000000EElS2_EENSt11common_typeIJNS_8durationIT_T0_EENS4_IT1_T2_EEEE4typeERKS7_RKSA_,comdat
	.weak	_ZNSt6chronomiIlSt5ratioILl1ELl1000000000EElS2_EENSt11common_typeIJNS_8durationIT_T0_EENS4_IT1_T2_EEEE4typeERKS7_RKSA_ # -- Begin function _ZNSt6chronomiIlSt5ratioILl1ELl1000000000EElS2_EENSt11common_typeIJNS_8durationIT_T0_EENS4_IT1_T2_EEEE4typeERKS7_RKSA_
	.p2align	4, 0x90
	.type	_ZNSt6chronomiIlSt5ratioILl1ELl1000000000EElS2_EENSt11common_typeIJNS_8durationIT_T0_EENS4_IT1_T2_EEEE4typeERKS7_RKSA_,@function
_ZNSt6chronomiIlSt5ratioILl1ELl1000000000EElS2_EENSt11common_typeIJNS_8durationIT_T0_EENS4_IT1_T2_EEEE4typeERKS7_RKSA_: # @_ZNSt6chronomiIlSt5ratioILl1ELl1000000000EElS2_EENSt11common_typeIJNS_8durationIT_T0_EENS4_IT1_T2_EEEE4typeERKS7_RKSA_
.Lfunc_begin13:
	.loc	9 465 0 is_stmt 1       # /usr/lib/gcc/x86_64-linux-gnu/9/../../../../include/c++/9/chrono:465:0
	.cfi_startproc
# %bb.0:
	pushq	%r14
	.cfi_def_cfa_offset 16
	pushq	%rbx
	.cfi_def_cfa_offset 24
	subq	$40, %rsp
	.cfi_def_cfa_offset 64
	.cfi_offset %rbx, -24
	.cfi_offset %r14, -16
	#DEBUG_VALUE: operator-<long, std::ratio<1, 1000000000>, long, std::ratio<1, 1000000000> >:__lhs <- %rdi
	#DEBUG_VALUE: operator-<long, std::ratio<1, 1000000000>, long, std::ratio<1, 1000000000> >:__rhs <- %rsi
	movq	%rsi, %r14
.Ltmp139:
	#DEBUG_VALUE: operator-<long, std::ratio<1, 1000000000>, long, std::ratio<1, 1000000000> >:__rhs <- %r14
	#DEBUG_VALUE: operator-<long, std::ratio<1, 1000000000>, long, std::ratio<1, 1000000000> >:__lhs <- %rdi
	.loc	9 469 14 prologue_end   # /usr/lib/gcc/x86_64-linux-gnu/9/../../../../include/c++/9/chrono:469:14
	movq	(%rdi), %rax
	movq	%rax, 16(%rsp)
	leaq	16(%rsp), %rdi
.Ltmp140:
	.loc	9 469 26 is_stmt 0      # /usr/lib/gcc/x86_64-linux-gnu/9/../../../../include/c++/9/chrono:469:26
	callq	_ZNKSt6chrono8durationIlSt5ratioILl1ELl1000000000EEE5countEv
	movq	%rax, %rbx
	.loc	9 469 36                # /usr/lib/gcc/x86_64-linux-gnu/9/../../../../include/c++/9/chrono:469:36
	movq	(%r14), %rax
	movq	%rax, 8(%rsp)
	leaq	8(%rsp), %rdi
	.loc	9 469 48                # /usr/lib/gcc/x86_64-linux-gnu/9/../../../../include/c++/9/chrono:469:48
	callq	_ZNKSt6chrono8durationIlSt5ratioILl1ELl1000000000EEE5countEv
	.loc	9 469 34                # /usr/lib/gcc/x86_64-linux-gnu/9/../../../../include/c++/9/chrono:469:34
	subq	%rax, %rbx
	.loc	9 469 14                # /usr/lib/gcc/x86_64-linux-gnu/9/../../../../include/c++/9/chrono:469:14
	movq	%rbx, 24(%rsp)
	leaq	32(%rsp), %rdi
	leaq	24(%rsp), %rsi
	.loc	9 469 9                 # /usr/lib/gcc/x86_64-linux-gnu/9/../../../../include/c++/9/chrono:469:9
	callq	_ZNSt6chrono8durationIlSt5ratioILl1ELl1000000000EEEC2IlvEERKT_
	.loc	9 469 2                 # /usr/lib/gcc/x86_64-linux-gnu/9/../../../../include/c++/9/chrono:469:2
	movq	32(%rsp), %rax
	addq	$40, %rsp
	popq	%rbx
	popq	%r14
.Ltmp141:
	retq
.Ltmp142:
.Lfunc_end13:
	.size	_ZNSt6chronomiIlSt5ratioILl1ELl1000000000EElS2_EENSt11common_typeIJNS_8durationIT_T0_EENS4_IT1_T2_EEEE4typeERKS7_RKSA_, .Lfunc_end13-_ZNSt6chronomiIlSt5ratioILl1ELl1000000000EElS2_EENSt11common_typeIJNS_8durationIT_T0_EENS4_IT1_T2_EEEE4typeERKS7_RKSA_
	.cfi_endproc
                                        # -- End function
	.section	.text._ZNSt6chrono8durationIlSt5ratioILl1ELl1000000000EEEC2IlvEERKT_,"axG",@progbits,_ZNSt6chrono8durationIlSt5ratioILl1ELl1000000000EEEC2IlvEERKT_,comdat
	.weak	_ZNSt6chrono8durationIlSt5ratioILl1ELl1000000000EEEC2IlvEERKT_ # -- Begin function _ZNSt6chrono8durationIlSt5ratioILl1ELl1000000000EEEC2IlvEERKT_
	.p2align	4, 0x90
	.type	_ZNSt6chrono8durationIlSt5ratioILl1ELl1000000000EEEC2IlvEERKT_,@function
_ZNSt6chrono8durationIlSt5ratioILl1ELl1000000000EEEC2IlvEERKT_: # @_ZNSt6chrono8durationIlSt5ratioILl1ELl1000000000EEEC2IlvEERKT_
.Lfunc_begin14:
	.loc	9 332 0 is_stmt 1       # /usr/lib/gcc/x86_64-linux-gnu/9/../../../../include/c++/9/chrono:332:0
	.cfi_startproc
# %bb.0:
	#DEBUG_VALUE: duration<long, void>:this <- %rdi
	#DEBUG_VALUE: duration<long, void>:this <- %rdi
	#DEBUG_VALUE: duration<long, void>:__rep <- %rsi
	#DEBUG_VALUE: duration<long, void>:__rep <- %rsi
	.loc	9 332 27 prologue_end   # /usr/lib/gcc/x86_64-linux-gnu/9/../../../../include/c++/9/chrono:332:27
	movq	(%rsi), %rax
	.loc	9 332 6 is_stmt 0       # /usr/lib/gcc/x86_64-linux-gnu/9/../../../../include/c++/9/chrono:332:6
	movq	%rax, (%rdi)
	.loc	9 332 37                # /usr/lib/gcc/x86_64-linux-gnu/9/../../../../include/c++/9/chrono:332:37
	retq
.Ltmp143:
.Lfunc_end14:
	.size	_ZNSt6chrono8durationIlSt5ratioILl1ELl1000000000EEEC2IlvEERKT_, .Lfunc_end14-_ZNSt6chrono8durationIlSt5ratioILl1ELl1000000000EEEC2IlvEERKT_
	.cfi_endproc
                                        # -- End function
	.section	.text._ZNSt6chrono8durationIlSt5ratioILl1ELl1000000000EEE4zeroEv,"axG",@progbits,_ZNSt6chrono8durationIlSt5ratioILl1ELl1000000000EEE4zeroEv,comdat
	.weak	_ZNSt6chrono8durationIlSt5ratioILl1ELl1000000000EEE4zeroEv # -- Begin function _ZNSt6chrono8durationIlSt5ratioILl1ELl1000000000EEE4zeroEv
	.p2align	4, 0x90
	.type	_ZNSt6chrono8durationIlSt5ratioILl1ELl1000000000EEE4zeroEv,@function
_ZNSt6chrono8durationIlSt5ratioILl1ELl1000000000EEE4zeroEv: # @_ZNSt6chrono8durationIlSt5ratioILl1ELl1000000000EEE4zeroEv
.Lfunc_begin15:
	.loc	9 432 0 is_stmt 1       # /usr/lib/gcc/x86_64-linux-gnu/9/../../../../include/c++/9/chrono:432:0
	.cfi_startproc
# %bb.0:
	.loc	9 432 20 prologue_end   # /usr/lib/gcc/x86_64-linux-gnu/9/../../../../include/c++/9/chrono:432:20
	subq	$24, %rsp
	.cfi_def_cfa_offset 32
	callq	_ZNSt6chrono15duration_valuesIlE4zeroEv
	movq	%rax, 8(%rsp)
	leaq	16(%rsp), %rdi
	leaq	8(%rsp), %rsi
	.loc	9 432 11 is_stmt 0      # /usr/lib/gcc/x86_64-linux-gnu/9/../../../../include/c++/9/chrono:432:11
	callq	_ZNSt6chrono8durationIlSt5ratioILl1ELl1000000000EEEC2IlvEERKT_
	.loc	9 432 4                 # /usr/lib/gcc/x86_64-linux-gnu/9/../../../../include/c++/9/chrono:432:4
	movq	16(%rsp), %rax
	addq	$24, %rsp
	retq
.Ltmp144:
.Lfunc_end15:
	.size	_ZNSt6chrono8durationIlSt5ratioILl1ELl1000000000EEE4zeroEv, .Lfunc_end15-_ZNSt6chrono8durationIlSt5ratioILl1ELl1000000000EEE4zeroEv
	.cfi_endproc
                                        # -- End function
	.section	.text._ZNSt6chrono15duration_valuesIlE4zeroEv,"axG",@progbits,_ZNSt6chrono15duration_valuesIlE4zeroEv,comdat
	.weak	_ZNSt6chrono15duration_valuesIlE4zeroEv # -- Begin function _ZNSt6chrono15duration_valuesIlE4zeroEv
	.p2align	4, 0x90
	.type	_ZNSt6chrono15duration_valuesIlE4zeroEv,@function
_ZNSt6chrono15duration_valuesIlE4zeroEv: # @_ZNSt6chrono15duration_valuesIlE4zeroEv
.Lfunc_begin16:
	.loc	9 277 0 is_stmt 1       # /usr/lib/gcc/x86_64-linux-gnu/9/../../../../include/c++/9/chrono:277:0
	.cfi_startproc
# %bb.0:
	.loc	9 277 4 prologue_end    # /usr/lib/gcc/x86_64-linux-gnu/9/../../../../include/c++/9/chrono:277:4
	xorl	%eax, %eax
	retq
.Ltmp145:
.Lfunc_end16:
	.size	_ZNSt6chrono15duration_valuesIlE4zeroEv, .Lfunc_end16-_ZNSt6chrono15duration_valuesIlE4zeroEv
	.cfi_endproc
                                        # -- End function
	.section	.text._ZStorSt13_Ios_OpenmodeS_,"axG",@progbits,_ZStorSt13_Ios_OpenmodeS_,comdat
	.weak	_ZStorSt13_Ios_OpenmodeS_ # -- Begin function _ZStorSt13_Ios_OpenmodeS_
	.p2align	4, 0x90
	.type	_ZStorSt13_Ios_OpenmodeS_,@function
_ZStorSt13_Ios_OpenmodeS_:              # @_ZStorSt13_Ios_OpenmodeS_
.Lfunc_begin17:
	.loc	2 130 0                 # /usr/lib/gcc/x86_64-linux-gnu/9/../../../../include/c++/9/bits/ios_base.h:130:0
	.cfi_startproc
# %bb.0:
	#DEBUG_VALUE: operator|:__a <- %edi
	#DEBUG_VALUE: operator|:__a <- %edi
	#DEBUG_VALUE: operator|:__b <- %esi
	#DEBUG_VALUE: operator|:__b <- %esi
	.loc	2 130 48 prologue_end   # /usr/lib/gcc/x86_64-linux-gnu/9/../../../../include/c++/9/bits/ios_base.h:130:48
	orl	%esi, %edi
.Ltmp146:
	.loc	2 130 5 is_stmt 0       # /usr/lib/gcc/x86_64-linux-gnu/9/../../../../include/c++/9/bits/ios_base.h:130:5
	movl	%edi, %eax
	retq
.Ltmp147:
.Lfunc_end17:
	.size	_ZStorSt13_Ios_OpenmodeS_, .Lfunc_end17-_ZStorSt13_Ios_OpenmodeS_
	.cfi_endproc
                                        # -- End function
	.section	.text._ZStorSt12_Ios_IostateS_,"axG",@progbits,_ZStorSt12_Ios_IostateS_,comdat
	.weak	_ZStorSt12_Ios_IostateS_ # -- Begin function _ZStorSt12_Ios_IostateS_
	.p2align	4, 0x90
	.type	_ZStorSt12_Ios_IostateS_,@function
_ZStorSt12_Ios_IostateS_:               # @_ZStorSt12_Ios_IostateS_
.Lfunc_begin18:
	.loc	2 170 0 is_stmt 1       # /usr/lib/gcc/x86_64-linux-gnu/9/../../../../include/c++/9/bits/ios_base.h:170:0
	.cfi_startproc
# %bb.0:
	#DEBUG_VALUE: operator|:__a <- %edi
	#DEBUG_VALUE: operator|:__a <- %edi
	#DEBUG_VALUE: operator|:__b <- %esi
	#DEBUG_VALUE: operator|:__b <- %esi
	.loc	2 170 47 prologue_end   # /usr/lib/gcc/x86_64-linux-gnu/9/../../../../include/c++/9/bits/ios_base.h:170:47
	orl	%esi, %edi
.Ltmp148:
	.loc	2 170 5 is_stmt 0       # /usr/lib/gcc/x86_64-linux-gnu/9/../../../../include/c++/9/bits/ios_base.h:170:5
	movl	%edi, %eax
	retq
.Ltmp149:
.Lfunc_end18:
	.size	_ZStorSt12_Ios_IostateS_, .Lfunc_end18-_ZStorSt12_Ios_IostateS_
	.cfi_endproc
                                        # -- End function
	.section	.text._ZN9__gnu_cxx13new_allocatorIcED2Ev,"axG",@progbits,_ZN9__gnu_cxx13new_allocatorIcED2Ev,comdat
	.weak	_ZN9__gnu_cxx13new_allocatorIcED2Ev # -- Begin function _ZN9__gnu_cxx13new_allocatorIcED2Ev
	.p2align	4, 0x90
	.type	_ZN9__gnu_cxx13new_allocatorIcED2Ev,@function
_ZN9__gnu_cxx13new_allocatorIcED2Ev:    # @_ZN9__gnu_cxx13new_allocatorIcED2Ev
.Lfunc_begin19:
	.loc	27 89 0 is_stmt 1       # /usr/lib/gcc/x86_64-linux-gnu/9/../../../../include/c++/9/ext/new_allocator.h:89:0
	.cfi_startproc
# %bb.0:
	#DEBUG_VALUE: ~new_allocator:this <- %rdi
	.loc	27 89 48 prologue_end   # /usr/lib/gcc/x86_64-linux-gnu/9/../../../../include/c++/9/ext/new_allocator.h:89:48
	retq
.Ltmp150:
.Lfunc_end19:
	.size	_ZN9__gnu_cxx13new_allocatorIcED2Ev, .Lfunc_end19-_ZN9__gnu_cxx13new_allocatorIcED2Ev
	.cfi_endproc
                                        # -- End function
	.section	.text.__clang_call_terminate,"axG",@progbits,__clang_call_terminate,comdat
	.hidden	__clang_call_terminate  # -- Begin function __clang_call_terminate
	.weak	__clang_call_terminate
	.p2align	4, 0x90
	.type	__clang_call_terminate,@function
__clang_call_terminate:                 # @__clang_call_terminate
.Lfunc_begin20:
	.cfi_startproc
# %bb.0:
	pushq	%rax
	.cfi_def_cfa_offset 16
	callq	__cxa_begin_catch
	callq	_ZSt9terminatev
.Lfunc_end20:
	.size	__clang_call_terminate, .Lfunc_end20-__clang_call_terminate
	.cfi_endproc
                                        # -- End function
	.section	.text._ZNSt16allocator_traitsISaIcEE10deallocateERS0_Pcm,"axG",@progbits,_ZNSt16allocator_traitsISaIcEE10deallocateERS0_Pcm,comdat
	.weak	_ZNSt16allocator_traitsISaIcEE10deallocateERS0_Pcm # -- Begin function _ZNSt16allocator_traitsISaIcEE10deallocateERS0_Pcm
	.p2align	4, 0x90
	.type	_ZNSt16allocator_traitsISaIcEE10deallocateERS0_Pcm,@function
_ZNSt16allocator_traitsISaIcEE10deallocateERS0_Pcm: # @_ZNSt16allocator_traitsISaIcEE10deallocateERS0_Pcm
.Lfunc_begin21:
	.loc	16 470 0                # /usr/lib/gcc/x86_64-linux-gnu/9/../../../../include/c++/9/bits/alloc_traits.h:470:0
	.cfi_startproc
# %bb.0:
	#DEBUG_VALUE: deallocate:__a <- %rdi
	#DEBUG_VALUE: deallocate:__a <- %rdi
	#DEBUG_VALUE: deallocate:__a <- %rdi
	#DEBUG_VALUE: deallocate:__p <- %rsi
	#DEBUG_VALUE: deallocate:__p <- %rsi
	#DEBUG_VALUE: deallocate:__p <- %rsi
	#DEBUG_VALUE: deallocate:__n <- %rdx
	#DEBUG_VALUE: deallocate:__n <- %rdx
	#DEBUG_VALUE: deallocate:__n <- %rdx
	.loc	16 470 13 prologue_end  # /usr/lib/gcc/x86_64-linux-gnu/9/../../../../include/c++/9/bits/alloc_traits.h:470:13
	jmp	_ZN9__gnu_cxx13new_allocatorIcE10deallocateEPcm # TAILCALL
.Ltmp151:
.Lfunc_end21:
	.size	_ZNSt16allocator_traitsISaIcEE10deallocateERS0_Pcm, .Lfunc_end21-_ZNSt16allocator_traitsISaIcEE10deallocateERS0_Pcm
	.cfi_endproc
                                        # -- End function
	.section	.text._ZN9__gnu_cxx13new_allocatorIcE10deallocateEPcm,"axG",@progbits,_ZN9__gnu_cxx13new_allocatorIcE10deallocateEPcm,comdat
	.weak	_ZN9__gnu_cxx13new_allocatorIcE10deallocateEPcm # -- Begin function _ZN9__gnu_cxx13new_allocatorIcE10deallocateEPcm
	.p2align	4, 0x90
	.type	_ZN9__gnu_cxx13new_allocatorIcE10deallocateEPcm,@function
_ZN9__gnu_cxx13new_allocatorIcE10deallocateEPcm: # @_ZN9__gnu_cxx13new_allocatorIcE10deallocateEPcm
.Lfunc_begin22:
	.loc	27 120 0                # /usr/lib/gcc/x86_64-linux-gnu/9/../../../../include/c++/9/ext/new_allocator.h:120:0
	.cfi_startproc
# %bb.0:
	#DEBUG_VALUE: deallocate:this <- %rdi
	#DEBUG_VALUE: deallocate:__p <- %rsi
	#DEBUG_VALUE: deallocate:__p <- %rsi
	#DEBUG_VALUE: deallocate: <- %rdx
	.loc	27 128 2 prologue_end   # /usr/lib/gcc/x86_64-linux-gnu/9/../../../../include/c++/9/ext/new_allocator.h:128:2
	movq	%rsi, %rdi
.Ltmp152:
	#DEBUG_VALUE: deallocate:__p <- %rdi
	jmp	_ZdlPv                  # TAILCALL
.Ltmp153:
.Lfunc_end22:
	.size	_ZN9__gnu_cxx13new_allocatorIcE10deallocateEPcm, .Lfunc_end22-_ZN9__gnu_cxx13new_allocatorIcE10deallocateEPcm
	.cfi_endproc
                                        # -- End function
	.section	.text._ZNSt14pointer_traitsIPKcE10pointer_toERS0_,"axG",@progbits,_ZNSt14pointer_traitsIPKcE10pointer_toERS0_,comdat
	.weak	_ZNSt14pointer_traitsIPKcE10pointer_toERS0_ # -- Begin function _ZNSt14pointer_traitsIPKcE10pointer_toERS0_
	.p2align	4, 0x90
	.type	_ZNSt14pointer_traitsIPKcE10pointer_toERS0_,@function
_ZNSt14pointer_traitsIPKcE10pointer_toERS0_: # @_ZNSt14pointer_traitsIPKcE10pointer_toERS0_
.Lfunc_begin23:
	.file	59 "/usr/lib/gcc/x86_64-linux-gnu/9/../../../../include/c++/9/bits/ptr_traits.h"
	.loc	59 147 0                # /usr/lib/gcc/x86_64-linux-gnu/9/../../../../include/c++/9/bits/ptr_traits.h:147:0
	.cfi_startproc
# %bb.0:
	#DEBUG_VALUE: pointer_to:__r <- %rdi
	#DEBUG_VALUE: pointer_to:__r <- %rdi
	#DEBUG_VALUE: pointer_to:__r <- %rdi
	.loc	59 147 16 prologue_end  # /usr/lib/gcc/x86_64-linux-gnu/9/../../../../include/c++/9/bits/ptr_traits.h:147:16
	jmp	_ZSt9addressofIKcEPT_RS1_ # TAILCALL
.Ltmp154:
.Lfunc_end23:
	.size	_ZNSt14pointer_traitsIPKcE10pointer_toERS0_, .Lfunc_end23-_ZNSt14pointer_traitsIPKcE10pointer_toERS0_
	.cfi_endproc
                                        # -- End function
	.section	.text._ZSt9addressofIKcEPT_RS1_,"axG",@progbits,_ZSt9addressofIKcEPT_RS1_,comdat
	.weak	_ZSt9addressofIKcEPT_RS1_ # -- Begin function _ZSt9addressofIKcEPT_RS1_
	.p2align	4, 0x90
	.type	_ZSt9addressofIKcEPT_RS1_,@function
_ZSt9addressofIKcEPT_RS1_:              # @_ZSt9addressofIKcEPT_RS1_
.Lfunc_begin24:
	.file	60 "/usr/lib/gcc/x86_64-linux-gnu/9/../../../../include/c++/9/bits/move.h"
	.loc	60 139 0                # /usr/lib/gcc/x86_64-linux-gnu/9/../../../../include/c++/9/bits/move.h:139:0
	.cfi_startproc
# %bb.0:
	#DEBUG_VALUE: addressof<const char>:__r <- %rdi
	#DEBUG_VALUE: addressof<const char>:__r <- %rdi
	#DEBUG_VALUE: addressof<const char>:__r <- %rdi
	.loc	60 139 14 prologue_end  # /usr/lib/gcc/x86_64-linux-gnu/9/../../../../include/c++/9/bits/move.h:139:14
	jmp	_ZSt11__addressofIKcEPT_RS1_ # TAILCALL
.Ltmp155:
.Lfunc_end24:
	.size	_ZSt9addressofIKcEPT_RS1_, .Lfunc_end24-_ZSt9addressofIKcEPT_RS1_
	.cfi_endproc
                                        # -- End function
	.section	.text._ZSt11__addressofIKcEPT_RS1_,"axG",@progbits,_ZSt11__addressofIKcEPT_RS1_,comdat
	.weak	_ZSt11__addressofIKcEPT_RS1_ # -- Begin function _ZSt11__addressofIKcEPT_RS1_
	.p2align	4, 0x90
	.type	_ZSt11__addressofIKcEPT_RS1_,@function
_ZSt11__addressofIKcEPT_RS1_:           # @_ZSt11__addressofIKcEPT_RS1_
.Lfunc_begin25:
	.loc	60 48 0                 # /usr/lib/gcc/x86_64-linux-gnu/9/../../../../include/c++/9/bits/move.h:48:0
	.cfi_startproc
# %bb.0:
	#DEBUG_VALUE: __addressof<const char>:__r <- %rdi
	#DEBUG_VALUE: __addressof<const char>:__r <- %rdi
	.loc	60 48 7 prologue_end    # /usr/lib/gcc/x86_64-linux-gnu/9/../../../../include/c++/9/bits/move.h:48:7
	movq	%rdi, %rax
.Ltmp156:
	#DEBUG_VALUE: __addressof<const char>:__r <- %rax
	retq
.Ltmp157:
.Lfunc_end25:
	.size	_ZSt11__addressofIKcEPT_RS1_, .Lfunc_end25-_ZSt11__addressofIKcEPT_RS1_
	.cfi_endproc
                                        # -- End function
	.section	.text._ZNSt11char_traitsIcE6lengthEPKc,"axG",@progbits,_ZNSt11char_traitsIcE6lengthEPKc,comdat
	.weak	_ZNSt11char_traitsIcE6lengthEPKc # -- Begin function _ZNSt11char_traitsIcE6lengthEPKc
	.p2align	4, 0x90
	.type	_ZNSt11char_traitsIcE6lengthEPKc,@function
_ZNSt11char_traitsIcE6lengthEPKc:       # @_ZNSt11char_traitsIcE6lengthEPKc
.Lfunc_begin26:
	.loc	18 330 0                # /usr/lib/gcc/x86_64-linux-gnu/9/../../../../include/c++/9/bits/char_traits.h:330:0
	.cfi_startproc
# %bb.0:
	#DEBUG_VALUE: length:__s <- %rdi
	#DEBUG_VALUE: length:__s <- %rdi
	#DEBUG_VALUE: length:__s <- %rdi
	.loc	18 335 9 prologue_end   # /usr/lib/gcc/x86_64-linux-gnu/9/../../../../include/c++/9/bits/char_traits.h:335:9
	jmp	strlen                  # TAILCALL
.Ltmp158:
.Lfunc_end26:
	.size	_ZNSt11char_traitsIcE6lengthEPKc, .Lfunc_end26-_ZNSt11char_traitsIcE6lengthEPKc
	.cfi_endproc
                                        # -- End function
	.section	.text._ZNSt7__cxx1112basic_stringIcSt11char_traitsIcESaIcEE12_M_constructIPKcEEvT_S8_,"axG",@progbits,_ZNSt7__cxx1112basic_stringIcSt11char_traitsIcESaIcEE12_M_constructIPKcEEvT_S8_,comdat
	.weak	_ZNSt7__cxx1112basic_stringIcSt11char_traitsIcESaIcEE12_M_constructIPKcEEvT_S8_ # -- Begin function _ZNSt7__cxx1112basic_stringIcSt11char_traitsIcESaIcEE12_M_constructIPKcEEvT_S8_
	.p2align	4, 0x90
	.type	_ZNSt7__cxx1112basic_stringIcSt11char_traitsIcESaIcEE12_M_constructIPKcEEvT_S8_,@function
_ZNSt7__cxx1112basic_stringIcSt11char_traitsIcESaIcEE12_M_constructIPKcEEvT_S8_: # @_ZNSt7__cxx1112basic_stringIcSt11char_traitsIcESaIcEE12_M_constructIPKcEEvT_S8_
.Lfunc_begin27:
	.loc	8 264 0                 # /usr/lib/gcc/x86_64-linux-gnu/9/../../../../include/c++/9/bits/basic_string.h:264:0
	.cfi_startproc
# %bb.0:
	#DEBUG_VALUE: _M_construct<const char *>:this <- %rdi
	#DEBUG_VALUE: _M_construct<const char *>:this <- %rdi
	#DEBUG_VALUE: _M_construct<const char *>:this <- %rdi
	#DEBUG_VALUE: _M_construct<const char *>:__beg <- %rsi
	#DEBUG_VALUE: _M_construct<const char *>:__beg <- %rsi
	#DEBUG_VALUE: _M_construct<const char *>:__beg <- %rsi
	#DEBUG_VALUE: _M_construct<const char *>:__end <- %rdx
	#DEBUG_VALUE: _M_construct<const char *>:__end <- %rdx
	#DEBUG_VALUE: _M_construct<const char *>:__end <- %rdx
	.loc	8 266 4 prologue_end    # /usr/lib/gcc/x86_64-linux-gnu/9/../../../../include/c++/9/bits/basic_string.h:266:4
	jmp	_ZNSt7__cxx1112basic_stringIcSt11char_traitsIcESaIcEE16_M_construct_auxIPKcEEvT_S8_St12__false_type # TAILCALL
.Ltmp159:
.Lfunc_end27:
	.size	_ZNSt7__cxx1112basic_stringIcSt11char_traitsIcESaIcEE12_M_constructIPKcEEvT_S8_, .Lfunc_end27-_ZNSt7__cxx1112basic_stringIcSt11char_traitsIcESaIcEE12_M_constructIPKcEEvT_S8_
	.cfi_endproc
                                        # -- End function
	.section	.text._ZNSt7__cxx1112basic_stringIcSt11char_traitsIcESaIcEE16_M_construct_auxIPKcEEvT_S8_St12__false_type,"axG",@progbits,_ZNSt7__cxx1112basic_stringIcSt11char_traitsIcESaIcEE16_M_construct_auxIPKcEEvT_S8_St12__false_type,comdat
	.weak	_ZNSt7__cxx1112basic_stringIcSt11char_traitsIcESaIcEE16_M_construct_auxIPKcEEvT_S8_St12__false_type # -- Begin function _ZNSt7__cxx1112basic_stringIcSt11char_traitsIcESaIcEE16_M_construct_auxIPKcEEvT_S8_St12__false_type
	.p2align	4, 0x90
	.type	_ZNSt7__cxx1112basic_stringIcSt11char_traitsIcESaIcEE16_M_construct_auxIPKcEEvT_S8_St12__false_type,@function
_ZNSt7__cxx1112basic_stringIcSt11char_traitsIcESaIcEE16_M_construct_auxIPKcEEvT_S8_St12__false_type: # @_ZNSt7__cxx1112basic_stringIcSt11char_traitsIcESaIcEE16_M_construct_auxIPKcEEvT_S8_St12__false_type
.Lfunc_begin28:
	.loc	8 245 0                 # /usr/lib/gcc/x86_64-linux-gnu/9/../../../../include/c++/9/bits/basic_string.h:245:0
	.cfi_startproc
# %bb.0:
	#DEBUG_VALUE: _M_construct_aux<const char *>:this <- %rdi
	#DEBUG_VALUE: _M_construct_aux<const char *>:this <- %rdi
	#DEBUG_VALUE: _M_construct_aux<const char *>:this <- %rdi
	#DEBUG_VALUE: _M_construct_aux<const char *>:__beg <- %rsi
	#DEBUG_VALUE: _M_construct_aux<const char *>:__beg <- %rsi
	#DEBUG_VALUE: _M_construct_aux<const char *>:__beg <- %rsi
	#DEBUG_VALUE: _M_construct_aux<const char *>:__end <- %rdx
	#DEBUG_VALUE: _M_construct_aux<const char *>:__end <- %rdx
	#DEBUG_VALUE: _M_construct_aux<const char *>:__end <- %rdx
	.loc	8 247 11 prologue_end   # /usr/lib/gcc/x86_64-linux-gnu/9/../../../../include/c++/9/bits/basic_string.h:247:11
	jmp	_ZNSt7__cxx1112basic_stringIcSt11char_traitsIcESaIcEE12_M_constructIPKcEEvT_S8_St20forward_iterator_tag # TAILCALL
.Ltmp160:
.Lfunc_end28:
	.size	_ZNSt7__cxx1112basic_stringIcSt11char_traitsIcESaIcEE16_M_construct_auxIPKcEEvT_S8_St12__false_type, .Lfunc_end28-_ZNSt7__cxx1112basic_stringIcSt11char_traitsIcESaIcEE16_M_construct_auxIPKcEEvT_S8_St12__false_type
	.cfi_endproc
	.file	61 "/usr/lib/gcc/x86_64-linux-gnu/9/../../../../include/c++/9/bits/cpp_type_traits.h"
                                        # -- End function
	.section	.text._ZNSt7__cxx1112basic_stringIcSt11char_traitsIcESaIcEE12_M_constructIPKcEEvT_S8_St20forward_iterator_tag,"axG",@progbits,_ZNSt7__cxx1112basic_stringIcSt11char_traitsIcESaIcEE12_M_constructIPKcEEvT_S8_St20forward_iterator_tag,comdat
	.weak	_ZNSt7__cxx1112basic_stringIcSt11char_traitsIcESaIcEE12_M_constructIPKcEEvT_S8_St20forward_iterator_tag # -- Begin function _ZNSt7__cxx1112basic_stringIcSt11char_traitsIcESaIcEE12_M_constructIPKcEEvT_S8_St20forward_iterator_tag
	.p2align	4, 0x90
	.type	_ZNSt7__cxx1112basic_stringIcSt11char_traitsIcESaIcEE12_M_constructIPKcEEvT_S8_St20forward_iterator_tag,@function
_ZNSt7__cxx1112basic_stringIcSt11char_traitsIcESaIcEE12_M_constructIPKcEEvT_S8_St20forward_iterator_tag: # @_ZNSt7__cxx1112basic_stringIcSt11char_traitsIcESaIcEE12_M_constructIPKcEEvT_S8_St20forward_iterator_tag
.Lfunc_begin29:
	.file	62 "/usr/lib/gcc/x86_64-linux-gnu/9/../../../../include/c++/9/bits/basic_string.tcc"
	.loc	62 209 0                # /usr/lib/gcc/x86_64-linux-gnu/9/../../../../include/c++/9/bits/basic_string.tcc:209:0
	.cfi_startproc
# %bb.0:
	pushq	%r15
	.cfi_def_cfa_offset 16
	pushq	%r14
	.cfi_def_cfa_offset 24
	pushq	%rbx
	.cfi_def_cfa_offset 32
	subq	$16, %rsp
	.cfi_def_cfa_offset 48
	.cfi_offset %rbx, -32
	.cfi_offset %r14, -24
	.cfi_offset %r15, -16
	#DEBUG_VALUE: _M_construct<const char *>:this <- %rdi
	#DEBUG_VALUE: _M_construct<const char *>:__beg <- %rsi
	#DEBUG_VALUE: _M_construct<const char *>:__end <- %rdx
	movq	%rdx, %r14
	movq	%rsi, %rbx
	movq	%rdi, %r15
.Ltmp161:
	#DEBUG_VALUE: _M_construct<const char *>:__end <- %r14
	#DEBUG_VALUE: _M_construct<const char *>:__beg <- %rbx
	#DEBUG_VALUE: _M_construct<const char *>:this <- %r15
	.loc	62 211 6 prologue_end   # /usr/lib/gcc/x86_64-linux-gnu/9/../../../../include/c++/9/bits/basic_string.tcc:211:6
	movq	%rbx, %rdi
	callq	_ZN9__gnu_cxx17__is_null_pointerIKcEEbPT_
	.loc	62 211 51 is_stmt 0     # /usr/lib/gcc/x86_64-linux-gnu/9/../../../../include/c++/9/bits/basic_string.tcc:211:51
	cmpq	%r14, %rbx
	.loc	62 211 42               # /usr/lib/gcc/x86_64-linux-gnu/9/../../../../include/c++/9/bits/basic_string.tcc:211:42
	je	.LBB29_2
.Ltmp162:
# %bb.1:
	#DEBUG_VALUE: _M_construct<const char *>:this <- %r15
	#DEBUG_VALUE: _M_construct<const char *>:__beg <- %rbx
	#DEBUG_VALUE: _M_construct<const char *>:__end <- %r14
	testb	%al, %al
	jne	.LBB29_5
.Ltmp163:
.LBB29_2:
	#DEBUG_VALUE: _M_construct<const char *>:this <- %r15
	#DEBUG_VALUE: _M_construct<const char *>:__beg <- %rbx
	#DEBUG_VALUE: _M_construct<const char *>:__end <- %r14
	.loc	62 215 44 is_stmt 1     # /usr/lib/gcc/x86_64-linux-gnu/9/../../../../include/c++/9/bits/basic_string.tcc:215:44
	movq	%rbx, %rdi
	movq	%r14, %rsi
	callq	_ZSt8distanceIPKcENSt15iterator_traitsIT_E15difference_typeES3_S3_
.Ltmp164:
	#DEBUG_VALUE: _M_construct<const char *>:__dnew <- %rax
	.loc	62 215 12 is_stmt 0     # /usr/lib/gcc/x86_64-linux-gnu/9/../../../../include/c++/9/bits/basic_string.tcc:215:12
	movq	%rax, 8(%rsp)
.Ltmp165:
	.loc	62 217 13 is_stmt 1     # /usr/lib/gcc/x86_64-linux-gnu/9/../../../../include/c++/9/bits/basic_string.tcc:217:13
	cmpq	$16, %rax
.Ltmp166:
	.loc	62 217 6 is_stmt 0      # /usr/lib/gcc/x86_64-linux-gnu/9/../../../../include/c++/9/bits/basic_string.tcc:217:6
	jb	.LBB29_4
.Ltmp167:
# %bb.3:
	#DEBUG_VALUE: _M_construct<const char *>:__dnew <- %rax
	#DEBUG_VALUE: _M_construct<const char *>:this <- %r15
	#DEBUG_VALUE: _M_construct<const char *>:__beg <- %rbx
	#DEBUG_VALUE: _M_construct<const char *>:__end <- %r14
	.loc	62 0 6                  # /usr/lib/gcc/x86_64-linux-gnu/9/../../../../include/c++/9/bits/basic_string.tcc:0:6
	leaq	8(%rsp), %rsi
.Ltmp168:
	#DEBUG_VALUE: _M_construct<const char *>:__dnew <- [DW_OP_plus_uconst 8] [%rsp+0]
	.loc	62 219 14 is_stmt 1     # /usr/lib/gcc/x86_64-linux-gnu/9/../../../../include/c++/9/bits/basic_string.tcc:219:14
	xorl	%edx, %edx
	movq	%r15, %rdi
	callq	_ZNSt7__cxx1112basic_stringIcSt11char_traitsIcESaIcEE9_M_createERmm
	.loc	62 219 6 is_stmt 0      # /usr/lib/gcc/x86_64-linux-gnu/9/../../../../include/c++/9/bits/basic_string.tcc:219:6
	movq	%r15, %rdi
	movq	%rax, %rsi
	callq	_ZNSt7__cxx1112basic_stringIcSt11char_traitsIcESaIcEE7_M_dataEPc
	.loc	62 220 18 is_stmt 1     # /usr/lib/gcc/x86_64-linux-gnu/9/../../../../include/c++/9/bits/basic_string.tcc:220:18
	movq	8(%rsp), %rsi
.Ltmp169:
	#DEBUG_VALUE: _M_construct<const char *>:__dnew <- %rsi
	.loc	62 220 6 is_stmt 0      # /usr/lib/gcc/x86_64-linux-gnu/9/../../../../include/c++/9/bits/basic_string.tcc:220:6
	movq	%r15, %rdi
	callq	_ZNSt7__cxx1112basic_stringIcSt11char_traitsIcESaIcEE11_M_capacityEm
.Ltmp170:
.LBB29_4:
	#DEBUG_VALUE: _M_construct<const char *>:this <- %r15
	#DEBUG_VALUE: _M_construct<const char *>:__beg <- %rbx
	#DEBUG_VALUE: _M_construct<const char *>:__end <- %r14
	.loc	62 225 26 is_stmt 1     # /usr/lib/gcc/x86_64-linux-gnu/9/../../../../include/c++/9/bits/basic_string.tcc:225:26
	movq	%r15, %rdi
	callq	_ZNKSt7__cxx1112basic_stringIcSt11char_traitsIcESaIcEE7_M_dataEv
	.loc	62 225 6 is_stmt 0      # /usr/lib/gcc/x86_64-linux-gnu/9/../../../../include/c++/9/bits/basic_string.tcc:225:6
	movq	%rax, %rdi
	movq	%rbx, %rsi
	movq	%r14, %rdx
	callq	_ZNSt7__cxx1112basic_stringIcSt11char_traitsIcESaIcEE13_S_copy_charsEPcPKcS7_
.Ltmp171:
	.loc	62 232 16 is_stmt 1     # /usr/lib/gcc/x86_64-linux-gnu/9/../../../../include/c++/9/bits/basic_string.tcc:232:16
	movq	8(%rsp), %rsi
.Ltmp172:
	#DEBUG_VALUE: _M_construct<const char *>:__dnew <- %rsi
	.loc	62 232 2 is_stmt 0      # /usr/lib/gcc/x86_64-linux-gnu/9/../../../../include/c++/9/bits/basic_string.tcc:232:2
	movq	%r15, %rdi
	callq	_ZNSt7__cxx1112basic_stringIcSt11char_traitsIcESaIcEE13_M_set_lengthEm
.Ltmp173:
	.loc	62 233 7 is_stmt 1      # /usr/lib/gcc/x86_64-linux-gnu/9/../../../../include/c++/9/bits/basic_string.tcc:233:7
	addq	$16, %rsp
	popq	%rbx
.Ltmp174:
	popq	%r14
.Ltmp175:
	popq	%r15
.Ltmp176:
	retq
.LBB29_5:
.Ltmp177:
	#DEBUG_VALUE: _M_construct<const char *>:this <- %r15
	#DEBUG_VALUE: _M_construct<const char *>:__beg <- %rbx
	#DEBUG_VALUE: _M_construct<const char *>:__end <- %r14
	.loc	62 212 4                # /usr/lib/gcc/x86_64-linux-gnu/9/../../../../include/c++/9/bits/basic_string.tcc:212:4
	movl	$.L.str.7, %edi
	callq	_ZSt19__throw_logic_errorPKc
.Ltmp178:
.Lfunc_end29:
	.size	_ZNSt7__cxx1112basic_stringIcSt11char_traitsIcESaIcEE12_M_constructIPKcEEvT_S8_St20forward_iterator_tag, .Lfunc_end29-_ZNSt7__cxx1112basic_stringIcSt11char_traitsIcESaIcEE12_M_constructIPKcEEvT_S8_St20forward_iterator_tag
	.cfi_endproc
	.file	63 "/usr/lib/gcc/x86_64-linux-gnu/9/../../../../include/c++/9/bits/stl_iterator_base_types.h"
                                        # -- End function
	.section	.text._ZN9__gnu_cxx17__is_null_pointerIKcEEbPT_,"axG",@progbits,_ZN9__gnu_cxx17__is_null_pointerIKcEEbPT_,comdat
	.weak	_ZN9__gnu_cxx17__is_null_pointerIKcEEbPT_ # -- Begin function _ZN9__gnu_cxx17__is_null_pointerIKcEEbPT_
	.p2align	4, 0x90
	.type	_ZN9__gnu_cxx17__is_null_pointerIKcEEbPT_,@function
_ZN9__gnu_cxx17__is_null_pointerIKcEEbPT_: # @_ZN9__gnu_cxx17__is_null_pointerIKcEEbPT_
.Lfunc_begin30:
	.file	64 "/usr/lib/gcc/x86_64-linux-gnu/9/../../../../include/c++/9/ext/type_traits.h"
	.loc	64 153 0                # /usr/lib/gcc/x86_64-linux-gnu/9/../../../../include/c++/9/ext/type_traits.h:153:0
	.cfi_startproc
# %bb.0:
	#DEBUG_VALUE: __is_null_pointer<const char>:__ptr <- %rdi
	#DEBUG_VALUE: __is_null_pointer<const char>:__ptr <- %rdi
	.loc	64 153 20 prologue_end  # /usr/lib/gcc/x86_64-linux-gnu/9/../../../../include/c++/9/ext/type_traits.h:153:20
	testq	%rdi, %rdi
	sete	%al
	.loc	64 153 7 is_stmt 0      # /usr/lib/gcc/x86_64-linux-gnu/9/../../../../include/c++/9/ext/type_traits.h:153:7
	retq
.Ltmp179:
.Lfunc_end30:
	.size	_ZN9__gnu_cxx17__is_null_pointerIKcEEbPT_, .Lfunc_end30-_ZN9__gnu_cxx17__is_null_pointerIKcEEbPT_
	.cfi_endproc
                                        # -- End function
	.section	.text._ZSt8distanceIPKcENSt15iterator_traitsIT_E15difference_typeES3_S3_,"axG",@progbits,_ZSt8distanceIPKcENSt15iterator_traitsIT_E15difference_typeES3_S3_,comdat
	.weak	_ZSt8distanceIPKcENSt15iterator_traitsIT_E15difference_typeES3_S3_ # -- Begin function _ZSt8distanceIPKcENSt15iterator_traitsIT_E15difference_typeES3_S3_
	.p2align	4, 0x90
	.type	_ZSt8distanceIPKcENSt15iterator_traitsIT_E15difference_typeES3_S3_,@function
_ZSt8distanceIPKcENSt15iterator_traitsIT_E15difference_typeES3_S3_: # @_ZSt8distanceIPKcENSt15iterator_traitsIT_E15difference_typeES3_S3_
.Lfunc_begin31:
	.file	65 "/usr/lib/gcc/x86_64-linux-gnu/9/../../../../include/c++/9/bits/stl_iterator_base_funcs.h"
	.loc	65 139 0 is_stmt 1      # /usr/lib/gcc/x86_64-linux-gnu/9/../../../../include/c++/9/bits/stl_iterator_base_funcs.h:139:0
	.cfi_startproc
# %bb.0:
	pushq	%r14
	.cfi_def_cfa_offset 16
	pushq	%rbx
	.cfi_def_cfa_offset 24
	pushq	%rax
	.cfi_def_cfa_offset 32
	.cfi_offset %rbx, -24
	.cfi_offset %r14, -16
	#DEBUG_VALUE: distance<const char *>:__first <- %rdi
	#DEBUG_VALUE: distance<const char *>:__last <- %rsi
	movq	%rsi, %r14
	movq	%rdi, %rbx
	movq	%rbx, (%rsp)
.Ltmp180:
	#DEBUG_VALUE: distance<const char *>:__last <- %r14
	#DEBUG_VALUE: distance<const char *>:__first <- %rbx
	movq	%rsp, %rdi
.Ltmp181:
	#DEBUG_VALUE: distance<const char *>:__first <- [%rsp+0]
	.loc	65 142 9 prologue_end   # /usr/lib/gcc/x86_64-linux-gnu/9/../../../../include/c++/9/bits/stl_iterator_base_funcs.h:142:9
	callq	_ZSt19__iterator_categoryIPKcENSt15iterator_traitsIT_E17iterator_categoryERKS3_
	.loc	65 141 14               # /usr/lib/gcc/x86_64-linux-gnu/9/../../../../include/c++/9/bits/stl_iterator_base_funcs.h:141:14
	movq	%rbx, %rdi
	movq	%r14, %rsi
.Ltmp182:
	#DEBUG_VALUE: distance<const char *>:__last <- %rsi
	callq	_ZSt10__distanceIPKcENSt15iterator_traitsIT_E15difference_typeES3_S3_St26random_access_iterator_tag
.Ltmp183:
	.loc	65 141 7 is_stmt 0      # /usr/lib/gcc/x86_64-linux-gnu/9/../../../../include/c++/9/bits/stl_iterator_base_funcs.h:141:7
	addq	$8, %rsp
.Ltmp184:
	popq	%rbx
	popq	%r14
	retq
.Ltmp185:
.Lfunc_end31:
	.size	_ZSt8distanceIPKcENSt15iterator_traitsIT_E15difference_typeES3_S3_, .Lfunc_end31-_ZSt8distanceIPKcENSt15iterator_traitsIT_E15difference_typeES3_S3_
	.cfi_endproc
                                        # -- End function
	.section	.text._ZNSt11char_traitsIcE6assignERcRKc,"axG",@progbits,_ZNSt11char_traitsIcE6assignERcRKc,comdat
	.weak	_ZNSt11char_traitsIcE6assignERcRKc # -- Begin function _ZNSt11char_traitsIcE6assignERcRKc
	.p2align	4, 0x90
	.type	_ZNSt11char_traitsIcE6assignERcRKc,@function
_ZNSt11char_traitsIcE6assignERcRKc:     # @_ZNSt11char_traitsIcE6assignERcRKc
.Lfunc_begin32:
	.loc	18 300 0 is_stmt 1      # /usr/lib/gcc/x86_64-linux-gnu/9/../../../../include/c++/9/bits/char_traits.h:300:0
	.cfi_startproc
# %bb.0:
	#DEBUG_VALUE: assign:__c1 <- %rdi
	#DEBUG_VALUE: assign:__c1 <- %rdi
	#DEBUG_VALUE: assign:__c2 <- %rsi
	#DEBUG_VALUE: assign:__c2 <- %rsi
	.loc	18 300 16 prologue_end  # /usr/lib/gcc/x86_64-linux-gnu/9/../../../../include/c++/9/bits/char_traits.h:300:16
	movb	(%rsi), %al
	.loc	18 300 14 is_stmt 0     # /usr/lib/gcc/x86_64-linux-gnu/9/../../../../include/c++/9/bits/char_traits.h:300:14
	movb	%al, (%rdi)
	.loc	18 300 22               # /usr/lib/gcc/x86_64-linux-gnu/9/../../../../include/c++/9/bits/char_traits.h:300:22
	retq
.Ltmp186:
.Lfunc_end32:
	.size	_ZNSt11char_traitsIcE6assignERcRKc, .Lfunc_end32-_ZNSt11char_traitsIcE6assignERcRKc
	.cfi_endproc
                                        # -- End function
	.section	.text._ZNSt11char_traitsIcE4copyEPcPKcm,"axG",@progbits,_ZNSt11char_traitsIcE4copyEPcPKcm,comdat
	.weak	_ZNSt11char_traitsIcE4copyEPcPKcm # -- Begin function _ZNSt11char_traitsIcE4copyEPcPKcm
	.p2align	4, 0x90
	.type	_ZNSt11char_traitsIcE4copyEPcPKcm,@function
_ZNSt11char_traitsIcE4copyEPcPKcm:      # @_ZNSt11char_traitsIcE4copyEPcPKcm
.Lfunc_begin33:
	.loc	18 362 0 is_stmt 1      # /usr/lib/gcc/x86_64-linux-gnu/9/../../../../include/c++/9/bits/char_traits.h:362:0
	.cfi_startproc
# %bb.0:
	pushq	%rbx
	.cfi_def_cfa_offset 16
	.cfi_offset %rbx, -16
	#DEBUG_VALUE: copy:__s1 <- %rdi
	#DEBUG_VALUE: copy:__s2 <- %rsi
	#DEBUG_VALUE: copy:__n <- %rdx
	movq	%rdi, %rbx
	#DEBUG_VALUE: copy:__n <- %rdx
	#DEBUG_VALUE: copy:__s2 <- %rsi
.Ltmp187:
	#DEBUG_VALUE: copy:__s1 <- %rbx
	.loc	18 363 10 prologue_end  # /usr/lib/gcc/x86_64-linux-gnu/9/../../../../include/c++/9/bits/char_traits.h:363:10
	testq	%rdx, %rdx
.Ltmp188:
	.loc	18 363 6 is_stmt 0      # /usr/lib/gcc/x86_64-linux-gnu/9/../../../../include/c++/9/bits/char_traits.h:363:6
	je	.LBB33_2
.Ltmp189:
# %bb.1:
	#DEBUG_VALUE: copy:__s1 <- %rbx
	#DEBUG_VALUE: copy:__n <- %rdx
	#DEBUG_VALUE: copy:__s2 <- %rsi
	.loc	18 365 33 is_stmt 1     # /usr/lib/gcc/x86_64-linux-gnu/9/../../../../include/c++/9/bits/char_traits.h:365:33
	movq	%rbx, %rdi
	callq	memcpy
.Ltmp190:
.LBB33_2:
	#DEBUG_VALUE: copy:__s1 <- %rbx
	.loc	18 366 7                # /usr/lib/gcc/x86_64-linux-gnu/9/../../../../include/c++/9/bits/char_traits.h:366:7
	movq	%rbx, %rax
	popq	%rbx
.Ltmp191:
	retq
.Ltmp192:
.Lfunc_end33:
	.size	_ZNSt11char_traitsIcE4copyEPcPKcm, .Lfunc_end33-_ZNSt11char_traitsIcE4copyEPcPKcm
	.cfi_endproc
                                        # -- End function
	.section	.text._ZSt19__iterator_categoryIPKcENSt15iterator_traitsIT_E17iterator_categoryERKS3_,"axG",@progbits,_ZSt19__iterator_categoryIPKcENSt15iterator_traitsIT_E17iterator_categoryERKS3_,comdat
	.weak	_ZSt19__iterator_categoryIPKcENSt15iterator_traitsIT_E17iterator_categoryERKS3_ # -- Begin function _ZSt19__iterator_categoryIPKcENSt15iterator_traitsIT_E17iterator_categoryERKS3_
	.p2align	4, 0x90
	.type	_ZSt19__iterator_categoryIPKcENSt15iterator_traitsIT_E17iterator_categoryERKS3_,@function
_ZSt19__iterator_categoryIPKcENSt15iterator_traitsIT_E17iterator_categoryERKS3_: # @_ZSt19__iterator_categoryIPKcENSt15iterator_traitsIT_E17iterator_categoryERKS3_
.Lfunc_begin34:
	.loc	63 206 0                # /usr/lib/gcc/x86_64-linux-gnu/9/../../../../include/c++/9/bits/stl_iterator_base_types.h:206:0
	.cfi_startproc
# %bb.0:
	#DEBUG_VALUE: __iterator_category<const char *>: <- %rdi
	.loc	63 206 7 prologue_end   # /usr/lib/gcc/x86_64-linux-gnu/9/../../../../include/c++/9/bits/stl_iterator_base_types.h:206:7
	retq
.Ltmp193:
.Lfunc_end34:
	.size	_ZSt19__iterator_categoryIPKcENSt15iterator_traitsIT_E17iterator_categoryERKS3_, .Lfunc_end34-_ZSt19__iterator_categoryIPKcENSt15iterator_traitsIT_E17iterator_categoryERKS3_
	.cfi_endproc
                                        # -- End function
	.section	.text._ZSt10__distanceIPKcENSt15iterator_traitsIT_E15difference_typeES3_S3_St26random_access_iterator_tag,"axG",@progbits,_ZSt10__distanceIPKcENSt15iterator_traitsIT_E15difference_typeES3_S3_St26random_access_iterator_tag,comdat
	.weak	_ZSt10__distanceIPKcENSt15iterator_traitsIT_E15difference_typeES3_S3_St26random_access_iterator_tag # -- Begin function _ZSt10__distanceIPKcENSt15iterator_traitsIT_E15difference_typeES3_S3_St26random_access_iterator_tag
	.p2align	4, 0x90
	.type	_ZSt10__distanceIPKcENSt15iterator_traitsIT_E15difference_typeES3_S3_St26random_access_iterator_tag,@function
_ZSt10__distanceIPKcENSt15iterator_traitsIT_E15difference_typeES3_S3_St26random_access_iterator_tag: # @_ZSt10__distanceIPKcENSt15iterator_traitsIT_E15difference_typeES3_S3_St26random_access_iterator_tag
.Lfunc_begin35:
	.loc	65 100 0                # /usr/lib/gcc/x86_64-linux-gnu/9/../../../../include/c++/9/bits/stl_iterator_base_funcs.h:100:0
	.cfi_startproc
# %bb.0:
	#DEBUG_VALUE: __distance<const char *>:__first <- %rdi
	#DEBUG_VALUE: __distance<const char *>:__first <- %rdi
	#DEBUG_VALUE: __distance<const char *>:__last <- %rsi
	#DEBUG_VALUE: __distance<const char *>:__last <- %rsi
	.loc	65 104 21 prologue_end  # /usr/lib/gcc/x86_64-linux-gnu/9/../../../../include/c++/9/bits/stl_iterator_base_funcs.h:104:21
	subq	%rdi, %rsi
.Ltmp194:
	.loc	65 104 7 is_stmt 0      # /usr/lib/gcc/x86_64-linux-gnu/9/../../../../include/c++/9/bits/stl_iterator_base_funcs.h:104:7
	movq	%rsi, %rax
	retq
.Ltmp195:
.Lfunc_end35:
	.size	_ZSt10__distanceIPKcENSt15iterator_traitsIT_E15difference_typeES3_S3_St26random_access_iterator_tag, .Lfunc_end35-_ZSt10__distanceIPKcENSt15iterator_traitsIT_E15difference_typeES3_S3_St26random_access_iterator_tag
	.cfi_endproc
                                        # -- End function
	.section	.text._ZN9__gnu_cxx13new_allocatorIcEC2ERKS1_,"axG",@progbits,_ZN9__gnu_cxx13new_allocatorIcEC2ERKS1_,comdat
	.weak	_ZN9__gnu_cxx13new_allocatorIcEC2ERKS1_ # -- Begin function _ZN9__gnu_cxx13new_allocatorIcEC2ERKS1_
	.p2align	4, 0x90
	.type	_ZN9__gnu_cxx13new_allocatorIcEC2ERKS1_,@function
_ZN9__gnu_cxx13new_allocatorIcEC2ERKS1_: # @_ZN9__gnu_cxx13new_allocatorIcEC2ERKS1_
.Lfunc_begin36:
	.loc	27 83 0 is_stmt 1       # /usr/lib/gcc/x86_64-linux-gnu/9/../../../../include/c++/9/ext/new_allocator.h:83:0
	.cfi_startproc
# %bb.0:
	#DEBUG_VALUE: new_allocator:this <- %rdi
	#DEBUG_VALUE: new_allocator: <- %rsi
	.loc	27 83 67 prologue_end   # /usr/lib/gcc/x86_64-linux-gnu/9/../../../../include/c++/9/ext/new_allocator.h:83:67
	retq
.Ltmp196:
.Lfunc_end36:
	.size	_ZN9__gnu_cxx13new_allocatorIcEC2ERKS1_, .Lfunc_end36-_ZN9__gnu_cxx13new_allocatorIcEC2ERKS1_
	.cfi_endproc
                                        # -- End function
	.section	.text._ZNSt14pointer_traitsIPcE10pointer_toERc,"axG",@progbits,_ZNSt14pointer_traitsIPcE10pointer_toERc,comdat
	.weak	_ZNSt14pointer_traitsIPcE10pointer_toERc # -- Begin function _ZNSt14pointer_traitsIPcE10pointer_toERc
	.p2align	4, 0x90
	.type	_ZNSt14pointer_traitsIPcE10pointer_toERc,@function
_ZNSt14pointer_traitsIPcE10pointer_toERc: # @_ZNSt14pointer_traitsIPcE10pointer_toERc
.Lfunc_begin37:
	.loc	59 147 0                # /usr/lib/gcc/x86_64-linux-gnu/9/../../../../include/c++/9/bits/ptr_traits.h:147:0
	.cfi_startproc
# %bb.0:
	#DEBUG_VALUE: pointer_to:__r <- %rdi
	#DEBUG_VALUE: pointer_to:__r <- %rdi
	#DEBUG_VALUE: pointer_to:__r <- %rdi
	.loc	59 147 16 prologue_end  # /usr/lib/gcc/x86_64-linux-gnu/9/../../../../include/c++/9/bits/ptr_traits.h:147:16
	jmp	_ZSt9addressofIcEPT_RS0_ # TAILCALL
.Ltmp197:
.Lfunc_end37:
	.size	_ZNSt14pointer_traitsIPcE10pointer_toERc, .Lfunc_end37-_ZNSt14pointer_traitsIPcE10pointer_toERc
	.cfi_endproc
                                        # -- End function
	.section	.text._ZSt9addressofIcEPT_RS0_,"axG",@progbits,_ZSt9addressofIcEPT_RS0_,comdat
	.weak	_ZSt9addressofIcEPT_RS0_ # -- Begin function _ZSt9addressofIcEPT_RS0_
	.p2align	4, 0x90
	.type	_ZSt9addressofIcEPT_RS0_,@function
_ZSt9addressofIcEPT_RS0_:               # @_ZSt9addressofIcEPT_RS0_
.Lfunc_begin38:
	.loc	60 139 0                # /usr/lib/gcc/x86_64-linux-gnu/9/../../../../include/c++/9/bits/move.h:139:0
	.cfi_startproc
# %bb.0:
	#DEBUG_VALUE: addressof<char>:__r <- %rdi
	#DEBUG_VALUE: addressof<char>:__r <- %rdi
	#DEBUG_VALUE: addressof<char>:__r <- %rdi
	.loc	60 139 14 prologue_end  # /usr/lib/gcc/x86_64-linux-gnu/9/../../../../include/c++/9/bits/move.h:139:14
	jmp	_ZSt11__addressofIcEPT_RS0_ # TAILCALL
.Ltmp198:
.Lfunc_end38:
	.size	_ZSt9addressofIcEPT_RS0_, .Lfunc_end38-_ZSt9addressofIcEPT_RS0_
	.cfi_endproc
                                        # -- End function
	.section	.text._ZSt11__addressofIcEPT_RS0_,"axG",@progbits,_ZSt11__addressofIcEPT_RS0_,comdat
	.weak	_ZSt11__addressofIcEPT_RS0_ # -- Begin function _ZSt11__addressofIcEPT_RS0_
	.p2align	4, 0x90
	.type	_ZSt11__addressofIcEPT_RS0_,@function
_ZSt11__addressofIcEPT_RS0_:            # @_ZSt11__addressofIcEPT_RS0_
.Lfunc_begin39:
	.loc	60 48 0                 # /usr/lib/gcc/x86_64-linux-gnu/9/../../../../include/c++/9/bits/move.h:48:0
	.cfi_startproc
# %bb.0:
	#DEBUG_VALUE: __addressof<char>:__r <- %rdi
	#DEBUG_VALUE: __addressof<char>:__r <- %rdi
	.loc	60 48 7 prologue_end    # /usr/lib/gcc/x86_64-linux-gnu/9/../../../../include/c++/9/bits/move.h:48:7
	movq	%rdi, %rax
.Ltmp199:
	#DEBUG_VALUE: __addressof<char>:__r <- %rax
	retq
.Ltmp200:
.Lfunc_end39:
	.size	_ZSt11__addressofIcEPT_RS0_, .Lfunc_end39-_ZSt11__addressofIcEPT_RS0_
	.cfi_endproc
                                        # -- End function
	.section	.text._ZN9__gnu_cxx13new_allocatorIcEC2Ev,"axG",@progbits,_ZN9__gnu_cxx13new_allocatorIcEC2Ev,comdat
	.weak	_ZN9__gnu_cxx13new_allocatorIcEC2Ev # -- Begin function _ZN9__gnu_cxx13new_allocatorIcEC2Ev
	.p2align	4, 0x90
	.type	_ZN9__gnu_cxx13new_allocatorIcEC2Ev,@function
_ZN9__gnu_cxx13new_allocatorIcEC2Ev:    # @_ZN9__gnu_cxx13new_allocatorIcEC2Ev
.Lfunc_begin40:
	.loc	27 80 0                 # /usr/lib/gcc/x86_64-linux-gnu/9/../../../../include/c++/9/ext/new_allocator.h:80:0
	.cfi_startproc
# %bb.0:
	#DEBUG_VALUE: new_allocator:this <- %rdi
	.loc	27 80 47 prologue_end   # /usr/lib/gcc/x86_64-linux-gnu/9/../../../../include/c++/9/ext/new_allocator.h:80:47
	retq
.Ltmp201:
.Lfunc_end40:
	.size	_ZN9__gnu_cxx13new_allocatorIcEC2Ev, .Lfunc_end40-_ZN9__gnu_cxx13new_allocatorIcEC2Ev
	.cfi_endproc
                                        # -- End function
	.section	.text.startup,"ax",@progbits
	.p2align	4, 0x90         # -- Begin function _GLOBAL__sub_I_trace_logger.cpp
	.type	_GLOBAL__sub_I_trace_logger.cpp,@function
_GLOBAL__sub_I_trace_logger.cpp:        # @_GLOBAL__sub_I_trace_logger.cpp
.Lfunc_begin41:
	.cfi_startproc
# %bb.0:
	pushq	%rax
	.cfi_def_cfa_offset 16
	callq	__cxx_global_var_init.97
	popq	%rax
	jmp	__cxx_global_var_init.1 # TAILCALL
.Lfunc_end41:
	.size	_GLOBAL__sub_I_trace_logger.cpp, .Lfunc_end41-_GLOBAL__sub_I_trace_logger.cpp
	.cfi_endproc
                                        # -- End function
	.p2align	4, 0x90         # -- Begin function __cxx_global_var_init.97
	.type	__cxx_global_var_init.97,@function
__cxx_global_var_init.97:               # @__cxx_global_var_init.97
.Lfunc_begin42:
	.cfi_startproc
# %bb.0:
	pushq	%rax
	.cfi_def_cfa_offset 16
	movl	$_Z8gz_filesB5cxx11, %edi
	callq	_ZNSt3mapINSt7__cxx1112basic_stringIcSt11char_traitsIcESaIcEEEP8gzFile_sSt4lessIS5_ESaISt4pairIKS5_S7_EEEC2Ev
	movl	$__dtor__Z8gz_filesB5cxx11, %edi
	popq	%rax
	jmp	atexit                  # TAILCALL
.Lfunc_end42:
	.size	__cxx_global_var_init.97, .Lfunc_end42-__cxx_global_var_init.97
	.cfi_endproc
                                        # -- End function
	.p2align	4, 0x90         # -- Begin function __cxx_global_var_init.1
	.type	__cxx_global_var_init.1,@function
__cxx_global_var_init.1:                # @__cxx_global_var_init.1
.Lfunc_begin43:
	.cfi_startproc
# %bb.0:
	pushq	%rax
	.cfi_def_cfa_offset 16
	movl	$_Z12labelmap_strB5cxx11, %edi
	callq	_ZNSt7__cxx1112basic_stringIcSt11char_traitsIcESaIcEEC2Ev
	movl	$__dtor__Z12labelmap_strB5cxx11, %edi
	popq	%rax
	jmp	atexit                  # TAILCALL
.Lfunc_end43:
	.size	__cxx_global_var_init.1, .Lfunc_end43-__cxx_global_var_init.1
	.cfi_endproc
                                        # -- End function
	.p2align	4, 0x90         # -- Begin function __dtor__Z12labelmap_strB5cxx11
	.type	__dtor__Z12labelmap_strB5cxx11,@function
__dtor__Z12labelmap_strB5cxx11:         # @__dtor__Z12labelmap_strB5cxx11
.Lfunc_begin44:
	.cfi_startproc
# %bb.0:
	movl	$_Z12labelmap_strB5cxx11, %edi
	jmp	_ZNSt7__cxx1112basic_stringIcSt11char_traitsIcESaIcEED2Ev # TAILCALL
.Lfunc_end44:
	.size	__dtor__Z12labelmap_strB5cxx11, .Lfunc_end44-__dtor__Z12labelmap_strB5cxx11
	.cfi_endproc
                                        # -- End function
	.section	.text._ZNSt3mapINSt7__cxx1112basic_stringIcSt11char_traitsIcESaIcEEEP8gzFile_sSt4lessIS5_ESaISt4pairIKS5_S7_EEEC2Ev,"axG",@progbits,_ZNSt3mapINSt7__cxx1112basic_stringIcSt11char_traitsIcESaIcEEEP8gzFile_sSt4lessIS5_ESaISt4pairIKS5_S7_EEEC2Ev,comdat
	.weak	_ZNSt3mapINSt7__cxx1112basic_stringIcSt11char_traitsIcESaIcEEEP8gzFile_sSt4lessIS5_ESaISt4pairIKS5_S7_EEEC2Ev # -- Begin function _ZNSt3mapINSt7__cxx1112basic_stringIcSt11char_traitsIcESaIcEEEP8gzFile_sSt4lessIS5_ESaISt4pairIKS5_S7_EEEC2Ev
	.p2align	4, 0x90
	.type	_ZNSt3mapINSt7__cxx1112basic_stringIcSt11char_traitsIcESaIcEEEP8gzFile_sSt4lessIS5_ESaISt4pairIKS5_S7_EEEC2Ev,@function
_ZNSt3mapINSt7__cxx1112basic_stringIcSt11char_traitsIcESaIcEEEP8gzFile_sSt4lessIS5_ESaISt4pairIKS5_S7_EEEC2Ev: # @_ZNSt3mapINSt7__cxx1112basic_stringIcSt11char_traitsIcESaIcEEEP8gzFile_sSt4lessIS5_ESaISt4pairIKS5_S7_EEEC2Ev
.Lfunc_begin45:
	.cfi_startproc
# %bb.0:
	jmp	_ZNSt8_Rb_treeINSt7__cxx1112basic_stringIcSt11char_traitsIcESaIcEEESt4pairIKS5_P8gzFile_sESt10_Select1stISA_ESt4lessIS5_ESaISA_EEC2Ev # TAILCALL
.Lfunc_end45:
	.size	_ZNSt3mapINSt7__cxx1112basic_stringIcSt11char_traitsIcESaIcEEEP8gzFile_sSt4lessIS5_ESaISt4pairIKS5_S7_EEEC2Ev, .Lfunc_end45-_ZNSt3mapINSt7__cxx1112basic_stringIcSt11char_traitsIcESaIcEEEP8gzFile_sSt4lessIS5_ESaISt4pairIKS5_S7_EEEC2Ev
	.cfi_endproc
                                        # -- End function
	.section	.text.startup,"ax",@progbits
	.p2align	4, 0x90         # -- Begin function __dtor__Z8gz_filesB5cxx11
	.type	__dtor__Z8gz_filesB5cxx11,@function
__dtor__Z8gz_filesB5cxx11:              # @__dtor__Z8gz_filesB5cxx11
.Lfunc_begin46:
	.cfi_startproc
# %bb.0:
	movl	$_Z8gz_filesB5cxx11, %edi
	jmp	_ZNSt3mapINSt7__cxx1112basic_stringIcSt11char_traitsIcESaIcEEEP8gzFile_sSt4lessIS5_ESaISt4pairIKS5_S7_EEED2Ev # TAILCALL
.Lfunc_end46:
	.size	__dtor__Z8gz_filesB5cxx11, .Lfunc_end46-__dtor__Z8gz_filesB5cxx11
	.cfi_endproc
                                        # -- End function
	.section	.text._ZNSt3mapINSt7__cxx1112basic_stringIcSt11char_traitsIcESaIcEEEP8gzFile_sSt4lessIS5_ESaISt4pairIKS5_S7_EEED2Ev,"axG",@progbits,_ZNSt3mapINSt7__cxx1112basic_stringIcSt11char_traitsIcESaIcEEEP8gzFile_sSt4lessIS5_ESaISt4pairIKS5_S7_EEED2Ev,comdat
	.weak	_ZNSt3mapINSt7__cxx1112basic_stringIcSt11char_traitsIcESaIcEEEP8gzFile_sSt4lessIS5_ESaISt4pairIKS5_S7_EEED2Ev # -- Begin function _ZNSt3mapINSt7__cxx1112basic_stringIcSt11char_traitsIcESaIcEEEP8gzFile_sSt4lessIS5_ESaISt4pairIKS5_S7_EEED2Ev
	.p2align	4, 0x90
	.type	_ZNSt3mapINSt7__cxx1112basic_stringIcSt11char_traitsIcESaIcEEEP8gzFile_sSt4lessIS5_ESaISt4pairIKS5_S7_EEED2Ev,@function
_ZNSt3mapINSt7__cxx1112basic_stringIcSt11char_traitsIcESaIcEEEP8gzFile_sSt4lessIS5_ESaISt4pairIKS5_S7_EEED2Ev: # @_ZNSt3mapINSt7__cxx1112basic_stringIcSt11char_traitsIcESaIcEEEP8gzFile_sSt4lessIS5_ESaISt4pairIKS5_S7_EEED2Ev
.Lfunc_begin47:
	.cfi_startproc
# %bb.0:
	jmp	_ZNSt8_Rb_treeINSt7__cxx1112basic_stringIcSt11char_traitsIcESaIcEEESt4pairIKS5_P8gzFile_sESt10_Select1stISA_ESt4lessIS5_ESaISA_EED2Ev # TAILCALL
.Lfunc_end47:
	.size	_ZNSt3mapINSt7__cxx1112basic_stringIcSt11char_traitsIcESaIcEEEP8gzFile_sSt4lessIS5_ESaISt4pairIKS5_S7_EEED2Ev, .Lfunc_end47-_ZNSt3mapINSt7__cxx1112basic_stringIcSt11char_traitsIcESaIcEEEP8gzFile_sSt4lessIS5_ESaISt4pairIKS5_S7_EEED2Ev
	.cfi_endproc
                                        # -- End function
	.section	.text._ZNSt8_Rb_treeINSt7__cxx1112basic_stringIcSt11char_traitsIcESaIcEEESt4pairIKS5_P8gzFile_sESt10_Select1stISA_ESt4lessIS5_ESaISA_EED2Ev,"axG",@progbits,_ZNSt8_Rb_treeINSt7__cxx1112basic_stringIcSt11char_traitsIcESaIcEEESt4pairIKS5_P8gzFile_sESt10_Select1stISA_ESt4lessIS5_ESaISA_EED2Ev,comdat
	.weak	_ZNSt8_Rb_treeINSt7__cxx1112basic_stringIcSt11char_traitsIcESaIcEEESt4pairIKS5_P8gzFile_sESt10_Select1stISA_ESt4lessIS5_ESaISA_EED2Ev # -- Begin function _ZNSt8_Rb_treeINSt7__cxx1112basic_stringIcSt11char_traitsIcESaIcEEESt4pairIKS5_P8gzFile_sESt10_Select1stISA_ESt4lessIS5_ESaISA_EED2Ev
	.p2align	4, 0x90
	.type	_ZNSt8_Rb_treeINSt7__cxx1112basic_stringIcSt11char_traitsIcESaIcEEESt4pairIKS5_P8gzFile_sESt10_Select1stISA_ESt4lessIS5_ESaISA_EED2Ev,@function
_ZNSt8_Rb_treeINSt7__cxx1112basic_stringIcSt11char_traitsIcESaIcEEESt4pairIKS5_P8gzFile_sESt10_Select1stISA_ESt4lessIS5_ESaISA_EED2Ev: # @_ZNSt8_Rb_treeINSt7__cxx1112basic_stringIcSt11char_traitsIcESaIcEEESt4pairIKS5_P8gzFile_sESt10_Select1stISA_ESt4lessIS5_ESaISA_EED2Ev
.Lfunc_begin48:
	.cfi_startproc
	.cfi_personality 3, __gxx_personality_v0
	.cfi_lsda 3, .Lexception1
# %bb.0:
	pushq	%r14
	.cfi_def_cfa_offset 16
	pushq	%rbx
	.cfi_def_cfa_offset 24
	pushq	%rax
	.cfi_def_cfa_offset 32
	.cfi_offset %rbx, -24
	.cfi_offset %r14, -16
	movq	%rdi, %rbx
	callq	_ZNSt8_Rb_treeINSt7__cxx1112basic_stringIcSt11char_traitsIcESaIcEEESt4pairIKS5_P8gzFile_sESt10_Select1stISA_ESt4lessIS5_ESaISA_EE8_M_beginEv
.Ltmp202:
	movq	%rbx, %rdi
	movq	%rax, %rsi
	callq	_ZNSt8_Rb_treeINSt7__cxx1112basic_stringIcSt11char_traitsIcESaIcEEESt4pairIKS5_P8gzFile_sESt10_Select1stISA_ESt4lessIS5_ESaISA_EE8_M_eraseEPSt13_Rb_tree_nodeISA_E
.Ltmp203:
# %bb.1:
	movq	%rbx, %rdi
	addq	$8, %rsp
	popq	%rbx
	popq	%r14
	jmp	_ZN9__gnu_cxx13new_allocatorISt13_Rb_tree_nodeISt4pairIKNSt7__cxx1112basic_stringIcSt11char_traitsIcESaIcEEEP8gzFile_sEEED2Ev # TAILCALL
.LBB48_2:
.Ltmp204:
	movq	%rax, %r14
	movq	%rbx, %rdi
	callq	_ZN9__gnu_cxx13new_allocatorISt13_Rb_tree_nodeISt4pairIKNSt7__cxx1112basic_stringIcSt11char_traitsIcESaIcEEEP8gzFile_sEEED2Ev
	movq	%r14, %rdi
	callq	__clang_call_terminate
.Lfunc_end48:
	.size	_ZNSt8_Rb_treeINSt7__cxx1112basic_stringIcSt11char_traitsIcESaIcEEESt4pairIKS5_P8gzFile_sESt10_Select1stISA_ESt4lessIS5_ESaISA_EED2Ev, .Lfunc_end48-_ZNSt8_Rb_treeINSt7__cxx1112basic_stringIcSt11char_traitsIcESaIcEEESt4pairIKS5_P8gzFile_sESt10_Select1stISA_ESt4lessIS5_ESaISA_EED2Ev
	.cfi_endproc
	.section	.gcc_except_table,"a",@progbits
	.p2align	2
GCC_except_table48:
.Lexception1:
	.byte	255                     # @LPStart Encoding = omit
	.byte	3                       # @TType Encoding = udata4
	.byte	21                      # @TType base offset
	.byte	3                       # Call site Encoding = udata4
	.byte	13                      # Call site table length
	.long	.Ltmp202-.Lfunc_begin48 # >> Call Site 1 <<
	.long	.Ltmp203-.Ltmp202       #   Call between .Ltmp202 and .Ltmp203
	.long	.Ltmp204-.Lfunc_begin48 #     jumps to .Ltmp204
	.byte	1                       #   On action: 1
	.byte	1                       # >> Action Record 1 <<
                                        #   Catch TypeInfo 1
	.byte	0                       #   No further actions
                                        # >> Catch TypeInfos <<
	.long	0                       # TypeInfo 1
	.p2align	2
                                        # -- End function
	.section	.text._ZNSt8_Rb_treeINSt7__cxx1112basic_stringIcSt11char_traitsIcESaIcEEESt4pairIKS5_P8gzFile_sESt10_Select1stISA_ESt4lessIS5_ESaISA_EE8_M_beginEv,"axG",@progbits,_ZNSt8_Rb_treeINSt7__cxx1112basic_stringIcSt11char_traitsIcESaIcEEESt4pairIKS5_P8gzFile_sESt10_Select1stISA_ESt4lessIS5_ESaISA_EE8_M_beginEv,comdat
	.weak	_ZNSt8_Rb_treeINSt7__cxx1112basic_stringIcSt11char_traitsIcESaIcEEESt4pairIKS5_P8gzFile_sESt10_Select1stISA_ESt4lessIS5_ESaISA_EE8_M_beginEv # -- Begin function _ZNSt8_Rb_treeINSt7__cxx1112basic_stringIcSt11char_traitsIcESaIcEEESt4pairIKS5_P8gzFile_sESt10_Select1stISA_ESt4lessIS5_ESaISA_EE8_M_beginEv
	.p2align	4, 0x90
	.type	_ZNSt8_Rb_treeINSt7__cxx1112basic_stringIcSt11char_traitsIcESaIcEEESt4pairIKS5_P8gzFile_sESt10_Select1stISA_ESt4lessIS5_ESaISA_EE8_M_beginEv,@function
_ZNSt8_Rb_treeINSt7__cxx1112basic_stringIcSt11char_traitsIcESaIcEEESt4pairIKS5_P8gzFile_sESt10_Select1stISA_ESt4lessIS5_ESaISA_EE8_M_beginEv: # @_ZNSt8_Rb_treeINSt7__cxx1112basic_stringIcSt11char_traitsIcESaIcEEESt4pairIKS5_P8gzFile_sESt10_Select1stISA_ESt4lessIS5_ESaISA_EE8_M_beginEv
.Lfunc_begin49:
	.cfi_startproc
# %bb.0:
	movq	16(%rdi), %rax
	retq
.Lfunc_end49:
	.size	_ZNSt8_Rb_treeINSt7__cxx1112basic_stringIcSt11char_traitsIcESaIcEEESt4pairIKS5_P8gzFile_sESt10_Select1stISA_ESt4lessIS5_ESaISA_EE8_M_beginEv, .Lfunc_end49-_ZNSt8_Rb_treeINSt7__cxx1112basic_stringIcSt11char_traitsIcESaIcEEESt4pairIKS5_P8gzFile_sESt10_Select1stISA_ESt4lessIS5_ESaISA_EE8_M_beginEv
	.cfi_endproc
                                        # -- End function
	.section	.text._ZNSt8_Rb_treeINSt7__cxx1112basic_stringIcSt11char_traitsIcESaIcEEESt4pairIKS5_P8gzFile_sESt10_Select1stISA_ESt4lessIS5_ESaISA_EE8_M_eraseEPSt13_Rb_tree_nodeISA_E,"axG",@progbits,_ZNSt8_Rb_treeINSt7__cxx1112basic_stringIcSt11char_traitsIcESaIcEEESt4pairIKS5_P8gzFile_sESt10_Select1stISA_ESt4lessIS5_ESaISA_EE8_M_eraseEPSt13_Rb_tree_nodeISA_E,comdat
	.weak	_ZNSt8_Rb_treeINSt7__cxx1112basic_stringIcSt11char_traitsIcESaIcEEESt4pairIKS5_P8gzFile_sESt10_Select1stISA_ESt4lessIS5_ESaISA_EE8_M_eraseEPSt13_Rb_tree_nodeISA_E # -- Begin function _ZNSt8_Rb_treeINSt7__cxx1112basic_stringIcSt11char_traitsIcESaIcEEESt4pairIKS5_P8gzFile_sESt10_Select1stISA_ESt4lessIS5_ESaISA_EE8_M_eraseEPSt13_Rb_tree_nodeISA_E
	.p2align	4, 0x90
	.type	_ZNSt8_Rb_treeINSt7__cxx1112basic_stringIcSt11char_traitsIcESaIcEEESt4pairIKS5_P8gzFile_sESt10_Select1stISA_ESt4lessIS5_ESaISA_EE8_M_eraseEPSt13_Rb_tree_nodeISA_E,@function
_ZNSt8_Rb_treeINSt7__cxx1112basic_stringIcSt11char_traitsIcESaIcEEESt4pairIKS5_P8gzFile_sESt10_Select1stISA_ESt4lessIS5_ESaISA_EE8_M_eraseEPSt13_Rb_tree_nodeISA_E: # @_ZNSt8_Rb_treeINSt7__cxx1112basic_stringIcSt11char_traitsIcESaIcEEESt4pairIKS5_P8gzFile_sESt10_Select1stISA_ESt4lessIS5_ESaISA_EE8_M_eraseEPSt13_Rb_tree_nodeISA_E
.Lfunc_begin50:
	.cfi_startproc
# %bb.0:
	pushq	%r15
	.cfi_def_cfa_offset 16
	pushq	%r14
	.cfi_def_cfa_offset 24
	pushq	%rbx
	.cfi_def_cfa_offset 32
	.cfi_offset %rbx, -32
	.cfi_offset %r14, -24
	.cfi_offset %r15, -16
	movq	%rsi, %rbx
	movq	%rdi, %r14
	testq	%rbx, %rbx
	je	.LBB50_2
	.p2align	4, 0x90
.LBB50_1:                               # =>This Inner Loop Header: Depth=1
	movq	%rbx, %rdi
	callq	_ZNSt8_Rb_treeINSt7__cxx1112basic_stringIcSt11char_traitsIcESaIcEEESt4pairIKS5_P8gzFile_sESt10_Select1stISA_ESt4lessIS5_ESaISA_EE8_S_rightEPSt18_Rb_tree_node_base
	movq	%r14, %rdi
	movq	%rax, %rsi
	callq	_ZNSt8_Rb_treeINSt7__cxx1112basic_stringIcSt11char_traitsIcESaIcEEESt4pairIKS5_P8gzFile_sESt10_Select1stISA_ESt4lessIS5_ESaISA_EE8_M_eraseEPSt13_Rb_tree_nodeISA_E
	movq	%rbx, %rdi
	callq	_ZNSt8_Rb_treeINSt7__cxx1112basic_stringIcSt11char_traitsIcESaIcEEESt4pairIKS5_P8gzFile_sESt10_Select1stISA_ESt4lessIS5_ESaISA_EE7_S_leftEPSt18_Rb_tree_node_base
	movq	%rax, %r15
	movq	%r14, %rdi
	movq	%rbx, %rsi
	callq	_ZNSt8_Rb_treeINSt7__cxx1112basic_stringIcSt11char_traitsIcESaIcEEESt4pairIKS5_P8gzFile_sESt10_Select1stISA_ESt4lessIS5_ESaISA_EE12_M_drop_nodeEPSt13_Rb_tree_nodeISA_E
	movq	%r15, %rbx
	testq	%r15, %r15
	jne	.LBB50_1
.LBB50_2:
	popq	%rbx
	popq	%r14
	popq	%r15
	retq
.Lfunc_end50:
	.size	_ZNSt8_Rb_treeINSt7__cxx1112basic_stringIcSt11char_traitsIcESaIcEEESt4pairIKS5_P8gzFile_sESt10_Select1stISA_ESt4lessIS5_ESaISA_EE8_M_eraseEPSt13_Rb_tree_nodeISA_E, .Lfunc_end50-_ZNSt8_Rb_treeINSt7__cxx1112basic_stringIcSt11char_traitsIcESaIcEEESt4pairIKS5_P8gzFile_sESt10_Select1stISA_ESt4lessIS5_ESaISA_EE8_M_eraseEPSt13_Rb_tree_nodeISA_E
	.cfi_endproc
                                        # -- End function
	.section	.text._ZN9__gnu_cxx13new_allocatorISt13_Rb_tree_nodeISt4pairIKNSt7__cxx1112basic_stringIcSt11char_traitsIcESaIcEEEP8gzFile_sEEED2Ev,"axG",@progbits,_ZN9__gnu_cxx13new_allocatorISt13_Rb_tree_nodeISt4pairIKNSt7__cxx1112basic_stringIcSt11char_traitsIcESaIcEEEP8gzFile_sEEED2Ev,comdat
	.weak	_ZN9__gnu_cxx13new_allocatorISt13_Rb_tree_nodeISt4pairIKNSt7__cxx1112basic_stringIcSt11char_traitsIcESaIcEEEP8gzFile_sEEED2Ev # -- Begin function _ZN9__gnu_cxx13new_allocatorISt13_Rb_tree_nodeISt4pairIKNSt7__cxx1112basic_stringIcSt11char_traitsIcESaIcEEEP8gzFile_sEEED2Ev
	.p2align	4, 0x90
	.type	_ZN9__gnu_cxx13new_allocatorISt13_Rb_tree_nodeISt4pairIKNSt7__cxx1112basic_stringIcSt11char_traitsIcESaIcEEEP8gzFile_sEEED2Ev,@function
_ZN9__gnu_cxx13new_allocatorISt13_Rb_tree_nodeISt4pairIKNSt7__cxx1112basic_stringIcSt11char_traitsIcESaIcEEEP8gzFile_sEEED2Ev: # @_ZN9__gnu_cxx13new_allocatorISt13_Rb_tree_nodeISt4pairIKNSt7__cxx1112basic_stringIcSt11char_traitsIcESaIcEEEP8gzFile_sEEED2Ev
.Lfunc_begin51:
	.cfi_startproc
# %bb.0:
	retq
.Lfunc_end51:
	.size	_ZN9__gnu_cxx13new_allocatorISt13_Rb_tree_nodeISt4pairIKNSt7__cxx1112basic_stringIcSt11char_traitsIcESaIcEEEP8gzFile_sEEED2Ev, .Lfunc_end51-_ZN9__gnu_cxx13new_allocatorISt13_Rb_tree_nodeISt4pairIKNSt7__cxx1112basic_stringIcSt11char_traitsIcESaIcEEEP8gzFile_sEEED2Ev
	.cfi_endproc
                                        # -- End function
	.section	.text._ZNSt8_Rb_treeINSt7__cxx1112basic_stringIcSt11char_traitsIcESaIcEEESt4pairIKS5_P8gzFile_sESt10_Select1stISA_ESt4lessIS5_ESaISA_EE8_S_rightEPSt18_Rb_tree_node_base,"axG",@progbits,_ZNSt8_Rb_treeINSt7__cxx1112basic_stringIcSt11char_traitsIcESaIcEEESt4pairIKS5_P8gzFile_sESt10_Select1stISA_ESt4lessIS5_ESaISA_EE8_S_rightEPSt18_Rb_tree_node_base,comdat
	.weak	_ZNSt8_Rb_treeINSt7__cxx1112basic_stringIcSt11char_traitsIcESaIcEEESt4pairIKS5_P8gzFile_sESt10_Select1stISA_ESt4lessIS5_ESaISA_EE8_S_rightEPSt18_Rb_tree_node_base # -- Begin function _ZNSt8_Rb_treeINSt7__cxx1112basic_stringIcSt11char_traitsIcESaIcEEESt4pairIKS5_P8gzFile_sESt10_Select1stISA_ESt4lessIS5_ESaISA_EE8_S_rightEPSt18_Rb_tree_node_base
	.p2align	4, 0x90
	.type	_ZNSt8_Rb_treeINSt7__cxx1112basic_stringIcSt11char_traitsIcESaIcEEESt4pairIKS5_P8gzFile_sESt10_Select1stISA_ESt4lessIS5_ESaISA_EE8_S_rightEPSt18_Rb_tree_node_base,@function
_ZNSt8_Rb_treeINSt7__cxx1112basic_stringIcSt11char_traitsIcESaIcEEESt4pairIKS5_P8gzFile_sESt10_Select1stISA_ESt4lessIS5_ESaISA_EE8_S_rightEPSt18_Rb_tree_node_base: # @_ZNSt8_Rb_treeINSt7__cxx1112basic_stringIcSt11char_traitsIcESaIcEEESt4pairIKS5_P8gzFile_sESt10_Select1stISA_ESt4lessIS5_ESaISA_EE8_S_rightEPSt18_Rb_tree_node_base
.Lfunc_begin52:
	.cfi_startproc
# %bb.0:
	movq	24(%rdi), %rax
	retq
.Lfunc_end52:
	.size	_ZNSt8_Rb_treeINSt7__cxx1112basic_stringIcSt11char_traitsIcESaIcEEESt4pairIKS5_P8gzFile_sESt10_Select1stISA_ESt4lessIS5_ESaISA_EE8_S_rightEPSt18_Rb_tree_node_base, .Lfunc_end52-_ZNSt8_Rb_treeINSt7__cxx1112basic_stringIcSt11char_traitsIcESaIcEEESt4pairIKS5_P8gzFile_sESt10_Select1stISA_ESt4lessIS5_ESaISA_EE8_S_rightEPSt18_Rb_tree_node_base
	.cfi_endproc
                                        # -- End function
	.section	.text._ZNSt8_Rb_treeINSt7__cxx1112basic_stringIcSt11char_traitsIcESaIcEEESt4pairIKS5_P8gzFile_sESt10_Select1stISA_ESt4lessIS5_ESaISA_EE7_S_leftEPSt18_Rb_tree_node_base,"axG",@progbits,_ZNSt8_Rb_treeINSt7__cxx1112basic_stringIcSt11char_traitsIcESaIcEEESt4pairIKS5_P8gzFile_sESt10_Select1stISA_ESt4lessIS5_ESaISA_EE7_S_leftEPSt18_Rb_tree_node_base,comdat
	.weak	_ZNSt8_Rb_treeINSt7__cxx1112basic_stringIcSt11char_traitsIcESaIcEEESt4pairIKS5_P8gzFile_sESt10_Select1stISA_ESt4lessIS5_ESaISA_EE7_S_leftEPSt18_Rb_tree_node_base # -- Begin function _ZNSt8_Rb_treeINSt7__cxx1112basic_stringIcSt11char_traitsIcESaIcEEESt4pairIKS5_P8gzFile_sESt10_Select1stISA_ESt4lessIS5_ESaISA_EE7_S_leftEPSt18_Rb_tree_node_base
	.p2align	4, 0x90
	.type	_ZNSt8_Rb_treeINSt7__cxx1112basic_stringIcSt11char_traitsIcESaIcEEESt4pairIKS5_P8gzFile_sESt10_Select1stISA_ESt4lessIS5_ESaISA_EE7_S_leftEPSt18_Rb_tree_node_base,@function
_ZNSt8_Rb_treeINSt7__cxx1112basic_stringIcSt11char_traitsIcESaIcEEESt4pairIKS5_P8gzFile_sESt10_Select1stISA_ESt4lessIS5_ESaISA_EE7_S_leftEPSt18_Rb_tree_node_base: # @_ZNSt8_Rb_treeINSt7__cxx1112basic_stringIcSt11char_traitsIcESaIcEEESt4pairIKS5_P8gzFile_sESt10_Select1stISA_ESt4lessIS5_ESaISA_EE7_S_leftEPSt18_Rb_tree_node_base
.Lfunc_begin53:
	.cfi_startproc
# %bb.0:
	movq	16(%rdi), %rax
	retq
.Lfunc_end53:
	.size	_ZNSt8_Rb_treeINSt7__cxx1112basic_stringIcSt11char_traitsIcESaIcEEESt4pairIKS5_P8gzFile_sESt10_Select1stISA_ESt4lessIS5_ESaISA_EE7_S_leftEPSt18_Rb_tree_node_base, .Lfunc_end53-_ZNSt8_Rb_treeINSt7__cxx1112basic_stringIcSt11char_traitsIcESaIcEEESt4pairIKS5_P8gzFile_sESt10_Select1stISA_ESt4lessIS5_ESaISA_EE7_S_leftEPSt18_Rb_tree_node_base
	.cfi_endproc
                                        # -- End function
	.section	.text._ZNSt8_Rb_treeINSt7__cxx1112basic_stringIcSt11char_traitsIcESaIcEEESt4pairIKS5_P8gzFile_sESt10_Select1stISA_ESt4lessIS5_ESaISA_EE12_M_drop_nodeEPSt13_Rb_tree_nodeISA_E,"axG",@progbits,_ZNSt8_Rb_treeINSt7__cxx1112basic_stringIcSt11char_traitsIcESaIcEEESt4pairIKS5_P8gzFile_sESt10_Select1stISA_ESt4lessIS5_ESaISA_EE12_M_drop_nodeEPSt13_Rb_tree_nodeISA_E,comdat
	.weak	_ZNSt8_Rb_treeINSt7__cxx1112basic_stringIcSt11char_traitsIcESaIcEEESt4pairIKS5_P8gzFile_sESt10_Select1stISA_ESt4lessIS5_ESaISA_EE12_M_drop_nodeEPSt13_Rb_tree_nodeISA_E # -- Begin function _ZNSt8_Rb_treeINSt7__cxx1112basic_stringIcSt11char_traitsIcESaIcEEESt4pairIKS5_P8gzFile_sESt10_Select1stISA_ESt4lessIS5_ESaISA_EE12_M_drop_nodeEPSt13_Rb_tree_nodeISA_E
	.p2align	4, 0x90
	.type	_ZNSt8_Rb_treeINSt7__cxx1112basic_stringIcSt11char_traitsIcESaIcEEESt4pairIKS5_P8gzFile_sESt10_Select1stISA_ESt4lessIS5_ESaISA_EE12_M_drop_nodeEPSt13_Rb_tree_nodeISA_E,@function
_ZNSt8_Rb_treeINSt7__cxx1112basic_stringIcSt11char_traitsIcESaIcEEESt4pairIKS5_P8gzFile_sESt10_Select1stISA_ESt4lessIS5_ESaISA_EE12_M_drop_nodeEPSt13_Rb_tree_nodeISA_E: # @_ZNSt8_Rb_treeINSt7__cxx1112basic_stringIcSt11char_traitsIcESaIcEEESt4pairIKS5_P8gzFile_sESt10_Select1stISA_ESt4lessIS5_ESaISA_EE12_M_drop_nodeEPSt13_Rb_tree_nodeISA_E
.Lfunc_begin54:
	.cfi_startproc
# %bb.0:
	pushq	%r14
	.cfi_def_cfa_offset 16
	pushq	%rbx
	.cfi_def_cfa_offset 24
	pushq	%rax
	.cfi_def_cfa_offset 32
	.cfi_offset %rbx, -24
	.cfi_offset %r14, -16
	movq	%rsi, %r14
	movq	%rdi, %rbx
	callq	_ZNSt8_Rb_treeINSt7__cxx1112basic_stringIcSt11char_traitsIcESaIcEEESt4pairIKS5_P8gzFile_sESt10_Select1stISA_ESt4lessIS5_ESaISA_EE15_M_destroy_nodeEPSt13_Rb_tree_nodeISA_E
	movq	%rbx, %rdi
	movq	%r14, %rsi
	addq	$8, %rsp
	popq	%rbx
	popq	%r14
	jmp	_ZNSt8_Rb_treeINSt7__cxx1112basic_stringIcSt11char_traitsIcESaIcEEESt4pairIKS5_P8gzFile_sESt10_Select1stISA_ESt4lessIS5_ESaISA_EE11_M_put_nodeEPSt13_Rb_tree_nodeISA_E # TAILCALL
.Lfunc_end54:
	.size	_ZNSt8_Rb_treeINSt7__cxx1112basic_stringIcSt11char_traitsIcESaIcEEESt4pairIKS5_P8gzFile_sESt10_Select1stISA_ESt4lessIS5_ESaISA_EE12_M_drop_nodeEPSt13_Rb_tree_nodeISA_E, .Lfunc_end54-_ZNSt8_Rb_treeINSt7__cxx1112basic_stringIcSt11char_traitsIcESaIcEEESt4pairIKS5_P8gzFile_sESt10_Select1stISA_ESt4lessIS5_ESaISA_EE12_M_drop_nodeEPSt13_Rb_tree_nodeISA_E
	.cfi_endproc
                                        # -- End function
	.section	.text._ZNSt8_Rb_treeINSt7__cxx1112basic_stringIcSt11char_traitsIcESaIcEEESt4pairIKS5_P8gzFile_sESt10_Select1stISA_ESt4lessIS5_ESaISA_EE15_M_destroy_nodeEPSt13_Rb_tree_nodeISA_E,"axG",@progbits,_ZNSt8_Rb_treeINSt7__cxx1112basic_stringIcSt11char_traitsIcESaIcEEESt4pairIKS5_P8gzFile_sESt10_Select1stISA_ESt4lessIS5_ESaISA_EE15_M_destroy_nodeEPSt13_Rb_tree_nodeISA_E,comdat
	.weak	_ZNSt8_Rb_treeINSt7__cxx1112basic_stringIcSt11char_traitsIcESaIcEEESt4pairIKS5_P8gzFile_sESt10_Select1stISA_ESt4lessIS5_ESaISA_EE15_M_destroy_nodeEPSt13_Rb_tree_nodeISA_E # -- Begin function _ZNSt8_Rb_treeINSt7__cxx1112basic_stringIcSt11char_traitsIcESaIcEEESt4pairIKS5_P8gzFile_sESt10_Select1stISA_ESt4lessIS5_ESaISA_EE15_M_destroy_nodeEPSt13_Rb_tree_nodeISA_E
	.p2align	4, 0x90
	.type	_ZNSt8_Rb_treeINSt7__cxx1112basic_stringIcSt11char_traitsIcESaIcEEESt4pairIKS5_P8gzFile_sESt10_Select1stISA_ESt4lessIS5_ESaISA_EE15_M_destroy_nodeEPSt13_Rb_tree_nodeISA_E,@function
_ZNSt8_Rb_treeINSt7__cxx1112basic_stringIcSt11char_traitsIcESaIcEEESt4pairIKS5_P8gzFile_sESt10_Select1stISA_ESt4lessIS5_ESaISA_EE15_M_destroy_nodeEPSt13_Rb_tree_nodeISA_E: # @_ZNSt8_Rb_treeINSt7__cxx1112basic_stringIcSt11char_traitsIcESaIcEEESt4pairIKS5_P8gzFile_sESt10_Select1stISA_ESt4lessIS5_ESaISA_EE15_M_destroy_nodeEPSt13_Rb_tree_nodeISA_E
.Lfunc_begin55:
	.cfi_startproc
# %bb.0:
	pushq	%r14
	.cfi_def_cfa_offset 16
	pushq	%rbx
	.cfi_def_cfa_offset 24
	pushq	%rax
	.cfi_def_cfa_offset 32
	.cfi_offset %rbx, -24
	.cfi_offset %r14, -16
	movq	%rsi, %r14
	callq	_ZNSt8_Rb_treeINSt7__cxx1112basic_stringIcSt11char_traitsIcESaIcEEESt4pairIKS5_P8gzFile_sESt10_Select1stISA_ESt4lessIS5_ESaISA_EE21_M_get_Node_allocatorEv
	movq	%rax, %rbx
	movq	%r14, %rdi
	callq	_ZNSt13_Rb_tree_nodeISt4pairIKNSt7__cxx1112basic_stringIcSt11char_traitsIcESaIcEEEP8gzFile_sEE9_M_valptrEv
	movq	%rbx, %rdi
	movq	%rax, %rsi
	addq	$8, %rsp
	popq	%rbx
	popq	%r14
	jmp	_ZNSt16allocator_traitsISaISt13_Rb_tree_nodeISt4pairIKNSt7__cxx1112basic_stringIcSt11char_traitsIcESaIcEEEP8gzFile_sEEEE7destroyISB_EEvRSD_PT_ # TAILCALL
.Lfunc_end55:
	.size	_ZNSt8_Rb_treeINSt7__cxx1112basic_stringIcSt11char_traitsIcESaIcEEESt4pairIKS5_P8gzFile_sESt10_Select1stISA_ESt4lessIS5_ESaISA_EE15_M_destroy_nodeEPSt13_Rb_tree_nodeISA_E, .Lfunc_end55-_ZNSt8_Rb_treeINSt7__cxx1112basic_stringIcSt11char_traitsIcESaIcEEESt4pairIKS5_P8gzFile_sESt10_Select1stISA_ESt4lessIS5_ESaISA_EE15_M_destroy_nodeEPSt13_Rb_tree_nodeISA_E
	.cfi_endproc
                                        # -- End function
	.section	.text._ZNSt8_Rb_treeINSt7__cxx1112basic_stringIcSt11char_traitsIcESaIcEEESt4pairIKS5_P8gzFile_sESt10_Select1stISA_ESt4lessIS5_ESaISA_EE11_M_put_nodeEPSt13_Rb_tree_nodeISA_E,"axG",@progbits,_ZNSt8_Rb_treeINSt7__cxx1112basic_stringIcSt11char_traitsIcESaIcEEESt4pairIKS5_P8gzFile_sESt10_Select1stISA_ESt4lessIS5_ESaISA_EE11_M_put_nodeEPSt13_Rb_tree_nodeISA_E,comdat
	.weak	_ZNSt8_Rb_treeINSt7__cxx1112basic_stringIcSt11char_traitsIcESaIcEEESt4pairIKS5_P8gzFile_sESt10_Select1stISA_ESt4lessIS5_ESaISA_EE11_M_put_nodeEPSt13_Rb_tree_nodeISA_E # -- Begin function _ZNSt8_Rb_treeINSt7__cxx1112basic_stringIcSt11char_traitsIcESaIcEEESt4pairIKS5_P8gzFile_sESt10_Select1stISA_ESt4lessIS5_ESaISA_EE11_M_put_nodeEPSt13_Rb_tree_nodeISA_E
	.p2align	4, 0x90
	.type	_ZNSt8_Rb_treeINSt7__cxx1112basic_stringIcSt11char_traitsIcESaIcEEESt4pairIKS5_P8gzFile_sESt10_Select1stISA_ESt4lessIS5_ESaISA_EE11_M_put_nodeEPSt13_Rb_tree_nodeISA_E,@function
_ZNSt8_Rb_treeINSt7__cxx1112basic_stringIcSt11char_traitsIcESaIcEEESt4pairIKS5_P8gzFile_sESt10_Select1stISA_ESt4lessIS5_ESaISA_EE11_M_put_nodeEPSt13_Rb_tree_nodeISA_E: # @_ZNSt8_Rb_treeINSt7__cxx1112basic_stringIcSt11char_traitsIcESaIcEEESt4pairIKS5_P8gzFile_sESt10_Select1stISA_ESt4lessIS5_ESaISA_EE11_M_put_nodeEPSt13_Rb_tree_nodeISA_E
.Lfunc_begin56:
	.cfi_startproc
	.cfi_personality 3, __gxx_personality_v0
	.cfi_lsda 3, .Lexception2
# %bb.0:
	pushq	%rbx
	.cfi_def_cfa_offset 16
	.cfi_offset %rbx, -16
	movq	%rsi, %rbx
	callq	_ZNSt8_Rb_treeINSt7__cxx1112basic_stringIcSt11char_traitsIcESaIcEEESt4pairIKS5_P8gzFile_sESt10_Select1stISA_ESt4lessIS5_ESaISA_EE21_M_get_Node_allocatorEv
.Ltmp205:
	movl	$1, %edx
	movq	%rax, %rdi
	movq	%rbx, %rsi
	callq	_ZNSt16allocator_traitsISaISt13_Rb_tree_nodeISt4pairIKNSt7__cxx1112basic_stringIcSt11char_traitsIcESaIcEEEP8gzFile_sEEEE10deallocateERSD_PSC_m
.Ltmp206:
# %bb.1:
	popq	%rbx
	retq
.LBB56_2:
.Ltmp207:
	movq	%rax, %rdi
	callq	__clang_call_terminate
.Lfunc_end56:
	.size	_ZNSt8_Rb_treeINSt7__cxx1112basic_stringIcSt11char_traitsIcESaIcEEESt4pairIKS5_P8gzFile_sESt10_Select1stISA_ESt4lessIS5_ESaISA_EE11_M_put_nodeEPSt13_Rb_tree_nodeISA_E, .Lfunc_end56-_ZNSt8_Rb_treeINSt7__cxx1112basic_stringIcSt11char_traitsIcESaIcEEESt4pairIKS5_P8gzFile_sESt10_Select1stISA_ESt4lessIS5_ESaISA_EE11_M_put_nodeEPSt13_Rb_tree_nodeISA_E
	.cfi_endproc
	.section	.gcc_except_table,"a",@progbits
	.p2align	2
GCC_except_table56:
.Lexception2:
	.byte	255                     # @LPStart Encoding = omit
	.byte	3                       # @TType Encoding = udata4
	.byte	21                      # @TType base offset
	.byte	3                       # Call site Encoding = udata4
	.byte	13                      # Call site table length
	.long	.Ltmp205-.Lfunc_begin56 # >> Call Site 1 <<
	.long	.Ltmp206-.Ltmp205       #   Call between .Ltmp205 and .Ltmp206
	.long	.Ltmp207-.Lfunc_begin56 #     jumps to .Ltmp207
	.byte	1                       #   On action: 1
	.byte	1                       # >> Action Record 1 <<
                                        #   Catch TypeInfo 1
	.byte	0                       #   No further actions
                                        # >> Catch TypeInfos <<
	.long	0                       # TypeInfo 1
	.p2align	2
                                        # -- End function
	.section	.text._ZNSt8_Rb_treeINSt7__cxx1112basic_stringIcSt11char_traitsIcESaIcEEESt4pairIKS5_P8gzFile_sESt10_Select1stISA_ESt4lessIS5_ESaISA_EE21_M_get_Node_allocatorEv,"axG",@progbits,_ZNSt8_Rb_treeINSt7__cxx1112basic_stringIcSt11char_traitsIcESaIcEEESt4pairIKS5_P8gzFile_sESt10_Select1stISA_ESt4lessIS5_ESaISA_EE21_M_get_Node_allocatorEv,comdat
	.weak	_ZNSt8_Rb_treeINSt7__cxx1112basic_stringIcSt11char_traitsIcESaIcEEESt4pairIKS5_P8gzFile_sESt10_Select1stISA_ESt4lessIS5_ESaISA_EE21_M_get_Node_allocatorEv # -- Begin function _ZNSt8_Rb_treeINSt7__cxx1112basic_stringIcSt11char_traitsIcESaIcEEESt4pairIKS5_P8gzFile_sESt10_Select1stISA_ESt4lessIS5_ESaISA_EE21_M_get_Node_allocatorEv
	.p2align	4, 0x90
	.type	_ZNSt8_Rb_treeINSt7__cxx1112basic_stringIcSt11char_traitsIcESaIcEEESt4pairIKS5_P8gzFile_sESt10_Select1stISA_ESt4lessIS5_ESaISA_EE21_M_get_Node_allocatorEv,@function
_ZNSt8_Rb_treeINSt7__cxx1112basic_stringIcSt11char_traitsIcESaIcEEESt4pairIKS5_P8gzFile_sESt10_Select1stISA_ESt4lessIS5_ESaISA_EE21_M_get_Node_allocatorEv: # @_ZNSt8_Rb_treeINSt7__cxx1112basic_stringIcSt11char_traitsIcESaIcEEESt4pairIKS5_P8gzFile_sESt10_Select1stISA_ESt4lessIS5_ESaISA_EE21_M_get_Node_allocatorEv
.Lfunc_begin57:
	.cfi_startproc
# %bb.0:
	movq	%rdi, %rax
	retq
.Lfunc_end57:
	.size	_ZNSt8_Rb_treeINSt7__cxx1112basic_stringIcSt11char_traitsIcESaIcEEESt4pairIKS5_P8gzFile_sESt10_Select1stISA_ESt4lessIS5_ESaISA_EE21_M_get_Node_allocatorEv, .Lfunc_end57-_ZNSt8_Rb_treeINSt7__cxx1112basic_stringIcSt11char_traitsIcESaIcEEESt4pairIKS5_P8gzFile_sESt10_Select1stISA_ESt4lessIS5_ESaISA_EE21_M_get_Node_allocatorEv
	.cfi_endproc
                                        # -- End function
	.section	.text._ZNSt16allocator_traitsISaISt13_Rb_tree_nodeISt4pairIKNSt7__cxx1112basic_stringIcSt11char_traitsIcESaIcEEEP8gzFile_sEEEE10deallocateERSD_PSC_m,"axG",@progbits,_ZNSt16allocator_traitsISaISt13_Rb_tree_nodeISt4pairIKNSt7__cxx1112basic_stringIcSt11char_traitsIcESaIcEEEP8gzFile_sEEEE10deallocateERSD_PSC_m,comdat
	.weak	_ZNSt16allocator_traitsISaISt13_Rb_tree_nodeISt4pairIKNSt7__cxx1112basic_stringIcSt11char_traitsIcESaIcEEEP8gzFile_sEEEE10deallocateERSD_PSC_m # -- Begin function _ZNSt16allocator_traitsISaISt13_Rb_tree_nodeISt4pairIKNSt7__cxx1112basic_stringIcSt11char_traitsIcESaIcEEEP8gzFile_sEEEE10deallocateERSD_PSC_m
	.p2align	4, 0x90
	.type	_ZNSt16allocator_traitsISaISt13_Rb_tree_nodeISt4pairIKNSt7__cxx1112basic_stringIcSt11char_traitsIcESaIcEEEP8gzFile_sEEEE10deallocateERSD_PSC_m,@function
_ZNSt16allocator_traitsISaISt13_Rb_tree_nodeISt4pairIKNSt7__cxx1112basic_stringIcSt11char_traitsIcESaIcEEEP8gzFile_sEEEE10deallocateERSD_PSC_m: # @_ZNSt16allocator_traitsISaISt13_Rb_tree_nodeISt4pairIKNSt7__cxx1112basic_stringIcSt11char_traitsIcESaIcEEEP8gzFile_sEEEE10deallocateERSD_PSC_m
.Lfunc_begin58:
	.cfi_startproc
# %bb.0:
	jmp	_ZN9__gnu_cxx13new_allocatorISt13_Rb_tree_nodeISt4pairIKNSt7__cxx1112basic_stringIcSt11char_traitsIcESaIcEEEP8gzFile_sEEE10deallocateEPSD_m # TAILCALL
.Lfunc_end58:
	.size	_ZNSt16allocator_traitsISaISt13_Rb_tree_nodeISt4pairIKNSt7__cxx1112basic_stringIcSt11char_traitsIcESaIcEEEP8gzFile_sEEEE10deallocateERSD_PSC_m, .Lfunc_end58-_ZNSt16allocator_traitsISaISt13_Rb_tree_nodeISt4pairIKNSt7__cxx1112basic_stringIcSt11char_traitsIcESaIcEEEP8gzFile_sEEEE10deallocateERSD_PSC_m
	.cfi_endproc
                                        # -- End function
	.section	.text._ZN9__gnu_cxx13new_allocatorISt13_Rb_tree_nodeISt4pairIKNSt7__cxx1112basic_stringIcSt11char_traitsIcESaIcEEEP8gzFile_sEEE10deallocateEPSD_m,"axG",@progbits,_ZN9__gnu_cxx13new_allocatorISt13_Rb_tree_nodeISt4pairIKNSt7__cxx1112basic_stringIcSt11char_traitsIcESaIcEEEP8gzFile_sEEE10deallocateEPSD_m,comdat
	.weak	_ZN9__gnu_cxx13new_allocatorISt13_Rb_tree_nodeISt4pairIKNSt7__cxx1112basic_stringIcSt11char_traitsIcESaIcEEEP8gzFile_sEEE10deallocateEPSD_m # -- Begin function _ZN9__gnu_cxx13new_allocatorISt13_Rb_tree_nodeISt4pairIKNSt7__cxx1112basic_stringIcSt11char_traitsIcESaIcEEEP8gzFile_sEEE10deallocateEPSD_m
	.p2align	4, 0x90
	.type	_ZN9__gnu_cxx13new_allocatorISt13_Rb_tree_nodeISt4pairIKNSt7__cxx1112basic_stringIcSt11char_traitsIcESaIcEEEP8gzFile_sEEE10deallocateEPSD_m,@function
_ZN9__gnu_cxx13new_allocatorISt13_Rb_tree_nodeISt4pairIKNSt7__cxx1112basic_stringIcSt11char_traitsIcESaIcEEEP8gzFile_sEEE10deallocateEPSD_m: # @_ZN9__gnu_cxx13new_allocatorISt13_Rb_tree_nodeISt4pairIKNSt7__cxx1112basic_stringIcSt11char_traitsIcESaIcEEEP8gzFile_sEEE10deallocateEPSD_m
.Lfunc_begin59:
	.cfi_startproc
# %bb.0:
	movq	%rsi, %rdi
	jmp	_ZdlPv                  # TAILCALL
.Lfunc_end59:
	.size	_ZN9__gnu_cxx13new_allocatorISt13_Rb_tree_nodeISt4pairIKNSt7__cxx1112basic_stringIcSt11char_traitsIcESaIcEEEP8gzFile_sEEE10deallocateEPSD_m, .Lfunc_end59-_ZN9__gnu_cxx13new_allocatorISt13_Rb_tree_nodeISt4pairIKNSt7__cxx1112basic_stringIcSt11char_traitsIcESaIcEEEP8gzFile_sEEE10deallocateEPSD_m
	.cfi_endproc
                                        # -- End function
	.section	.text._ZNSt13_Rb_tree_nodeISt4pairIKNSt7__cxx1112basic_stringIcSt11char_traitsIcESaIcEEEP8gzFile_sEE9_M_valptrEv,"axG",@progbits,_ZNSt13_Rb_tree_nodeISt4pairIKNSt7__cxx1112basic_stringIcSt11char_traitsIcESaIcEEEP8gzFile_sEE9_M_valptrEv,comdat
	.weak	_ZNSt13_Rb_tree_nodeISt4pairIKNSt7__cxx1112basic_stringIcSt11char_traitsIcESaIcEEEP8gzFile_sEE9_M_valptrEv # -- Begin function _ZNSt13_Rb_tree_nodeISt4pairIKNSt7__cxx1112basic_stringIcSt11char_traitsIcESaIcEEEP8gzFile_sEE9_M_valptrEv
	.p2align	4, 0x90
	.type	_ZNSt13_Rb_tree_nodeISt4pairIKNSt7__cxx1112basic_stringIcSt11char_traitsIcESaIcEEEP8gzFile_sEE9_M_valptrEv,@function
_ZNSt13_Rb_tree_nodeISt4pairIKNSt7__cxx1112basic_stringIcSt11char_traitsIcESaIcEEEP8gzFile_sEE9_M_valptrEv: # @_ZNSt13_Rb_tree_nodeISt4pairIKNSt7__cxx1112basic_stringIcSt11char_traitsIcESaIcEEEP8gzFile_sEE9_M_valptrEv
.Lfunc_begin60:
	.cfi_startproc
# %bb.0:
	addq	$32, %rdi
	jmp	_ZN9__gnu_cxx16__aligned_membufISt4pairIKNSt7__cxx1112basic_stringIcSt11char_traitsIcESaIcEEEP8gzFile_sEE6_M_ptrEv # TAILCALL
.Lfunc_end60:
	.size	_ZNSt13_Rb_tree_nodeISt4pairIKNSt7__cxx1112basic_stringIcSt11char_traitsIcESaIcEEEP8gzFile_sEE9_M_valptrEv, .Lfunc_end60-_ZNSt13_Rb_tree_nodeISt4pairIKNSt7__cxx1112basic_stringIcSt11char_traitsIcESaIcEEEP8gzFile_sEE9_M_valptrEv
	.cfi_endproc
                                        # -- End function
	.section	.text._ZNSt16allocator_traitsISaISt13_Rb_tree_nodeISt4pairIKNSt7__cxx1112basic_stringIcSt11char_traitsIcESaIcEEEP8gzFile_sEEEE7destroyISB_EEvRSD_PT_,"axG",@progbits,_ZNSt16allocator_traitsISaISt13_Rb_tree_nodeISt4pairIKNSt7__cxx1112basic_stringIcSt11char_traitsIcESaIcEEEP8gzFile_sEEEE7destroyISB_EEvRSD_PT_,comdat
	.weak	_ZNSt16allocator_traitsISaISt13_Rb_tree_nodeISt4pairIKNSt7__cxx1112basic_stringIcSt11char_traitsIcESaIcEEEP8gzFile_sEEEE7destroyISB_EEvRSD_PT_ # -- Begin function _ZNSt16allocator_traitsISaISt13_Rb_tree_nodeISt4pairIKNSt7__cxx1112basic_stringIcSt11char_traitsIcESaIcEEEP8gzFile_sEEEE7destroyISB_EEvRSD_PT_
	.p2align	4, 0x90
	.type	_ZNSt16allocator_traitsISaISt13_Rb_tree_nodeISt4pairIKNSt7__cxx1112basic_stringIcSt11char_traitsIcESaIcEEEP8gzFile_sEEEE7destroyISB_EEvRSD_PT_,@function
_ZNSt16allocator_traitsISaISt13_Rb_tree_nodeISt4pairIKNSt7__cxx1112basic_stringIcSt11char_traitsIcESaIcEEEP8gzFile_sEEEE7destroyISB_EEvRSD_PT_: # @_ZNSt16allocator_traitsISaISt13_Rb_tree_nodeISt4pairIKNSt7__cxx1112basic_stringIcSt11char_traitsIcESaIcEEEP8gzFile_sEEEE7destroyISB_EEvRSD_PT_
.Lfunc_begin61:
	.cfi_startproc
# %bb.0:
	jmp	_ZN9__gnu_cxx13new_allocatorISt13_Rb_tree_nodeISt4pairIKNSt7__cxx1112basic_stringIcSt11char_traitsIcESaIcEEEP8gzFile_sEEE7destroyISC_EEvPT_ # TAILCALL
.Lfunc_end61:
	.size	_ZNSt16allocator_traitsISaISt13_Rb_tree_nodeISt4pairIKNSt7__cxx1112basic_stringIcSt11char_traitsIcESaIcEEEP8gzFile_sEEEE7destroyISB_EEvRSD_PT_, .Lfunc_end61-_ZNSt16allocator_traitsISaISt13_Rb_tree_nodeISt4pairIKNSt7__cxx1112basic_stringIcSt11char_traitsIcESaIcEEEP8gzFile_sEEEE7destroyISB_EEvRSD_PT_
	.cfi_endproc
                                        # -- End function
	.section	.text._ZN9__gnu_cxx13new_allocatorISt13_Rb_tree_nodeISt4pairIKNSt7__cxx1112basic_stringIcSt11char_traitsIcESaIcEEEP8gzFile_sEEE7destroyISC_EEvPT_,"axG",@progbits,_ZN9__gnu_cxx13new_allocatorISt13_Rb_tree_nodeISt4pairIKNSt7__cxx1112basic_stringIcSt11char_traitsIcESaIcEEEP8gzFile_sEEE7destroyISC_EEvPT_,comdat
	.weak	_ZN9__gnu_cxx13new_allocatorISt13_Rb_tree_nodeISt4pairIKNSt7__cxx1112basic_stringIcSt11char_traitsIcESaIcEEEP8gzFile_sEEE7destroyISC_EEvPT_ # -- Begin function _ZN9__gnu_cxx13new_allocatorISt13_Rb_tree_nodeISt4pairIKNSt7__cxx1112basic_stringIcSt11char_traitsIcESaIcEEEP8gzFile_sEEE7destroyISC_EEvPT_
	.p2align	4, 0x90
	.type	_ZN9__gnu_cxx13new_allocatorISt13_Rb_tree_nodeISt4pairIKNSt7__cxx1112basic_stringIcSt11char_traitsIcESaIcEEEP8gzFile_sEEE7destroyISC_EEvPT_,@function
_ZN9__gnu_cxx13new_allocatorISt13_Rb_tree_nodeISt4pairIKNSt7__cxx1112basic_stringIcSt11char_traitsIcESaIcEEEP8gzFile_sEEE7destroyISC_EEvPT_: # @_ZN9__gnu_cxx13new_allocatorISt13_Rb_tree_nodeISt4pairIKNSt7__cxx1112basic_stringIcSt11char_traitsIcESaIcEEEP8gzFile_sEEE7destroyISC_EEvPT_
.Lfunc_begin62:
	.cfi_startproc
# %bb.0:
	movq	%rsi, %rdi
	jmp	_ZNSt4pairIKNSt7__cxx1112basic_stringIcSt11char_traitsIcESaIcEEEP8gzFile_sED2Ev # TAILCALL
.Lfunc_end62:
	.size	_ZN9__gnu_cxx13new_allocatorISt13_Rb_tree_nodeISt4pairIKNSt7__cxx1112basic_stringIcSt11char_traitsIcESaIcEEEP8gzFile_sEEE7destroyISC_EEvPT_, .Lfunc_end62-_ZN9__gnu_cxx13new_allocatorISt13_Rb_tree_nodeISt4pairIKNSt7__cxx1112basic_stringIcSt11char_traitsIcESaIcEEEP8gzFile_sEEE7destroyISC_EEvPT_
	.cfi_endproc
                                        # -- End function
	.section	.text._ZNSt4pairIKNSt7__cxx1112basic_stringIcSt11char_traitsIcESaIcEEEP8gzFile_sED2Ev,"axG",@progbits,_ZNSt4pairIKNSt7__cxx1112basic_stringIcSt11char_traitsIcESaIcEEEP8gzFile_sED2Ev,comdat
	.weak	_ZNSt4pairIKNSt7__cxx1112basic_stringIcSt11char_traitsIcESaIcEEEP8gzFile_sED2Ev # -- Begin function _ZNSt4pairIKNSt7__cxx1112basic_stringIcSt11char_traitsIcESaIcEEEP8gzFile_sED2Ev
	.p2align	4, 0x90
	.type	_ZNSt4pairIKNSt7__cxx1112basic_stringIcSt11char_traitsIcESaIcEEEP8gzFile_sED2Ev,@function
_ZNSt4pairIKNSt7__cxx1112basic_stringIcSt11char_traitsIcESaIcEEEP8gzFile_sED2Ev: # @_ZNSt4pairIKNSt7__cxx1112basic_stringIcSt11char_traitsIcESaIcEEEP8gzFile_sED2Ev
.Lfunc_begin63:
	.cfi_startproc
# %bb.0:
	jmp	_ZNSt7__cxx1112basic_stringIcSt11char_traitsIcESaIcEED2Ev # TAILCALL
.Lfunc_end63:
	.size	_ZNSt4pairIKNSt7__cxx1112basic_stringIcSt11char_traitsIcESaIcEEEP8gzFile_sED2Ev, .Lfunc_end63-_ZNSt4pairIKNSt7__cxx1112basic_stringIcSt11char_traitsIcESaIcEEEP8gzFile_sED2Ev
	.cfi_endproc
                                        # -- End function
	.section	.text._ZN9__gnu_cxx16__aligned_membufISt4pairIKNSt7__cxx1112basic_stringIcSt11char_traitsIcESaIcEEEP8gzFile_sEE6_M_ptrEv,"axG",@progbits,_ZN9__gnu_cxx16__aligned_membufISt4pairIKNSt7__cxx1112basic_stringIcSt11char_traitsIcESaIcEEEP8gzFile_sEE6_M_ptrEv,comdat
	.weak	_ZN9__gnu_cxx16__aligned_membufISt4pairIKNSt7__cxx1112basic_stringIcSt11char_traitsIcESaIcEEEP8gzFile_sEE6_M_ptrEv # -- Begin function _ZN9__gnu_cxx16__aligned_membufISt4pairIKNSt7__cxx1112basic_stringIcSt11char_traitsIcESaIcEEEP8gzFile_sEE6_M_ptrEv
	.p2align	4, 0x90
	.type	_ZN9__gnu_cxx16__aligned_membufISt4pairIKNSt7__cxx1112basic_stringIcSt11char_traitsIcESaIcEEEP8gzFile_sEE6_M_ptrEv,@function
_ZN9__gnu_cxx16__aligned_membufISt4pairIKNSt7__cxx1112basic_stringIcSt11char_traitsIcESaIcEEEP8gzFile_sEE6_M_ptrEv: # @_ZN9__gnu_cxx16__aligned_membufISt4pairIKNSt7__cxx1112basic_stringIcSt11char_traitsIcESaIcEEEP8gzFile_sEE6_M_ptrEv
.Lfunc_begin64:
	.cfi_startproc
# %bb.0:
	jmp	_ZN9__gnu_cxx16__aligned_membufISt4pairIKNSt7__cxx1112basic_stringIcSt11char_traitsIcESaIcEEEP8gzFile_sEE7_M_addrEv # TAILCALL
.Lfunc_end64:
	.size	_ZN9__gnu_cxx16__aligned_membufISt4pairIKNSt7__cxx1112basic_stringIcSt11char_traitsIcESaIcEEEP8gzFile_sEE6_M_ptrEv, .Lfunc_end64-_ZN9__gnu_cxx16__aligned_membufISt4pairIKNSt7__cxx1112basic_stringIcSt11char_traitsIcESaIcEEEP8gzFile_sEE6_M_ptrEv
	.cfi_endproc
                                        # -- End function
	.section	.text._ZN9__gnu_cxx16__aligned_membufISt4pairIKNSt7__cxx1112basic_stringIcSt11char_traitsIcESaIcEEEP8gzFile_sEE7_M_addrEv,"axG",@progbits,_ZN9__gnu_cxx16__aligned_membufISt4pairIKNSt7__cxx1112basic_stringIcSt11char_traitsIcESaIcEEEP8gzFile_sEE7_M_addrEv,comdat
	.weak	_ZN9__gnu_cxx16__aligned_membufISt4pairIKNSt7__cxx1112basic_stringIcSt11char_traitsIcESaIcEEEP8gzFile_sEE7_M_addrEv # -- Begin function _ZN9__gnu_cxx16__aligned_membufISt4pairIKNSt7__cxx1112basic_stringIcSt11char_traitsIcESaIcEEEP8gzFile_sEE7_M_addrEv
	.p2align	4, 0x90
	.type	_ZN9__gnu_cxx16__aligned_membufISt4pairIKNSt7__cxx1112basic_stringIcSt11char_traitsIcESaIcEEEP8gzFile_sEE7_M_addrEv,@function
_ZN9__gnu_cxx16__aligned_membufISt4pairIKNSt7__cxx1112basic_stringIcSt11char_traitsIcESaIcEEEP8gzFile_sEE7_M_addrEv: # @_ZN9__gnu_cxx16__aligned_membufISt4pairIKNSt7__cxx1112basic_stringIcSt11char_traitsIcESaIcEEEP8gzFile_sEE7_M_addrEv
.Lfunc_begin65:
	.cfi_startproc
# %bb.0:
	movq	%rdi, %rax
	retq
.Lfunc_end65:
	.size	_ZN9__gnu_cxx16__aligned_membufISt4pairIKNSt7__cxx1112basic_stringIcSt11char_traitsIcESaIcEEEP8gzFile_sEE7_M_addrEv, .Lfunc_end65-_ZN9__gnu_cxx16__aligned_membufISt4pairIKNSt7__cxx1112basic_stringIcSt11char_traitsIcESaIcEEEP8gzFile_sEE7_M_addrEv
	.cfi_endproc
                                        # -- End function
	.section	.text._ZNSt8_Rb_treeINSt7__cxx1112basic_stringIcSt11char_traitsIcESaIcEEESt4pairIKS5_P8gzFile_sESt10_Select1stISA_ESt4lessIS5_ESaISA_EEC2Ev,"axG",@progbits,_ZNSt8_Rb_treeINSt7__cxx1112basic_stringIcSt11char_traitsIcESaIcEEESt4pairIKS5_P8gzFile_sESt10_Select1stISA_ESt4lessIS5_ESaISA_EEC2Ev,comdat
	.weak	_ZNSt8_Rb_treeINSt7__cxx1112basic_stringIcSt11char_traitsIcESaIcEEESt4pairIKS5_P8gzFile_sESt10_Select1stISA_ESt4lessIS5_ESaISA_EEC2Ev # -- Begin function _ZNSt8_Rb_treeINSt7__cxx1112basic_stringIcSt11char_traitsIcESaIcEEESt4pairIKS5_P8gzFile_sESt10_Select1stISA_ESt4lessIS5_ESaISA_EEC2Ev
	.p2align	4, 0x90
	.type	_ZNSt8_Rb_treeINSt7__cxx1112basic_stringIcSt11char_traitsIcESaIcEEESt4pairIKS5_P8gzFile_sESt10_Select1stISA_ESt4lessIS5_ESaISA_EEC2Ev,@function
_ZNSt8_Rb_treeINSt7__cxx1112basic_stringIcSt11char_traitsIcESaIcEEESt4pairIKS5_P8gzFile_sESt10_Select1stISA_ESt4lessIS5_ESaISA_EEC2Ev: # @_ZNSt8_Rb_treeINSt7__cxx1112basic_stringIcSt11char_traitsIcESaIcEEESt4pairIKS5_P8gzFile_sESt10_Select1stISA_ESt4lessIS5_ESaISA_EEC2Ev
.Lfunc_begin66:
	.cfi_startproc
# %bb.0:
	jmp	_ZNSt8_Rb_treeINSt7__cxx1112basic_stringIcSt11char_traitsIcESaIcEEESt4pairIKS5_P8gzFile_sESt10_Select1stISA_ESt4lessIS5_ESaISA_EE13_Rb_tree_implISE_Lb1EEC2Ev # TAILCALL
.Lfunc_end66:
	.size	_ZNSt8_Rb_treeINSt7__cxx1112basic_stringIcSt11char_traitsIcESaIcEEESt4pairIKS5_P8gzFile_sESt10_Select1stISA_ESt4lessIS5_ESaISA_EEC2Ev, .Lfunc_end66-_ZNSt8_Rb_treeINSt7__cxx1112basic_stringIcSt11char_traitsIcESaIcEEESt4pairIKS5_P8gzFile_sESt10_Select1stISA_ESt4lessIS5_ESaISA_EEC2Ev
	.cfi_endproc
                                        # -- End function
	.section	.text._ZNSt8_Rb_treeINSt7__cxx1112basic_stringIcSt11char_traitsIcESaIcEEESt4pairIKS5_P8gzFile_sESt10_Select1stISA_ESt4lessIS5_ESaISA_EE13_Rb_tree_implISE_Lb1EEC2Ev,"axG",@progbits,_ZNSt8_Rb_treeINSt7__cxx1112basic_stringIcSt11char_traitsIcESaIcEEESt4pairIKS5_P8gzFile_sESt10_Select1stISA_ESt4lessIS5_ESaISA_EE13_Rb_tree_implISE_Lb1EEC2Ev,comdat
	.weak	_ZNSt8_Rb_treeINSt7__cxx1112basic_stringIcSt11char_traitsIcESaIcEEESt4pairIKS5_P8gzFile_sESt10_Select1stISA_ESt4lessIS5_ESaISA_EE13_Rb_tree_implISE_Lb1EEC2Ev # -- Begin function _ZNSt8_Rb_treeINSt7__cxx1112basic_stringIcSt11char_traitsIcESaIcEEESt4pairIKS5_P8gzFile_sESt10_Select1stISA_ESt4lessIS5_ESaISA_EE13_Rb_tree_implISE_Lb1EEC2Ev
	.p2align	4, 0x90
	.type	_ZNSt8_Rb_treeINSt7__cxx1112basic_stringIcSt11char_traitsIcESaIcEEESt4pairIKS5_P8gzFile_sESt10_Select1stISA_ESt4lessIS5_ESaISA_EE13_Rb_tree_implISE_Lb1EEC2Ev,@function
_ZNSt8_Rb_treeINSt7__cxx1112basic_stringIcSt11char_traitsIcESaIcEEESt4pairIKS5_P8gzFile_sESt10_Select1stISA_ESt4lessIS5_ESaISA_EE13_Rb_tree_implISE_Lb1EEC2Ev: # @_ZNSt8_Rb_treeINSt7__cxx1112basic_stringIcSt11char_traitsIcESaIcEEESt4pairIKS5_P8gzFile_sESt10_Select1stISA_ESt4lessIS5_ESaISA_EE13_Rb_tree_implISE_Lb1EEC2Ev
.Lfunc_begin67:
	.cfi_startproc
# %bb.0:
	pushq	%rbx
	.cfi_def_cfa_offset 16
	.cfi_offset %rbx, -16
	movq	%rdi, %rbx
	callq	_ZNSaISt13_Rb_tree_nodeISt4pairIKNSt7__cxx1112basic_stringIcSt11char_traitsIcESaIcEEEP8gzFile_sEEEC2Ev
	movq	%rbx, %rdi
	callq	_ZNSt20_Rb_tree_key_compareISt4lessINSt7__cxx1112basic_stringIcSt11char_traitsIcESaIcEEEEEC2Ev
	addq	$8, %rbx
	movq	%rbx, %rdi
	popq	%rbx
	jmp	_ZNSt15_Rb_tree_headerC2Ev # TAILCALL
.Lfunc_end67:
	.size	_ZNSt8_Rb_treeINSt7__cxx1112basic_stringIcSt11char_traitsIcESaIcEEESt4pairIKS5_P8gzFile_sESt10_Select1stISA_ESt4lessIS5_ESaISA_EE13_Rb_tree_implISE_Lb1EEC2Ev, .Lfunc_end67-_ZNSt8_Rb_treeINSt7__cxx1112basic_stringIcSt11char_traitsIcESaIcEEESt4pairIKS5_P8gzFile_sESt10_Select1stISA_ESt4lessIS5_ESaISA_EE13_Rb_tree_implISE_Lb1EEC2Ev
	.cfi_endproc
                                        # -- End function
	.section	.text._ZNSaISt13_Rb_tree_nodeISt4pairIKNSt7__cxx1112basic_stringIcSt11char_traitsIcESaIcEEEP8gzFile_sEEEC2Ev,"axG",@progbits,_ZNSaISt13_Rb_tree_nodeISt4pairIKNSt7__cxx1112basic_stringIcSt11char_traitsIcESaIcEEEP8gzFile_sEEEC2Ev,comdat
	.weak	_ZNSaISt13_Rb_tree_nodeISt4pairIKNSt7__cxx1112basic_stringIcSt11char_traitsIcESaIcEEEP8gzFile_sEEEC2Ev # -- Begin function _ZNSaISt13_Rb_tree_nodeISt4pairIKNSt7__cxx1112basic_stringIcSt11char_traitsIcESaIcEEEP8gzFile_sEEEC2Ev
	.p2align	4, 0x90
	.type	_ZNSaISt13_Rb_tree_nodeISt4pairIKNSt7__cxx1112basic_stringIcSt11char_traitsIcESaIcEEEP8gzFile_sEEEC2Ev,@function
_ZNSaISt13_Rb_tree_nodeISt4pairIKNSt7__cxx1112basic_stringIcSt11char_traitsIcESaIcEEEP8gzFile_sEEEC2Ev: # @_ZNSaISt13_Rb_tree_nodeISt4pairIKNSt7__cxx1112basic_stringIcSt11char_traitsIcESaIcEEEP8gzFile_sEEEC2Ev
.Lfunc_begin68:
	.cfi_startproc
# %bb.0:
	jmp	_ZN9__gnu_cxx13new_allocatorISt13_Rb_tree_nodeISt4pairIKNSt7__cxx1112basic_stringIcSt11char_traitsIcESaIcEEEP8gzFile_sEEEC2Ev # TAILCALL
.Lfunc_end68:
	.size	_ZNSaISt13_Rb_tree_nodeISt4pairIKNSt7__cxx1112basic_stringIcSt11char_traitsIcESaIcEEEP8gzFile_sEEEC2Ev, .Lfunc_end68-_ZNSaISt13_Rb_tree_nodeISt4pairIKNSt7__cxx1112basic_stringIcSt11char_traitsIcESaIcEEEP8gzFile_sEEEC2Ev
	.cfi_endproc
                                        # -- End function
	.section	.text._ZNSt20_Rb_tree_key_compareISt4lessINSt7__cxx1112basic_stringIcSt11char_traitsIcESaIcEEEEEC2Ev,"axG",@progbits,_ZNSt20_Rb_tree_key_compareISt4lessINSt7__cxx1112basic_stringIcSt11char_traitsIcESaIcEEEEEC2Ev,comdat
	.weak	_ZNSt20_Rb_tree_key_compareISt4lessINSt7__cxx1112basic_stringIcSt11char_traitsIcESaIcEEEEEC2Ev # -- Begin function _ZNSt20_Rb_tree_key_compareISt4lessINSt7__cxx1112basic_stringIcSt11char_traitsIcESaIcEEEEEC2Ev
	.p2align	4, 0x90
	.type	_ZNSt20_Rb_tree_key_compareISt4lessINSt7__cxx1112basic_stringIcSt11char_traitsIcESaIcEEEEEC2Ev,@function
_ZNSt20_Rb_tree_key_compareISt4lessINSt7__cxx1112basic_stringIcSt11char_traitsIcESaIcEEEEEC2Ev: # @_ZNSt20_Rb_tree_key_compareISt4lessINSt7__cxx1112basic_stringIcSt11char_traitsIcESaIcEEEEEC2Ev
.Lfunc_begin69:
	.cfi_startproc
# %bb.0:
	retq
.Lfunc_end69:
	.size	_ZNSt20_Rb_tree_key_compareISt4lessINSt7__cxx1112basic_stringIcSt11char_traitsIcESaIcEEEEEC2Ev, .Lfunc_end69-_ZNSt20_Rb_tree_key_compareISt4lessINSt7__cxx1112basic_stringIcSt11char_traitsIcESaIcEEEEEC2Ev
	.cfi_endproc
                                        # -- End function
	.section	.text._ZNSt15_Rb_tree_headerC2Ev,"axG",@progbits,_ZNSt15_Rb_tree_headerC2Ev,comdat
	.weak	_ZNSt15_Rb_tree_headerC2Ev # -- Begin function _ZNSt15_Rb_tree_headerC2Ev
	.p2align	4, 0x90
	.type	_ZNSt15_Rb_tree_headerC2Ev,@function
_ZNSt15_Rb_tree_headerC2Ev:             # @_ZNSt15_Rb_tree_headerC2Ev
.Lfunc_begin70:
	.cfi_startproc
# %bb.0:
	movl	$0, (%rdi)
	jmp	_ZNSt15_Rb_tree_header8_M_resetEv # TAILCALL
.Lfunc_end70:
	.size	_ZNSt15_Rb_tree_headerC2Ev, .Lfunc_end70-_ZNSt15_Rb_tree_headerC2Ev
	.cfi_endproc
                                        # -- End function
	.section	.text._ZNSt15_Rb_tree_header8_M_resetEv,"axG",@progbits,_ZNSt15_Rb_tree_header8_M_resetEv,comdat
	.weak	_ZNSt15_Rb_tree_header8_M_resetEv # -- Begin function _ZNSt15_Rb_tree_header8_M_resetEv
	.p2align	4, 0x90
	.type	_ZNSt15_Rb_tree_header8_M_resetEv,@function
_ZNSt15_Rb_tree_header8_M_resetEv:      # @_ZNSt15_Rb_tree_header8_M_resetEv
.Lfunc_begin71:
	.cfi_startproc
# %bb.0:
	movq	$0, 8(%rdi)
	movq	%rdi, 16(%rdi)
	movq	%rdi, 24(%rdi)
	movq	$0, 32(%rdi)
	retq
.Lfunc_end71:
	.size	_ZNSt15_Rb_tree_header8_M_resetEv, .Lfunc_end71-_ZNSt15_Rb_tree_header8_M_resetEv
	.cfi_endproc
                                        # -- End function
	.section	.text._ZN9__gnu_cxx13new_allocatorISt13_Rb_tree_nodeISt4pairIKNSt7__cxx1112basic_stringIcSt11char_traitsIcESaIcEEEP8gzFile_sEEEC2Ev,"axG",@progbits,_ZN9__gnu_cxx13new_allocatorISt13_Rb_tree_nodeISt4pairIKNSt7__cxx1112basic_stringIcSt11char_traitsIcESaIcEEEP8gzFile_sEEEC2Ev,comdat
	.weak	_ZN9__gnu_cxx13new_allocatorISt13_Rb_tree_nodeISt4pairIKNSt7__cxx1112basic_stringIcSt11char_traitsIcESaIcEEEP8gzFile_sEEEC2Ev # -- Begin function _ZN9__gnu_cxx13new_allocatorISt13_Rb_tree_nodeISt4pairIKNSt7__cxx1112basic_stringIcSt11char_traitsIcESaIcEEEP8gzFile_sEEEC2Ev
	.p2align	4, 0x90
	.type	_ZN9__gnu_cxx13new_allocatorISt13_Rb_tree_nodeISt4pairIKNSt7__cxx1112basic_stringIcSt11char_traitsIcESaIcEEEP8gzFile_sEEEC2Ev,@function
_ZN9__gnu_cxx13new_allocatorISt13_Rb_tree_nodeISt4pairIKNSt7__cxx1112basic_stringIcSt11char_traitsIcESaIcEEEP8gzFile_sEEEC2Ev: # @_ZN9__gnu_cxx13new_allocatorISt13_Rb_tree_nodeISt4pairIKNSt7__cxx1112basic_stringIcSt11char_traitsIcESaIcEEEP8gzFile_sEEEC2Ev
.Lfunc_begin72:
	.cfi_startproc
# %bb.0:
	retq
.Lfunc_end72:
	.size	_ZN9__gnu_cxx13new_allocatorISt13_Rb_tree_nodeISt4pairIKNSt7__cxx1112basic_stringIcSt11char_traitsIcESaIcEEEP8gzFile_sEEEC2Ev, .Lfunc_end72-_ZN9__gnu_cxx13new_allocatorISt13_Rb_tree_nodeISt4pairIKNSt7__cxx1112basic_stringIcSt11char_traitsIcESaIcEEEP8gzFile_sEEEC2Ev
	.cfi_endproc
                                        # -- End function
	.text
	.globl	_Z12create_tracePKc     # -- Begin function _Z12create_tracePKc
	.p2align	4, 0x90
	.type	_Z12create_tracePKc,@function
_Z12create_tracePKc:                    # @_Z12create_tracePKc
.Lfunc_begin73:
	.cfi_startproc
	.cfi_personality 3, __gxx_personality_v0
	.cfi_lsda 3, .Lexception3
# %bb.0:
	pushq	%r14
	.cfi_def_cfa_offset 16
	pushq	%rbx
	.cfi_def_cfa_offset 24
	pushq	%rax
	.cfi_def_cfa_offset 32
	.cfi_offset %rbx, -24
	.cfi_offset %r14, -16
	movq	%rdi, %r14
	callq	_ZTW5trace
	cmpq	$0, (%rax)
	jne	.LBB73_4
# %bb.1:
	movl	$88, %edi
	callq	_Znwm
	movq	%rax, %rbx
.Ltmp208:
	movq	%rbx, %rdi
	movq	%r14, %rsi
	callq	_ZN10trace_infoC2EPKc
.Ltmp209:
# %bb.2:
	callq	_ZTW5trace
	movq	%rbx, (%rax)
	addq	$8, %rsp
	popq	%rbx
	popq	%r14
	retq
.LBB73_4:
	movl	$.L.str.3.98, %edi
	movl	$.L.str.4.99, %esi
	movl	$10, %edx
	movl	$.L__PRETTY_FUNCTION__._Z12create_tracePKc, %ecx
	callq	__assert_fail
.LBB73_3:
.Ltmp210:
	movq	%rax, %r14
	movq	%rbx, %rdi
	callq	_ZdlPv
	movq	%r14, %rdi
	callq	_Unwind_Resume
.Lfunc_end73:
	.size	_Z12create_tracePKc, .Lfunc_end73-_Z12create_tracePKc
	.cfi_endproc
	.section	.gcc_except_table,"a",@progbits
	.p2align	2
GCC_except_table73:
.Lexception3:
	.byte	255                     # @LPStart Encoding = omit
	.byte	3                       # @TType Encoding = udata4
	.byte	41                      # @TType base offset
	.byte	3                       # Call site Encoding = udata4
	.byte	39                      # Call site table length
	.long	.Lfunc_begin73-.Lfunc_begin73 # >> Call Site 1 <<
	.long	.Ltmp208-.Lfunc_begin73 #   Call between .Lfunc_begin73 and .Ltmp208
	.long	0                       #     has no landing pad
	.byte	0                       #   On action: cleanup
	.long	.Ltmp208-.Lfunc_begin73 # >> Call Site 2 <<
	.long	.Ltmp209-.Ltmp208       #   Call between .Ltmp208 and .Ltmp209
	.long	.Ltmp210-.Lfunc_begin73 #     jumps to .Ltmp210
	.byte	0                       #   On action: cleanup
	.long	.Ltmp209-.Lfunc_begin73 # >> Call Site 3 <<
	.long	.Lfunc_end73-.Ltmp209   #   Call between .Ltmp209 and .Lfunc_end73
	.long	0                       #     has no landing pad
	.byte	0                       #   On action: cleanup
	.p2align	2
                                        # -- End function
	.text
	.hidden	_ZTW5trace              # -- Begin function _ZTW5trace
	.weak	_ZTW5trace
	.p2align	4, 0x90
	.type	_ZTW5trace,@function
_ZTW5trace:                             # @_ZTW5trace
.Lfunc_begin74:
	.cfi_startproc
# %bb.0:
	movq	%fs:0, %rax
	leaq	trace@TPOFF(%rax), %rax
	retq
.Lfunc_end74:
	.size	_ZTW5trace, .Lfunc_end74-_ZTW5trace
	.cfi_endproc
                                        # -- End function
	.section	.text._ZN10trace_infoC2EPKc,"axG",@progbits,_ZN10trace_infoC2EPKc,comdat
	.weak	_ZN10trace_infoC2EPKc   # -- Begin function _ZN10trace_infoC2EPKc
	.p2align	4, 0x90
	.type	_ZN10trace_infoC2EPKc,@function
_ZN10trace_infoC2EPKc:                  # @_ZN10trace_infoC2EPKc
.Lfunc_begin75:
	.cfi_startproc
	.cfi_personality 3, __gxx_personality_v0
	.cfi_lsda 3, .Lexception4
# %bb.0:
	pushq	%r15
	.cfi_def_cfa_offset 16
	pushq	%r14
	.cfi_def_cfa_offset 24
	pushq	%rbx
	.cfi_def_cfa_offset 32
	subq	$16, %rsp
	.cfi_def_cfa_offset 48
	.cfi_offset %rbx, -32
	.cfi_offset %r14, -24
	.cfi_offset %r15, -16
	movq	%rsi, %r14
	movq	%rdi, %rbx
	leaq	8(%rsp), %r15
	movq	%r15, %rdi
	callq	_ZNSaIcEC2Ev
.Ltmp211:
	movq	%rbx, %rdi
	movq	%r14, %rsi
	movq	%r15, %rdx
	callq	_ZNSt7__cxx1112basic_stringIcSt11char_traitsIcESaIcEEC2EPKcRKS3_
.Ltmp212:
# %bb.1:
	leaq	8(%rsp), %rdi
	callq	_ZNSaIcED2Ev
	movq	$0, 40(%rbx)
	leaq	48(%rbx), %rdi
	callq	_ZNSt7__cxx1112basic_stringIcSt11char_traitsIcESaIcEEC2Ev
	movl	$1, 80(%rbx)
	addq	$16, %rsp
	popq	%rbx
	popq	%r14
	popq	%r15
	retq
.LBB75_2:
.Ltmp213:
	movq	%rax, %rbx
	leaq	8(%rsp), %rdi
	callq	_ZNSaIcED2Ev
	movq	%rbx, %rdi
	callq	_Unwind_Resume
.Lfunc_end75:
	.size	_ZN10trace_infoC2EPKc, .Lfunc_end75-_ZN10trace_infoC2EPKc
	.cfi_endproc
	.section	.gcc_except_table,"a",@progbits
	.p2align	2
GCC_except_table75:
.Lexception4:
	.byte	255                     # @LPStart Encoding = omit
	.byte	3                       # @TType Encoding = udata4
	.asciz	"\234"                  # @TType base offset
	.byte	3                       # Call site Encoding = udata4
	.byte	26                      # Call site table length
	.long	.Ltmp211-.Lfunc_begin75 # >> Call Site 1 <<
	.long	.Ltmp212-.Ltmp211       #   Call between .Ltmp211 and .Ltmp212
	.long	.Ltmp213-.Lfunc_begin75 #     jumps to .Ltmp213
	.byte	0                       #   On action: cleanup
	.long	.Ltmp212-.Lfunc_begin75 # >> Call Site 2 <<
	.long	.Lfunc_end75-.Ltmp212   #   Call between .Ltmp212 and .Lfunc_end75
	.long	0                       #     has no landing pad
	.byte	0                       #   On action: cleanup
	.p2align	2
                                        # -- End function
	.text
	.globl	_Z14write_labelmapv     # -- Begin function _Z14write_labelmapv
	.p2align	4, 0x90
	.type	_Z14write_labelmapv,@function
_Z14write_labelmapv:                    # @_Z14write_labelmapv
.Lfunc_begin76:
	.cfi_startproc
# %bb.0:
	pushq	%r14
	.cfi_def_cfa_offset 16
	pushq	%rbx
	.cfi_def_cfa_offset 24
	pushq	%rax
	.cfi_def_cfa_offset 32
	.cfi_offset %rbx, -24
	.cfi_offset %r14, -16
	callq	_ZTW5trace
	movq	(%rax), %rax
	movq	32(%rax), %rbx
	movl	$.L.str.5.100, %esi
	movl	$26, %edx
	movq	%rbx, %rdi
	callq	gzwrite
	movl	$_Z12labelmap_strB5cxx11, %edi
	callq	_ZNKSt7__cxx1112basic_stringIcSt11char_traitsIcESaIcEE5c_strEv
	movq	%rax, %r14
	movl	$_Z12labelmap_strB5cxx11, %edi
	callq	_ZNKSt7__cxx1112basic_stringIcSt11char_traitsIcESaIcEE6lengthEv
	movq	%rbx, %rdi
	movq	%r14, %rsi
	movl	%eax, %edx
	callq	gzwrite
	movl	$.L.str.6.101, %esi
	movl	$25, %edx
	movq	%rbx, %rdi
	addq	$8, %rsp
	popq	%rbx
	popq	%r14
	jmp	gzwrite                 # TAILCALL
.Lfunc_end76:
	.size	_Z14write_labelmapv, .Lfunc_end76-_Z14write_labelmapv
	.cfi_endproc
                                        # -- End function
	.globl	_Z15open_trace_filev    # -- Begin function _Z15open_trace_filev
	.p2align	4, 0x90
	.type	_Z15open_trace_filev,@function
_Z15open_trace_filev:                   # @_Z15open_trace_filev
.Lfunc_begin77:
	.cfi_startproc
# %bb.0:
	pushq	%rbx
	.cfi_def_cfa_offset 16
	subq	$16, %rsp
	.cfi_def_cfa_offset 32
	.cfi_offset %rbx, -16
	movl	$lock, %edi
	callq	pthread_mutex_lock
	callq	_ZTW5trace
	movq	(%rax), %rsi
	movl	$_Z8gz_filesB5cxx11, %edi
	callq	_ZNSt3mapINSt7__cxx1112basic_stringIcSt11char_traitsIcESaIcEEEP8gzFile_sSt4lessIS5_ESaISt4pairIKS5_S7_EEE4findERSB_
	movq	%rax, 8(%rsp)
	movl	$_Z8gz_filesB5cxx11, %edi
	callq	_ZNSt3mapINSt7__cxx1112basic_stringIcSt11char_traitsIcESaIcEEEP8gzFile_sSt4lessIS5_ESaISt4pairIKS5_S7_EEE3endEv
	movq	%rax, (%rsp)
	leaq	8(%rsp), %rdi
	movq	%rsp, %rsi
	callq	_ZStneRKSt17_Rb_tree_iteratorISt4pairIKNSt7__cxx1112basic_stringIcSt11char_traitsIcESaIcEEEP8gzFile_sEESD_
	movl	%eax, %ebx
	callq	_ZTW5trace
	movq	(%rax), %rax
	testb	%bl, %bl
	je	.LBB77_2
# %bb.1:
	movl	$_Z8gz_filesB5cxx11, %edi
	movq	%rax, %rsi
	callq	_ZNSt3mapINSt7__cxx1112basic_stringIcSt11char_traitsIcESaIcEEEP8gzFile_sSt4lessIS5_ESaISt4pairIKS5_S7_EEE2atERSB_
	movq	(%rax), %rbx
	callq	_ZTW5trace
	movq	(%rax), %rax
	movq	%rbx, 32(%rax)
	jmp	.LBB77_4
.LBB77_2:
	movq	%rax, %rdi
	callq	_ZNKSt7__cxx1112basic_stringIcSt11char_traitsIcESaIcEE5c_strEv
	movl	$.L.str.7.102, %esi
	movq	%rax, %rdi
	callq	gzopen
	movq	%rax, %rbx
	testq	%rbx, %rbx
	je	.LBB77_5
# %bb.3:
	callq	_ZTW5trace
	movq	(%rax), %rsi
	movl	$_Z8gz_filesB5cxx11, %edi
	callq	_ZNSt3mapINSt7__cxx1112basic_stringIcSt11char_traitsIcESaIcEEEP8gzFile_sSt4lessIS5_ESaISt4pairIKS5_S7_EEEixERSB_
	movq	%rbx, (%rax)
	callq	_ZTW5trace
	movq	(%rax), %rax
	movq	%rbx, 32(%rax)
	callq	_Z14write_labelmapv
.LBB77_4:
	movl	$lock, %edi
	callq	pthread_mutex_unlock
	addq	$16, %rsp
	popq	%rbx
	retq
.LBB77_5:
	movl	$.L.str.8.103, %edi
	callq	perror
	movl	$-1, %edi
	callq	exit
.Lfunc_end77:
	.size	_Z15open_trace_filev, .Lfunc_end77-_Z15open_trace_filev
	.cfi_endproc
                                        # -- End function
	.section	.text._ZNSt3mapINSt7__cxx1112basic_stringIcSt11char_traitsIcESaIcEEEP8gzFile_sSt4lessIS5_ESaISt4pairIKS5_S7_EEE4findERSB_,"axG",@progbits,_ZNSt3mapINSt7__cxx1112basic_stringIcSt11char_traitsIcESaIcEEEP8gzFile_sSt4lessIS5_ESaISt4pairIKS5_S7_EEE4findERSB_,comdat
	.weak	_ZNSt3mapINSt7__cxx1112basic_stringIcSt11char_traitsIcESaIcEEEP8gzFile_sSt4lessIS5_ESaISt4pairIKS5_S7_EEE4findERSB_ # -- Begin function _ZNSt3mapINSt7__cxx1112basic_stringIcSt11char_traitsIcESaIcEEEP8gzFile_sSt4lessIS5_ESaISt4pairIKS5_S7_EEE4findERSB_
	.p2align	4, 0x90
	.type	_ZNSt3mapINSt7__cxx1112basic_stringIcSt11char_traitsIcESaIcEEEP8gzFile_sSt4lessIS5_ESaISt4pairIKS5_S7_EEE4findERSB_,@function
_ZNSt3mapINSt7__cxx1112basic_stringIcSt11char_traitsIcESaIcEEEP8gzFile_sSt4lessIS5_ESaISt4pairIKS5_S7_EEE4findERSB_: # @_ZNSt3mapINSt7__cxx1112basic_stringIcSt11char_traitsIcESaIcEEEP8gzFile_sSt4lessIS5_ESaISt4pairIKS5_S7_EEE4findERSB_
.Lfunc_begin78:
	.cfi_startproc
# %bb.0:
	jmp	_ZNSt8_Rb_treeINSt7__cxx1112basic_stringIcSt11char_traitsIcESaIcEEESt4pairIKS5_P8gzFile_sESt10_Select1stISA_ESt4lessIS5_ESaISA_EE4findERS7_ # TAILCALL
.Lfunc_end78:
	.size	_ZNSt3mapINSt7__cxx1112basic_stringIcSt11char_traitsIcESaIcEEEP8gzFile_sSt4lessIS5_ESaISt4pairIKS5_S7_EEE4findERSB_, .Lfunc_end78-_ZNSt3mapINSt7__cxx1112basic_stringIcSt11char_traitsIcESaIcEEEP8gzFile_sSt4lessIS5_ESaISt4pairIKS5_S7_EEE4findERSB_
	.cfi_endproc
                                        # -- End function
	.section	.text._ZNSt3mapINSt7__cxx1112basic_stringIcSt11char_traitsIcESaIcEEEP8gzFile_sSt4lessIS5_ESaISt4pairIKS5_S7_EEE3endEv,"axG",@progbits,_ZNSt3mapINSt7__cxx1112basic_stringIcSt11char_traitsIcESaIcEEEP8gzFile_sSt4lessIS5_ESaISt4pairIKS5_S7_EEE3endEv,comdat
	.weak	_ZNSt3mapINSt7__cxx1112basic_stringIcSt11char_traitsIcESaIcEEEP8gzFile_sSt4lessIS5_ESaISt4pairIKS5_S7_EEE3endEv # -- Begin function _ZNSt3mapINSt7__cxx1112basic_stringIcSt11char_traitsIcESaIcEEEP8gzFile_sSt4lessIS5_ESaISt4pairIKS5_S7_EEE3endEv
	.p2align	4, 0x90
	.type	_ZNSt3mapINSt7__cxx1112basic_stringIcSt11char_traitsIcESaIcEEEP8gzFile_sSt4lessIS5_ESaISt4pairIKS5_S7_EEE3endEv,@function
_ZNSt3mapINSt7__cxx1112basic_stringIcSt11char_traitsIcESaIcEEEP8gzFile_sSt4lessIS5_ESaISt4pairIKS5_S7_EEE3endEv: # @_ZNSt3mapINSt7__cxx1112basic_stringIcSt11char_traitsIcESaIcEEEP8gzFile_sSt4lessIS5_ESaISt4pairIKS5_S7_EEE3endEv
.Lfunc_begin79:
	.cfi_startproc
# %bb.0:
	jmp	_ZNSt8_Rb_treeINSt7__cxx1112basic_stringIcSt11char_traitsIcESaIcEEESt4pairIKS5_P8gzFile_sESt10_Select1stISA_ESt4lessIS5_ESaISA_EE3endEv # TAILCALL
.Lfunc_end79:
	.size	_ZNSt3mapINSt7__cxx1112basic_stringIcSt11char_traitsIcESaIcEEEP8gzFile_sSt4lessIS5_ESaISt4pairIKS5_S7_EEE3endEv, .Lfunc_end79-_ZNSt3mapINSt7__cxx1112basic_stringIcSt11char_traitsIcESaIcEEEP8gzFile_sSt4lessIS5_ESaISt4pairIKS5_S7_EEE3endEv
	.cfi_endproc
                                        # -- End function
	.section	.text._ZStneRKSt17_Rb_tree_iteratorISt4pairIKNSt7__cxx1112basic_stringIcSt11char_traitsIcESaIcEEEP8gzFile_sEESD_,"axG",@progbits,_ZStneRKSt17_Rb_tree_iteratorISt4pairIKNSt7__cxx1112basic_stringIcSt11char_traitsIcESaIcEEEP8gzFile_sEESD_,comdat
	.weak	_ZStneRKSt17_Rb_tree_iteratorISt4pairIKNSt7__cxx1112basic_stringIcSt11char_traitsIcESaIcEEEP8gzFile_sEESD_ # -- Begin function _ZStneRKSt17_Rb_tree_iteratorISt4pairIKNSt7__cxx1112basic_stringIcSt11char_traitsIcESaIcEEEP8gzFile_sEESD_
	.p2align	4, 0x90
	.type	_ZStneRKSt17_Rb_tree_iteratorISt4pairIKNSt7__cxx1112basic_stringIcSt11char_traitsIcESaIcEEEP8gzFile_sEESD_,@function
_ZStneRKSt17_Rb_tree_iteratorISt4pairIKNSt7__cxx1112basic_stringIcSt11char_traitsIcESaIcEEEP8gzFile_sEESD_: # @_ZStneRKSt17_Rb_tree_iteratorISt4pairIKNSt7__cxx1112basic_stringIcSt11char_traitsIcESaIcEEEP8gzFile_sEESD_
.Lfunc_begin80:
	.cfi_startproc
# %bb.0:
	movq	(%rdi), %rax
	cmpq	(%rsi), %rax
	setne	%al
	retq
.Lfunc_end80:
	.size	_ZStneRKSt17_Rb_tree_iteratorISt4pairIKNSt7__cxx1112basic_stringIcSt11char_traitsIcESaIcEEEP8gzFile_sEESD_, .Lfunc_end80-_ZStneRKSt17_Rb_tree_iteratorISt4pairIKNSt7__cxx1112basic_stringIcSt11char_traitsIcESaIcEEEP8gzFile_sEESD_
	.cfi_endproc
                                        # -- End function
	.section	.text._ZNSt3mapINSt7__cxx1112basic_stringIcSt11char_traitsIcESaIcEEEP8gzFile_sSt4lessIS5_ESaISt4pairIKS5_S7_EEE2atERSB_,"axG",@progbits,_ZNSt3mapINSt7__cxx1112basic_stringIcSt11char_traitsIcESaIcEEEP8gzFile_sSt4lessIS5_ESaISt4pairIKS5_S7_EEE2atERSB_,comdat
	.weak	_ZNSt3mapINSt7__cxx1112basic_stringIcSt11char_traitsIcESaIcEEEP8gzFile_sSt4lessIS5_ESaISt4pairIKS5_S7_EEE2atERSB_ # -- Begin function _ZNSt3mapINSt7__cxx1112basic_stringIcSt11char_traitsIcESaIcEEEP8gzFile_sSt4lessIS5_ESaISt4pairIKS5_S7_EEE2atERSB_
	.p2align	4, 0x90
	.type	_ZNSt3mapINSt7__cxx1112basic_stringIcSt11char_traitsIcESaIcEEEP8gzFile_sSt4lessIS5_ESaISt4pairIKS5_S7_EEE2atERSB_,@function
_ZNSt3mapINSt7__cxx1112basic_stringIcSt11char_traitsIcESaIcEEEP8gzFile_sSt4lessIS5_ESaISt4pairIKS5_S7_EEE2atERSB_: # @_ZNSt3mapINSt7__cxx1112basic_stringIcSt11char_traitsIcESaIcEEEP8gzFile_sSt4lessIS5_ESaISt4pairIKS5_S7_EEE2atERSB_
.Lfunc_begin81:
	.cfi_startproc
# %bb.0:
	pushq	%r14
	.cfi_def_cfa_offset 16
	pushq	%rbx
	.cfi_def_cfa_offset 24
	subq	$24, %rsp
	.cfi_def_cfa_offset 48
	.cfi_offset %rbx, -24
	.cfi_offset %r14, -16
	movq	%rsi, %r14
	movq	%rdi, %rbx
	callq	_ZNSt3mapINSt7__cxx1112basic_stringIcSt11char_traitsIcESaIcEEEP8gzFile_sSt4lessIS5_ESaISt4pairIKS5_S7_EEE11lower_boundERSB_
	movq	%rax, 8(%rsp)
	movq	%rbx, %rdi
	callq	_ZNSt3mapINSt7__cxx1112basic_stringIcSt11char_traitsIcESaIcEEEP8gzFile_sSt4lessIS5_ESaISt4pairIKS5_S7_EEE3endEv
	movq	%rax, 16(%rsp)
	leaq	8(%rsp), %rdi
	leaq	16(%rsp), %rsi
	callq	_ZSteqRKSt17_Rb_tree_iteratorISt4pairIKNSt7__cxx1112basic_stringIcSt11char_traitsIcESaIcEEEP8gzFile_sEESD_
	testb	%al, %al
	jne	.LBB81_3
# %bb.1:
	movq	%rbx, %rdi
	callq	_ZNKSt3mapINSt7__cxx1112basic_stringIcSt11char_traitsIcESaIcEEEP8gzFile_sSt4lessIS5_ESaISt4pairIKS5_S7_EEE8key_compEv
	leaq	8(%rsp), %rdi
	callq	_ZNKSt17_Rb_tree_iteratorISt4pairIKNSt7__cxx1112basic_stringIcSt11char_traitsIcESaIcEEEP8gzFile_sEEdeEv
	movq	%rsp, %rdi
	movq	%r14, %rsi
	movq	%rax, %rdx
	callq	_ZNKSt4lessINSt7__cxx1112basic_stringIcSt11char_traitsIcESaIcEEEEclERKS5_S8_
	testb	%al, %al
	jne	.LBB81_3
# %bb.2:
	leaq	8(%rsp), %rdi
	callq	_ZNKSt17_Rb_tree_iteratorISt4pairIKNSt7__cxx1112basic_stringIcSt11char_traitsIcESaIcEEEP8gzFile_sEEdeEv
	addq	$32, %rax
	addq	$24, %rsp
	popq	%rbx
	popq	%r14
	retq
.LBB81_3:
	movl	$.L.str.36.104, %edi
	callq	_ZSt20__throw_out_of_rangePKc
.Lfunc_end81:
	.size	_ZNSt3mapINSt7__cxx1112basic_stringIcSt11char_traitsIcESaIcEEEP8gzFile_sSt4lessIS5_ESaISt4pairIKS5_S7_EEE2atERSB_, .Lfunc_end81-_ZNSt3mapINSt7__cxx1112basic_stringIcSt11char_traitsIcESaIcEEEP8gzFile_sSt4lessIS5_ESaISt4pairIKS5_S7_EEE2atERSB_
	.cfi_endproc
                                        # -- End function
	.section	.text._ZNSt3mapINSt7__cxx1112basic_stringIcSt11char_traitsIcESaIcEEEP8gzFile_sSt4lessIS5_ESaISt4pairIKS5_S7_EEEixERSB_,"axG",@progbits,_ZNSt3mapINSt7__cxx1112basic_stringIcSt11char_traitsIcESaIcEEEP8gzFile_sSt4lessIS5_ESaISt4pairIKS5_S7_EEEixERSB_,comdat
	.weak	_ZNSt3mapINSt7__cxx1112basic_stringIcSt11char_traitsIcESaIcEEEP8gzFile_sSt4lessIS5_ESaISt4pairIKS5_S7_EEEixERSB_ # -- Begin function _ZNSt3mapINSt7__cxx1112basic_stringIcSt11char_traitsIcESaIcEEEP8gzFile_sSt4lessIS5_ESaISt4pairIKS5_S7_EEEixERSB_
	.p2align	4, 0x90
	.type	_ZNSt3mapINSt7__cxx1112basic_stringIcSt11char_traitsIcESaIcEEEP8gzFile_sSt4lessIS5_ESaISt4pairIKS5_S7_EEEixERSB_,@function
_ZNSt3mapINSt7__cxx1112basic_stringIcSt11char_traitsIcESaIcEEEP8gzFile_sSt4lessIS5_ESaISt4pairIKS5_S7_EEEixERSB_: # @_ZNSt3mapINSt7__cxx1112basic_stringIcSt11char_traitsIcESaIcEEEP8gzFile_sSt4lessIS5_ESaISt4pairIKS5_S7_EEEixERSB_
.Lfunc_begin82:
	.cfi_startproc
# %bb.0:
	pushq	%r15
	.cfi_def_cfa_offset 16
	pushq	%r14
	.cfi_def_cfa_offset 24
	pushq	%rbx
	.cfi_def_cfa_offset 32
	subq	$48, %rsp
	.cfi_def_cfa_offset 80
	.cfi_offset %rbx, -32
	.cfi_offset %r14, -24
	.cfi_offset %r15, -16
	movq	%rsi, %r14
	movq	%rdi, %rbx
	callq	_ZNSt3mapINSt7__cxx1112basic_stringIcSt11char_traitsIcESaIcEEEP8gzFile_sSt4lessIS5_ESaISt4pairIKS5_S7_EEE11lower_boundERSB_
	movq	%rax, 24(%rsp)
	movq	%rbx, %rdi
	callq	_ZNSt3mapINSt7__cxx1112basic_stringIcSt11char_traitsIcESaIcEEEP8gzFile_sSt4lessIS5_ESaISt4pairIKS5_S7_EEE3endEv
	movq	%rax, 32(%rsp)
	leaq	24(%rsp), %rdi
	leaq	32(%rsp), %rsi
	callq	_ZSteqRKSt17_Rb_tree_iteratorISt4pairIKNSt7__cxx1112basic_stringIcSt11char_traitsIcESaIcEEEP8gzFile_sEESD_
	testb	%al, %al
	jne	.LBB82_2
# %bb.1:
	movq	%rbx, %rdi
	callq	_ZNKSt3mapINSt7__cxx1112basic_stringIcSt11char_traitsIcESaIcEEEP8gzFile_sSt4lessIS5_ESaISt4pairIKS5_S7_EEE8key_compEv
	leaq	24(%rsp), %rdi
	callq	_ZNKSt17_Rb_tree_iteratorISt4pairIKNSt7__cxx1112basic_stringIcSt11char_traitsIcESaIcEEEP8gzFile_sEEdeEv
	leaq	16(%rsp), %rdi
	movq	%r14, %rsi
	movq	%rax, %rdx
	callq	_ZNKSt4lessINSt7__cxx1112basic_stringIcSt11char_traitsIcESaIcEEEEclERKS5_S8_
	testb	%al, %al
	je	.LBB82_3
.LBB82_2:
	leaq	40(%rsp), %rdi
	leaq	24(%rsp), %rsi
	callq	_ZNSt23_Rb_tree_const_iteratorISt4pairIKNSt7__cxx1112basic_stringIcSt11char_traitsIcESaIcEEEP8gzFile_sEEC2ERKSt17_Rb_tree_iteratorISA_E
	leaq	32(%rsp), %r15
	movq	%r15, %rdi
	movq	%r14, %rsi
	callq	_ZNSt5tupleIJRKNSt7__cxx1112basic_stringIcSt11char_traitsIcESaIcEEEEEC2IvLb1EEES7_
	movq	40(%rsp), %rsi
	leaq	8(%rsp), %r8
	movl	$_ZStL19piecewise_construct, %edx
	movq	%rbx, %rdi
	movq	%r15, %rcx
	callq	_ZNSt8_Rb_treeINSt7__cxx1112basic_stringIcSt11char_traitsIcESaIcEEESt4pairIKS5_P8gzFile_sESt10_Select1stISA_ESt4lessIS5_ESaISA_EE22_M_emplace_hint_uniqueIJRKSt21piecewise_construct_tSt5tupleIJRS7_EESL_IJEEEEESt17_Rb_tree_iteratorISA_ESt23_Rb_tree_const_iteratorISA_EDpOT_
	movq	%rax, 24(%rsp)
.LBB82_3:
	leaq	24(%rsp), %rdi
	callq	_ZNKSt17_Rb_tree_iteratorISt4pairIKNSt7__cxx1112basic_stringIcSt11char_traitsIcESaIcEEEP8gzFile_sEEdeEv
	addq	$32, %rax
	addq	$48, %rsp
	popq	%rbx
	popq	%r14
	popq	%r15
	retq
.Lfunc_end82:
	.size	_ZNSt3mapINSt7__cxx1112basic_stringIcSt11char_traitsIcESaIcEEEP8gzFile_sSt4lessIS5_ESaISt4pairIKS5_S7_EEEixERSB_, .Lfunc_end82-_ZNSt3mapINSt7__cxx1112basic_stringIcSt11char_traitsIcESaIcEEEP8gzFile_sSt4lessIS5_ESaISt4pairIKS5_S7_EEEixERSB_
	.cfi_endproc
                                        # -- End function
	.section	.text._ZNSt3mapINSt7__cxx1112basic_stringIcSt11char_traitsIcESaIcEEEP8gzFile_sSt4lessIS5_ESaISt4pairIKS5_S7_EEE11lower_boundERSB_,"axG",@progbits,_ZNSt3mapINSt7__cxx1112basic_stringIcSt11char_traitsIcESaIcEEEP8gzFile_sSt4lessIS5_ESaISt4pairIKS5_S7_EEE11lower_boundERSB_,comdat
	.weak	_ZNSt3mapINSt7__cxx1112basic_stringIcSt11char_traitsIcESaIcEEEP8gzFile_sSt4lessIS5_ESaISt4pairIKS5_S7_EEE11lower_boundERSB_ # -- Begin function _ZNSt3mapINSt7__cxx1112basic_stringIcSt11char_traitsIcESaIcEEEP8gzFile_sSt4lessIS5_ESaISt4pairIKS5_S7_EEE11lower_boundERSB_
	.p2align	4, 0x90
	.type	_ZNSt3mapINSt7__cxx1112basic_stringIcSt11char_traitsIcESaIcEEEP8gzFile_sSt4lessIS5_ESaISt4pairIKS5_S7_EEE11lower_boundERSB_,@function
_ZNSt3mapINSt7__cxx1112basic_stringIcSt11char_traitsIcESaIcEEEP8gzFile_sSt4lessIS5_ESaISt4pairIKS5_S7_EEE11lower_boundERSB_: # @_ZNSt3mapINSt7__cxx1112basic_stringIcSt11char_traitsIcESaIcEEEP8gzFile_sSt4lessIS5_ESaISt4pairIKS5_S7_EEE11lower_boundERSB_
.Lfunc_begin83:
	.cfi_startproc
# %bb.0:
	jmp	_ZNSt8_Rb_treeINSt7__cxx1112basic_stringIcSt11char_traitsIcESaIcEEESt4pairIKS5_P8gzFile_sESt10_Select1stISA_ESt4lessIS5_ESaISA_EE11lower_boundERS7_ # TAILCALL
.Lfunc_end83:
	.size	_ZNSt3mapINSt7__cxx1112basic_stringIcSt11char_traitsIcESaIcEEEP8gzFile_sSt4lessIS5_ESaISt4pairIKS5_S7_EEE11lower_boundERSB_, .Lfunc_end83-_ZNSt3mapINSt7__cxx1112basic_stringIcSt11char_traitsIcESaIcEEEP8gzFile_sSt4lessIS5_ESaISt4pairIKS5_S7_EEE11lower_boundERSB_
	.cfi_endproc
                                        # -- End function
	.section	.text._ZSteqRKSt17_Rb_tree_iteratorISt4pairIKNSt7__cxx1112basic_stringIcSt11char_traitsIcESaIcEEEP8gzFile_sEESD_,"axG",@progbits,_ZSteqRKSt17_Rb_tree_iteratorISt4pairIKNSt7__cxx1112basic_stringIcSt11char_traitsIcESaIcEEEP8gzFile_sEESD_,comdat
	.weak	_ZSteqRKSt17_Rb_tree_iteratorISt4pairIKNSt7__cxx1112basic_stringIcSt11char_traitsIcESaIcEEEP8gzFile_sEESD_ # -- Begin function _ZSteqRKSt17_Rb_tree_iteratorISt4pairIKNSt7__cxx1112basic_stringIcSt11char_traitsIcESaIcEEEP8gzFile_sEESD_
	.p2align	4, 0x90
	.type	_ZSteqRKSt17_Rb_tree_iteratorISt4pairIKNSt7__cxx1112basic_stringIcSt11char_traitsIcESaIcEEEP8gzFile_sEESD_,@function
_ZSteqRKSt17_Rb_tree_iteratorISt4pairIKNSt7__cxx1112basic_stringIcSt11char_traitsIcESaIcEEEP8gzFile_sEESD_: # @_ZSteqRKSt17_Rb_tree_iteratorISt4pairIKNSt7__cxx1112basic_stringIcSt11char_traitsIcESaIcEEEP8gzFile_sEESD_
.Lfunc_begin84:
	.cfi_startproc
# %bb.0:
	movq	(%rdi), %rax
	cmpq	(%rsi), %rax
	sete	%al
	retq
.Lfunc_end84:
	.size	_ZSteqRKSt17_Rb_tree_iteratorISt4pairIKNSt7__cxx1112basic_stringIcSt11char_traitsIcESaIcEEEP8gzFile_sEESD_, .Lfunc_end84-_ZSteqRKSt17_Rb_tree_iteratorISt4pairIKNSt7__cxx1112basic_stringIcSt11char_traitsIcESaIcEEEP8gzFile_sEESD_
	.cfi_endproc
                                        # -- End function
	.section	.text._ZNKSt3mapINSt7__cxx1112basic_stringIcSt11char_traitsIcESaIcEEEP8gzFile_sSt4lessIS5_ESaISt4pairIKS5_S7_EEE8key_compEv,"axG",@progbits,_ZNKSt3mapINSt7__cxx1112basic_stringIcSt11char_traitsIcESaIcEEEP8gzFile_sSt4lessIS5_ESaISt4pairIKS5_S7_EEE8key_compEv,comdat
	.weak	_ZNKSt3mapINSt7__cxx1112basic_stringIcSt11char_traitsIcESaIcEEEP8gzFile_sSt4lessIS5_ESaISt4pairIKS5_S7_EEE8key_compEv # -- Begin function _ZNKSt3mapINSt7__cxx1112basic_stringIcSt11char_traitsIcESaIcEEEP8gzFile_sSt4lessIS5_ESaISt4pairIKS5_S7_EEE8key_compEv
	.p2align	4, 0x90
	.type	_ZNKSt3mapINSt7__cxx1112basic_stringIcSt11char_traitsIcESaIcEEEP8gzFile_sSt4lessIS5_ESaISt4pairIKS5_S7_EEE8key_compEv,@function
_ZNKSt3mapINSt7__cxx1112basic_stringIcSt11char_traitsIcESaIcEEEP8gzFile_sSt4lessIS5_ESaISt4pairIKS5_S7_EEE8key_compEv: # @_ZNKSt3mapINSt7__cxx1112basic_stringIcSt11char_traitsIcESaIcEEEP8gzFile_sSt4lessIS5_ESaISt4pairIKS5_S7_EEE8key_compEv
.Lfunc_begin85:
	.cfi_startproc
# %bb.0:
	jmp	_ZNKSt8_Rb_treeINSt7__cxx1112basic_stringIcSt11char_traitsIcESaIcEEESt4pairIKS5_P8gzFile_sESt10_Select1stISA_ESt4lessIS5_ESaISA_EE8key_compEv # TAILCALL
.Lfunc_end85:
	.size	_ZNKSt3mapINSt7__cxx1112basic_stringIcSt11char_traitsIcESaIcEEEP8gzFile_sSt4lessIS5_ESaISt4pairIKS5_S7_EEE8key_compEv, .Lfunc_end85-_ZNKSt3mapINSt7__cxx1112basic_stringIcSt11char_traitsIcESaIcEEEP8gzFile_sSt4lessIS5_ESaISt4pairIKS5_S7_EEE8key_compEv
	.cfi_endproc
                                        # -- End function
	.section	.text._ZNKSt17_Rb_tree_iteratorISt4pairIKNSt7__cxx1112basic_stringIcSt11char_traitsIcESaIcEEEP8gzFile_sEEdeEv,"axG",@progbits,_ZNKSt17_Rb_tree_iteratorISt4pairIKNSt7__cxx1112basic_stringIcSt11char_traitsIcESaIcEEEP8gzFile_sEEdeEv,comdat
	.weak	_ZNKSt17_Rb_tree_iteratorISt4pairIKNSt7__cxx1112basic_stringIcSt11char_traitsIcESaIcEEEP8gzFile_sEEdeEv # -- Begin function _ZNKSt17_Rb_tree_iteratorISt4pairIKNSt7__cxx1112basic_stringIcSt11char_traitsIcESaIcEEEP8gzFile_sEEdeEv
	.p2align	4, 0x90
	.type	_ZNKSt17_Rb_tree_iteratorISt4pairIKNSt7__cxx1112basic_stringIcSt11char_traitsIcESaIcEEEP8gzFile_sEEdeEv,@function
_ZNKSt17_Rb_tree_iteratorISt4pairIKNSt7__cxx1112basic_stringIcSt11char_traitsIcESaIcEEEP8gzFile_sEEdeEv: # @_ZNKSt17_Rb_tree_iteratorISt4pairIKNSt7__cxx1112basic_stringIcSt11char_traitsIcESaIcEEEP8gzFile_sEEdeEv
.Lfunc_begin86:
	.cfi_startproc
# %bb.0:
	pushq	%rax
	.cfi_def_cfa_offset 16
	movq	(%rdi), %rdi
	callq	_ZNSt13_Rb_tree_nodeISt4pairIKNSt7__cxx1112basic_stringIcSt11char_traitsIcESaIcEEEP8gzFile_sEE9_M_valptrEv
	popq	%rcx
	retq
.Lfunc_end86:
	.size	_ZNKSt17_Rb_tree_iteratorISt4pairIKNSt7__cxx1112basic_stringIcSt11char_traitsIcESaIcEEEP8gzFile_sEEdeEv, .Lfunc_end86-_ZNKSt17_Rb_tree_iteratorISt4pairIKNSt7__cxx1112basic_stringIcSt11char_traitsIcESaIcEEEP8gzFile_sEEdeEv
	.cfi_endproc
                                        # -- End function
	.section	.text._ZNKSt4lessINSt7__cxx1112basic_stringIcSt11char_traitsIcESaIcEEEEclERKS5_S8_,"axG",@progbits,_ZNKSt4lessINSt7__cxx1112basic_stringIcSt11char_traitsIcESaIcEEEEclERKS5_S8_,comdat
	.weak	_ZNKSt4lessINSt7__cxx1112basic_stringIcSt11char_traitsIcESaIcEEEEclERKS5_S8_ # -- Begin function _ZNKSt4lessINSt7__cxx1112basic_stringIcSt11char_traitsIcESaIcEEEEclERKS5_S8_
	.p2align	4, 0x90
	.type	_ZNKSt4lessINSt7__cxx1112basic_stringIcSt11char_traitsIcESaIcEEEEclERKS5_S8_,@function
_ZNKSt4lessINSt7__cxx1112basic_stringIcSt11char_traitsIcESaIcEEEEclERKS5_S8_: # @_ZNKSt4lessINSt7__cxx1112basic_stringIcSt11char_traitsIcESaIcEEEEclERKS5_S8_
.Lfunc_begin87:
	.cfi_startproc
# %bb.0:
	movq	%rsi, %rdi
	movq	%rdx, %rsi
	jmp	_ZStltIcSt11char_traitsIcESaIcEEbRKNSt7__cxx1112basic_stringIT_T0_T1_EESA_ # TAILCALL
.Lfunc_end87:
	.size	_ZNKSt4lessINSt7__cxx1112basic_stringIcSt11char_traitsIcESaIcEEEEclERKS5_S8_, .Lfunc_end87-_ZNKSt4lessINSt7__cxx1112basic_stringIcSt11char_traitsIcESaIcEEEEclERKS5_S8_
	.cfi_endproc
                                        # -- End function
	.section	.text._ZNSt23_Rb_tree_const_iteratorISt4pairIKNSt7__cxx1112basic_stringIcSt11char_traitsIcESaIcEEEP8gzFile_sEEC2ERKSt17_Rb_tree_iteratorISA_E,"axG",@progbits,_ZNSt23_Rb_tree_const_iteratorISt4pairIKNSt7__cxx1112basic_stringIcSt11char_traitsIcESaIcEEEP8gzFile_sEEC2ERKSt17_Rb_tree_iteratorISA_E,comdat
	.weak	_ZNSt23_Rb_tree_const_iteratorISt4pairIKNSt7__cxx1112basic_stringIcSt11char_traitsIcESaIcEEEP8gzFile_sEEC2ERKSt17_Rb_tree_iteratorISA_E # -- Begin function _ZNSt23_Rb_tree_const_iteratorISt4pairIKNSt7__cxx1112basic_stringIcSt11char_traitsIcESaIcEEEP8gzFile_sEEC2ERKSt17_Rb_tree_iteratorISA_E
	.p2align	4, 0x90
	.type	_ZNSt23_Rb_tree_const_iteratorISt4pairIKNSt7__cxx1112basic_stringIcSt11char_traitsIcESaIcEEEP8gzFile_sEEC2ERKSt17_Rb_tree_iteratorISA_E,@function
_ZNSt23_Rb_tree_const_iteratorISt4pairIKNSt7__cxx1112basic_stringIcSt11char_traitsIcESaIcEEEP8gzFile_sEEC2ERKSt17_Rb_tree_iteratorISA_E: # @_ZNSt23_Rb_tree_const_iteratorISt4pairIKNSt7__cxx1112basic_stringIcSt11char_traitsIcESaIcEEEP8gzFile_sEEC2ERKSt17_Rb_tree_iteratorISA_E
.Lfunc_begin88:
	.cfi_startproc
# %bb.0:
	movq	(%rsi), %rax
	movq	%rax, (%rdi)
	retq
.Lfunc_end88:
	.size	_ZNSt23_Rb_tree_const_iteratorISt4pairIKNSt7__cxx1112basic_stringIcSt11char_traitsIcESaIcEEEP8gzFile_sEEC2ERKSt17_Rb_tree_iteratorISA_E, .Lfunc_end88-_ZNSt23_Rb_tree_const_iteratorISt4pairIKNSt7__cxx1112basic_stringIcSt11char_traitsIcESaIcEEEP8gzFile_sEEC2ERKSt17_Rb_tree_iteratorISA_E
	.cfi_endproc
                                        # -- End function
	.section	.text._ZNSt5tupleIJRKNSt7__cxx1112basic_stringIcSt11char_traitsIcESaIcEEEEEC2IvLb1EEES7_,"axG",@progbits,_ZNSt5tupleIJRKNSt7__cxx1112basic_stringIcSt11char_traitsIcESaIcEEEEEC2IvLb1EEES7_,comdat
	.weak	_ZNSt5tupleIJRKNSt7__cxx1112basic_stringIcSt11char_traitsIcESaIcEEEEEC2IvLb1EEES7_ # -- Begin function _ZNSt5tupleIJRKNSt7__cxx1112basic_stringIcSt11char_traitsIcESaIcEEEEEC2IvLb1EEES7_
	.p2align	4, 0x90
	.type	_ZNSt5tupleIJRKNSt7__cxx1112basic_stringIcSt11char_traitsIcESaIcEEEEEC2IvLb1EEES7_,@function
_ZNSt5tupleIJRKNSt7__cxx1112basic_stringIcSt11char_traitsIcESaIcEEEEEC2IvLb1EEES7_: # @_ZNSt5tupleIJRKNSt7__cxx1112basic_stringIcSt11char_traitsIcESaIcEEEEEC2IvLb1EEES7_
.Lfunc_begin89:
	.cfi_startproc
# %bb.0:
	jmp	_ZNSt11_Tuple_implILm0EJRKNSt7__cxx1112basic_stringIcSt11char_traitsIcESaIcEEEEEC2ES7_ # TAILCALL
.Lfunc_end89:
	.size	_ZNSt5tupleIJRKNSt7__cxx1112basic_stringIcSt11char_traitsIcESaIcEEEEEC2IvLb1EEES7_, .Lfunc_end89-_ZNSt5tupleIJRKNSt7__cxx1112basic_stringIcSt11char_traitsIcESaIcEEEEEC2IvLb1EEES7_
	.cfi_endproc
                                        # -- End function
	.section	.text._ZNSt8_Rb_treeINSt7__cxx1112basic_stringIcSt11char_traitsIcESaIcEEESt4pairIKS5_P8gzFile_sESt10_Select1stISA_ESt4lessIS5_ESaISA_EE22_M_emplace_hint_uniqueIJRKSt21piecewise_construct_tSt5tupleIJRS7_EESL_IJEEEEESt17_Rb_tree_iteratorISA_ESt23_Rb_tree_const_iteratorISA_EDpOT_,"axG",@progbits,_ZNSt8_Rb_treeINSt7__cxx1112basic_stringIcSt11char_traitsIcESaIcEEESt4pairIKS5_P8gzFile_sESt10_Select1stISA_ESt4lessIS5_ESaISA_EE22_M_emplace_hint_uniqueIJRKSt21piecewise_construct_tSt5tupleIJRS7_EESL_IJEEEEESt17_Rb_tree_iteratorISA_ESt23_Rb_tree_const_iteratorISA_EDpOT_,comdat
	.weak	_ZNSt8_Rb_treeINSt7__cxx1112basic_stringIcSt11char_traitsIcESaIcEEESt4pairIKS5_P8gzFile_sESt10_Select1stISA_ESt4lessIS5_ESaISA_EE22_M_emplace_hint_uniqueIJRKSt21piecewise_construct_tSt5tupleIJRS7_EESL_IJEEEEESt17_Rb_tree_iteratorISA_ESt23_Rb_tree_const_iteratorISA_EDpOT_ # -- Begin function _ZNSt8_Rb_treeINSt7__cxx1112basic_stringIcSt11char_traitsIcESaIcEEESt4pairIKS5_P8gzFile_sESt10_Select1stISA_ESt4lessIS5_ESaISA_EE22_M_emplace_hint_uniqueIJRKSt21piecewise_construct_tSt5tupleIJRS7_EESL_IJEEEEESt17_Rb_tree_iteratorISA_ESt23_Rb_tree_const_iteratorISA_EDpOT_
	.p2align	4, 0x90
	.type	_ZNSt8_Rb_treeINSt7__cxx1112basic_stringIcSt11char_traitsIcESaIcEEESt4pairIKS5_P8gzFile_sESt10_Select1stISA_ESt4lessIS5_ESaISA_EE22_M_emplace_hint_uniqueIJRKSt21piecewise_construct_tSt5tupleIJRS7_EESL_IJEEEEESt17_Rb_tree_iteratorISA_ESt23_Rb_tree_const_iteratorISA_EDpOT_,@function
_ZNSt8_Rb_treeINSt7__cxx1112basic_stringIcSt11char_traitsIcESaIcEEESt4pairIKS5_P8gzFile_sESt10_Select1stISA_ESt4lessIS5_ESaISA_EE22_M_emplace_hint_uniqueIJRKSt21piecewise_construct_tSt5tupleIJRS7_EESL_IJEEEEESt17_Rb_tree_iteratorISA_ESt23_Rb_tree_const_iteratorISA_EDpOT_: # @_ZNSt8_Rb_treeINSt7__cxx1112basic_stringIcSt11char_traitsIcESaIcEEESt4pairIKS5_P8gzFile_sESt10_Select1stISA_ESt4lessIS5_ESaISA_EE22_M_emplace_hint_uniqueIJRKSt21piecewise_construct_tSt5tupleIJRS7_EESL_IJEEEEESt17_Rb_tree_iteratorISA_ESt23_Rb_tree_const_iteratorISA_EDpOT_
.Lfunc_begin90:
	.cfi_startproc
	.cfi_personality 3, __gxx_personality_v0
	.cfi_lsda 3, .Lexception5
# %bb.0:
	pushq	%r15
	.cfi_def_cfa_offset 16
	pushq	%r14
	.cfi_def_cfa_offset 24
	pushq	%r13
	.cfi_def_cfa_offset 32
	pushq	%r12
	.cfi_def_cfa_offset 40
	pushq	%rbx
	.cfi_def_cfa_offset 48
	subq	$16, %rsp
	.cfi_def_cfa_offset 64
	.cfi_offset %rbx, -48
	.cfi_offset %r12, -40
	.cfi_offset %r13, -32
	.cfi_offset %r14, -24
	.cfi_offset %r15, -16
	movq	%r8, %r14
	movq	%rcx, %rbx
	movq	%rsi, %r15
	movq	%rdi, %r12
	movq	%rdx, %rdi
	callq	_ZSt7forwardIRKSt21piecewise_construct_tEOT_RNSt16remove_referenceIS3_E4typeE
	movq	%rax, %r13
	movq	%rbx, %rdi
	callq	_ZSt7forwardISt5tupleIJRKNSt7__cxx1112basic_stringIcSt11char_traitsIcESaIcEEEEEEOT_RNSt16remove_referenceISA_E4typeE
	movq	%rax, %rbx
	movq	%r14, %rdi
	callq	_ZSt7forwardISt5tupleIJEEEOT_RNSt16remove_referenceIS2_E4typeE
	movq	%r12, %rdi
	movq	%r13, %rsi
	movq	%rbx, %rdx
	movq	%rax, %rcx
	callq	_ZNSt8_Rb_treeINSt7__cxx1112basic_stringIcSt11char_traitsIcESaIcEEESt4pairIKS5_P8gzFile_sESt10_Select1stISA_ESt4lessIS5_ESaISA_EE14_M_create_nodeIJRKSt21piecewise_construct_tSt5tupleIJRS7_EESL_IJEEEEEPSt13_Rb_tree_nodeISA_EDpOT_
	movq	%rax, %r14
.Ltmp214:
	movq	%r14, %rdi
	callq	_ZNSt8_Rb_treeINSt7__cxx1112basic_stringIcSt11char_traitsIcESaIcEEESt4pairIKS5_P8gzFile_sESt10_Select1stISA_ESt4lessIS5_ESaISA_EE6_S_keyEPKSt13_Rb_tree_nodeISA_E
.Ltmp215:
# %bb.1:
.Ltmp216:
	movq	%r12, %rdi
	movq	%r15, %rsi
	movq	%rax, %rdx
	callq	_ZNSt8_Rb_treeINSt7__cxx1112basic_stringIcSt11char_traitsIcESaIcEEESt4pairIKS5_P8gzFile_sESt10_Select1stISA_ESt4lessIS5_ESaISA_EE29_M_get_insert_hint_unique_posESt23_Rb_tree_const_iteratorISA_ERS7_
	movq	%rax, %rbx
.Ltmp217:
# %bb.2:
	testq	%rdx, %rdx
	je	.LBB90_5
# %bb.3:
.Ltmp218:
	movq	%r12, %rdi
	movq	%rbx, %rsi
	movq	%r14, %rcx
	callq	_ZNSt8_Rb_treeINSt7__cxx1112basic_stringIcSt11char_traitsIcESaIcEEESt4pairIKS5_P8gzFile_sESt10_Select1stISA_ESt4lessIS5_ESaISA_EE14_M_insert_nodeEPSt18_Rb_tree_node_baseSI_PSt13_Rb_tree_nodeISA_E
.Ltmp219:
# %bb.4:
	movq	%rax, 8(%rsp)
	jmp	.LBB90_6
.LBB90_5:
	movq	%r12, %rdi
	movq	%r14, %rsi
	callq	_ZNSt8_Rb_treeINSt7__cxx1112basic_stringIcSt11char_traitsIcESaIcEEESt4pairIKS5_P8gzFile_sESt10_Select1stISA_ESt4lessIS5_ESaISA_EE12_M_drop_nodeEPSt13_Rb_tree_nodeISA_E
	leaq	8(%rsp), %rdi
	movq	%rbx, %rsi
	callq	_ZNSt17_Rb_tree_iteratorISt4pairIKNSt7__cxx1112basic_stringIcSt11char_traitsIcESaIcEEEP8gzFile_sEEC2EPSt18_Rb_tree_node_base
	movq	8(%rsp), %rax
.LBB90_6:
	addq	$16, %rsp
	popq	%rbx
	popq	%r12
	popq	%r13
	popq	%r14
	popq	%r15
	retq
.LBB90_10:
.Ltmp220:
	movq	%rax, %rdi
	callq	__cxa_begin_catch
	movq	%r12, %rdi
	movq	%r14, %rsi
	callq	_ZNSt8_Rb_treeINSt7__cxx1112basic_stringIcSt11char_traitsIcESaIcEEESt4pairIKS5_P8gzFile_sESt10_Select1stISA_ESt4lessIS5_ESaISA_EE12_M_drop_nodeEPSt13_Rb_tree_nodeISA_E
.Ltmp221:
	callq	__cxa_rethrow
.Ltmp222:
# %bb.11:
.LBB90_7:
.Ltmp223:
	movq	%rax, %rbx
.Ltmp224:
	callq	__cxa_end_catch
.Ltmp225:
# %bb.8:
	movq	%rbx, %rdi
	callq	_Unwind_Resume
.LBB90_9:
.Ltmp226:
	movq	%rax, %rdi
	callq	__clang_call_terminate
.Lfunc_end90:
	.size	_ZNSt8_Rb_treeINSt7__cxx1112basic_stringIcSt11char_traitsIcESaIcEEESt4pairIKS5_P8gzFile_sESt10_Select1stISA_ESt4lessIS5_ESaISA_EE22_M_emplace_hint_uniqueIJRKSt21piecewise_construct_tSt5tupleIJRS7_EESL_IJEEEEESt17_Rb_tree_iteratorISA_ESt23_Rb_tree_const_iteratorISA_EDpOT_, .Lfunc_end90-_ZNSt8_Rb_treeINSt7__cxx1112basic_stringIcSt11char_traitsIcESaIcEEESt4pairIKS5_P8gzFile_sESt10_Select1stISA_ESt4lessIS5_ESaISA_EE22_M_emplace_hint_uniqueIJRKSt21piecewise_construct_tSt5tupleIJRS7_EESL_IJEEEEESt17_Rb_tree_iteratorISA_ESt23_Rb_tree_const_iteratorISA_EDpOT_
	.cfi_endproc
	.section	.gcc_except_table,"a",@progbits
	.p2align	2
GCC_except_table90:
.Lexception5:
	.byte	255                     # @LPStart Encoding = omit
	.byte	3                       # @TType Encoding = udata4
	.asciz	"\326\200\200"          # @TType base offset
	.byte	3                       # Call site Encoding = udata4
	.byte	78                      # Call site table length
	.long	.Lfunc_begin90-.Lfunc_begin90 # >> Call Site 1 <<
	.long	.Ltmp214-.Lfunc_begin90 #   Call between .Lfunc_begin90 and .Ltmp214
	.long	0                       #     has no landing pad
	.byte	0                       #   On action: cleanup
	.long	.Ltmp214-.Lfunc_begin90 # >> Call Site 2 <<
	.long	.Ltmp219-.Ltmp214       #   Call between .Ltmp214 and .Ltmp219
	.long	.Ltmp220-.Lfunc_begin90 #     jumps to .Ltmp220
	.byte	1                       #   On action: 1
	.long	.Ltmp219-.Lfunc_begin90 # >> Call Site 3 <<
	.long	.Ltmp221-.Ltmp219       #   Call between .Ltmp219 and .Ltmp221
	.long	0                       #     has no landing pad
	.byte	0                       #   On action: cleanup
	.long	.Ltmp221-.Lfunc_begin90 # >> Call Site 4 <<
	.long	.Ltmp222-.Ltmp221       #   Call between .Ltmp221 and .Ltmp222
	.long	.Ltmp223-.Lfunc_begin90 #     jumps to .Ltmp223
	.byte	0                       #   On action: cleanup
	.long	.Ltmp224-.Lfunc_begin90 # >> Call Site 5 <<
	.long	.Ltmp225-.Ltmp224       #   Call between .Ltmp224 and .Ltmp225
	.long	.Ltmp226-.Lfunc_begin90 #     jumps to .Ltmp226
	.byte	1                       #   On action: 1
	.long	.Ltmp225-.Lfunc_begin90 # >> Call Site 6 <<
	.long	.Lfunc_end90-.Ltmp225   #   Call between .Ltmp225 and .Lfunc_end90
	.long	0                       #     has no landing pad
	.byte	0                       #   On action: cleanup
	.byte	1                       # >> Action Record 1 <<
                                        #   Catch TypeInfo 1
	.byte	0                       #   No further actions
                                        # >> Catch TypeInfos <<
	.long	0                       # TypeInfo 1
	.p2align	2
                                        # -- End function
	.section	.text._ZSt7forwardIRKSt21piecewise_construct_tEOT_RNSt16remove_referenceIS3_E4typeE,"axG",@progbits,_ZSt7forwardIRKSt21piecewise_construct_tEOT_RNSt16remove_referenceIS3_E4typeE,comdat
	.weak	_ZSt7forwardIRKSt21piecewise_construct_tEOT_RNSt16remove_referenceIS3_E4typeE # -- Begin function _ZSt7forwardIRKSt21piecewise_construct_tEOT_RNSt16remove_referenceIS3_E4typeE
	.p2align	4, 0x90
	.type	_ZSt7forwardIRKSt21piecewise_construct_tEOT_RNSt16remove_referenceIS3_E4typeE,@function
_ZSt7forwardIRKSt21piecewise_construct_tEOT_RNSt16remove_referenceIS3_E4typeE: # @_ZSt7forwardIRKSt21piecewise_construct_tEOT_RNSt16remove_referenceIS3_E4typeE
.Lfunc_begin91:
	.cfi_startproc
# %bb.0:
	movq	%rdi, %rax
	retq
.Lfunc_end91:
	.size	_ZSt7forwardIRKSt21piecewise_construct_tEOT_RNSt16remove_referenceIS3_E4typeE, .Lfunc_end91-_ZSt7forwardIRKSt21piecewise_construct_tEOT_RNSt16remove_referenceIS3_E4typeE
	.cfi_endproc
                                        # -- End function
	.section	.text._ZSt7forwardISt5tupleIJRKNSt7__cxx1112basic_stringIcSt11char_traitsIcESaIcEEEEEEOT_RNSt16remove_referenceISA_E4typeE,"axG",@progbits,_ZSt7forwardISt5tupleIJRKNSt7__cxx1112basic_stringIcSt11char_traitsIcESaIcEEEEEEOT_RNSt16remove_referenceISA_E4typeE,comdat
	.weak	_ZSt7forwardISt5tupleIJRKNSt7__cxx1112basic_stringIcSt11char_traitsIcESaIcEEEEEEOT_RNSt16remove_referenceISA_E4typeE # -- Begin function _ZSt7forwardISt5tupleIJRKNSt7__cxx1112basic_stringIcSt11char_traitsIcESaIcEEEEEEOT_RNSt16remove_referenceISA_E4typeE
	.p2align	4, 0x90
	.type	_ZSt7forwardISt5tupleIJRKNSt7__cxx1112basic_stringIcSt11char_traitsIcESaIcEEEEEEOT_RNSt16remove_referenceISA_E4typeE,@function
_ZSt7forwardISt5tupleIJRKNSt7__cxx1112basic_stringIcSt11char_traitsIcESaIcEEEEEEOT_RNSt16remove_referenceISA_E4typeE: # @_ZSt7forwardISt5tupleIJRKNSt7__cxx1112basic_stringIcSt11char_traitsIcESaIcEEEEEEOT_RNSt16remove_referenceISA_E4typeE
.Lfunc_begin92:
	.cfi_startproc
# %bb.0:
	movq	%rdi, %rax
	retq
.Lfunc_end92:
	.size	_ZSt7forwardISt5tupleIJRKNSt7__cxx1112basic_stringIcSt11char_traitsIcESaIcEEEEEEOT_RNSt16remove_referenceISA_E4typeE, .Lfunc_end92-_ZSt7forwardISt5tupleIJRKNSt7__cxx1112basic_stringIcSt11char_traitsIcESaIcEEEEEEOT_RNSt16remove_referenceISA_E4typeE
	.cfi_endproc
                                        # -- End function
	.section	.text._ZSt7forwardISt5tupleIJEEEOT_RNSt16remove_referenceIS2_E4typeE,"axG",@progbits,_ZSt7forwardISt5tupleIJEEEOT_RNSt16remove_referenceIS2_E4typeE,comdat
	.weak	_ZSt7forwardISt5tupleIJEEEOT_RNSt16remove_referenceIS2_E4typeE # -- Begin function _ZSt7forwardISt5tupleIJEEEOT_RNSt16remove_referenceIS2_E4typeE
	.p2align	4, 0x90
	.type	_ZSt7forwardISt5tupleIJEEEOT_RNSt16remove_referenceIS2_E4typeE,@function
_ZSt7forwardISt5tupleIJEEEOT_RNSt16remove_referenceIS2_E4typeE: # @_ZSt7forwardISt5tupleIJEEEOT_RNSt16remove_referenceIS2_E4typeE
.Lfunc_begin93:
	.cfi_startproc
# %bb.0:
	movq	%rdi, %rax
	retq
.Lfunc_end93:
	.size	_ZSt7forwardISt5tupleIJEEEOT_RNSt16remove_referenceIS2_E4typeE, .Lfunc_end93-_ZSt7forwardISt5tupleIJEEEOT_RNSt16remove_referenceIS2_E4typeE
	.cfi_endproc
                                        # -- End function
	.section	.text._ZNSt8_Rb_treeINSt7__cxx1112basic_stringIcSt11char_traitsIcESaIcEEESt4pairIKS5_P8gzFile_sESt10_Select1stISA_ESt4lessIS5_ESaISA_EE14_M_create_nodeIJRKSt21piecewise_construct_tSt5tupleIJRS7_EESL_IJEEEEEPSt13_Rb_tree_nodeISA_EDpOT_,"axG",@progbits,_ZNSt8_Rb_treeINSt7__cxx1112basic_stringIcSt11char_traitsIcESaIcEEESt4pairIKS5_P8gzFile_sESt10_Select1stISA_ESt4lessIS5_ESaISA_EE14_M_create_nodeIJRKSt21piecewise_construct_tSt5tupleIJRS7_EESL_IJEEEEEPSt13_Rb_tree_nodeISA_EDpOT_,comdat
	.weak	_ZNSt8_Rb_treeINSt7__cxx1112basic_stringIcSt11char_traitsIcESaIcEEESt4pairIKS5_P8gzFile_sESt10_Select1stISA_ESt4lessIS5_ESaISA_EE14_M_create_nodeIJRKSt21piecewise_construct_tSt5tupleIJRS7_EESL_IJEEEEEPSt13_Rb_tree_nodeISA_EDpOT_ # -- Begin function _ZNSt8_Rb_treeINSt7__cxx1112basic_stringIcSt11char_traitsIcESaIcEEESt4pairIKS5_P8gzFile_sESt10_Select1stISA_ESt4lessIS5_ESaISA_EE14_M_create_nodeIJRKSt21piecewise_construct_tSt5tupleIJRS7_EESL_IJEEEEEPSt13_Rb_tree_nodeISA_EDpOT_
	.p2align	4, 0x90
	.type	_ZNSt8_Rb_treeINSt7__cxx1112basic_stringIcSt11char_traitsIcESaIcEEESt4pairIKS5_P8gzFile_sESt10_Select1stISA_ESt4lessIS5_ESaISA_EE14_M_create_nodeIJRKSt21piecewise_construct_tSt5tupleIJRS7_EESL_IJEEEEEPSt13_Rb_tree_nodeISA_EDpOT_,@function
_ZNSt8_Rb_treeINSt7__cxx1112basic_stringIcSt11char_traitsIcESaIcEEESt4pairIKS5_P8gzFile_sESt10_Select1stISA_ESt4lessIS5_ESaISA_EE14_M_create_nodeIJRKSt21piecewise_construct_tSt5tupleIJRS7_EESL_IJEEEEEPSt13_Rb_tree_nodeISA_EDpOT_: # @_ZNSt8_Rb_treeINSt7__cxx1112basic_stringIcSt11char_traitsIcESaIcEEESt4pairIKS5_P8gzFile_sESt10_Select1stISA_ESt4lessIS5_ESaISA_EE14_M_create_nodeIJRKSt21piecewise_construct_tSt5tupleIJRS7_EESL_IJEEEEEPSt13_Rb_tree_nodeISA_EDpOT_
.Lfunc_begin94:
	.cfi_startproc
# %bb.0:
	pushq	%r15
	.cfi_def_cfa_offset 16
	pushq	%r14
	.cfi_def_cfa_offset 24
	pushq	%r13
	.cfi_def_cfa_offset 32
	pushq	%r12
	.cfi_def_cfa_offset 40
	pushq	%rbx
	.cfi_def_cfa_offset 48
	.cfi_offset %rbx, -48
	.cfi_offset %r12, -40
	.cfi_offset %r13, -32
	.cfi_offset %r14, -24
	.cfi_offset %r15, -16
	movq	%rcx, %r14
	movq	%rdx, %r15
	movq	%rsi, %r12
	movq	%rdi, %rbx
	callq	_ZNSt8_Rb_treeINSt7__cxx1112basic_stringIcSt11char_traitsIcESaIcEEESt4pairIKS5_P8gzFile_sESt10_Select1stISA_ESt4lessIS5_ESaISA_EE11_M_get_nodeEv
	movq	%rax, %r13
	movq	%r12, %rdi
	callq	_ZSt7forwardIRKSt21piecewise_construct_tEOT_RNSt16remove_referenceIS3_E4typeE
	movq	%rax, %r12
	movq	%r15, %rdi
	callq	_ZSt7forwardISt5tupleIJRKNSt7__cxx1112basic_stringIcSt11char_traitsIcESaIcEEEEEEOT_RNSt16remove_referenceISA_E4typeE
	movq	%rax, %r15
	movq	%r14, %rdi
	callq	_ZSt7forwardISt5tupleIJEEEOT_RNSt16remove_referenceIS2_E4typeE
	movq	%rbx, %rdi
	movq	%r13, %rsi
	movq	%r12, %rdx
	movq	%r15, %rcx
	movq	%rax, %r8
	callq	_ZNSt8_Rb_treeINSt7__cxx1112basic_stringIcSt11char_traitsIcESaIcEEESt4pairIKS5_P8gzFile_sESt10_Select1stISA_ESt4lessIS5_ESaISA_EE17_M_construct_nodeIJRKSt21piecewise_construct_tSt5tupleIJRS7_EESL_IJEEEEEvPSt13_Rb_tree_nodeISA_EDpOT_
	movq	%r13, %rax
	popq	%rbx
	popq	%r12
	popq	%r13
	popq	%r14
	popq	%r15
	retq
.Lfunc_end94:
	.size	_ZNSt8_Rb_treeINSt7__cxx1112basic_stringIcSt11char_traitsIcESaIcEEESt4pairIKS5_P8gzFile_sESt10_Select1stISA_ESt4lessIS5_ESaISA_EE14_M_create_nodeIJRKSt21piecewise_construct_tSt5tupleIJRS7_EESL_IJEEEEEPSt13_Rb_tree_nodeISA_EDpOT_, .Lfunc_end94-_ZNSt8_Rb_treeINSt7__cxx1112basic_stringIcSt11char_traitsIcESaIcEEESt4pairIKS5_P8gzFile_sESt10_Select1stISA_ESt4lessIS5_ESaISA_EE14_M_create_nodeIJRKSt21piecewise_construct_tSt5tupleIJRS7_EESL_IJEEEEEPSt13_Rb_tree_nodeISA_EDpOT_
	.cfi_endproc
                                        # -- End function
	.section	.text._ZNSt8_Rb_treeINSt7__cxx1112basic_stringIcSt11char_traitsIcESaIcEEESt4pairIKS5_P8gzFile_sESt10_Select1stISA_ESt4lessIS5_ESaISA_EE6_S_keyEPKSt13_Rb_tree_nodeISA_E,"axG",@progbits,_ZNSt8_Rb_treeINSt7__cxx1112basic_stringIcSt11char_traitsIcESaIcEEESt4pairIKS5_P8gzFile_sESt10_Select1stISA_ESt4lessIS5_ESaISA_EE6_S_keyEPKSt13_Rb_tree_nodeISA_E,comdat
	.weak	_ZNSt8_Rb_treeINSt7__cxx1112basic_stringIcSt11char_traitsIcESaIcEEESt4pairIKS5_P8gzFile_sESt10_Select1stISA_ESt4lessIS5_ESaISA_EE6_S_keyEPKSt13_Rb_tree_nodeISA_E # -- Begin function _ZNSt8_Rb_treeINSt7__cxx1112basic_stringIcSt11char_traitsIcESaIcEEESt4pairIKS5_P8gzFile_sESt10_Select1stISA_ESt4lessIS5_ESaISA_EE6_S_keyEPKSt13_Rb_tree_nodeISA_E
	.p2align	4, 0x90
	.type	_ZNSt8_Rb_treeINSt7__cxx1112basic_stringIcSt11char_traitsIcESaIcEEESt4pairIKS5_P8gzFile_sESt10_Select1stISA_ESt4lessIS5_ESaISA_EE6_S_keyEPKSt13_Rb_tree_nodeISA_E,@function
_ZNSt8_Rb_treeINSt7__cxx1112basic_stringIcSt11char_traitsIcESaIcEEESt4pairIKS5_P8gzFile_sESt10_Select1stISA_ESt4lessIS5_ESaISA_EE6_S_keyEPKSt13_Rb_tree_nodeISA_E: # @_ZNSt8_Rb_treeINSt7__cxx1112basic_stringIcSt11char_traitsIcESaIcEEESt4pairIKS5_P8gzFile_sESt10_Select1stISA_ESt4lessIS5_ESaISA_EE6_S_keyEPKSt13_Rb_tree_nodeISA_E
.Lfunc_begin95:
	.cfi_startproc
# %bb.0:
	pushq	%rax
	.cfi_def_cfa_offset 16
	callq	_ZNKSt13_Rb_tree_nodeISt4pairIKNSt7__cxx1112basic_stringIcSt11char_traitsIcESaIcEEEP8gzFile_sEE9_M_valptrEv
	movq	%rsp, %rdi
	movq	%rax, %rsi
	callq	_ZNKSt10_Select1stISt4pairIKNSt7__cxx1112basic_stringIcSt11char_traitsIcESaIcEEEP8gzFile_sEEclERKSA_
	popq	%rcx
	retq
.Lfunc_end95:
	.size	_ZNSt8_Rb_treeINSt7__cxx1112basic_stringIcSt11char_traitsIcESaIcEEESt4pairIKS5_P8gzFile_sESt10_Select1stISA_ESt4lessIS5_ESaISA_EE6_S_keyEPKSt13_Rb_tree_nodeISA_E, .Lfunc_end95-_ZNSt8_Rb_treeINSt7__cxx1112basic_stringIcSt11char_traitsIcESaIcEEESt4pairIKS5_P8gzFile_sESt10_Select1stISA_ESt4lessIS5_ESaISA_EE6_S_keyEPKSt13_Rb_tree_nodeISA_E
	.cfi_endproc
                                        # -- End function
	.section	.text._ZNSt8_Rb_treeINSt7__cxx1112basic_stringIcSt11char_traitsIcESaIcEEESt4pairIKS5_P8gzFile_sESt10_Select1stISA_ESt4lessIS5_ESaISA_EE29_M_get_insert_hint_unique_posESt23_Rb_tree_const_iteratorISA_ERS7_,"axG",@progbits,_ZNSt8_Rb_treeINSt7__cxx1112basic_stringIcSt11char_traitsIcESaIcEEESt4pairIKS5_P8gzFile_sESt10_Select1stISA_ESt4lessIS5_ESaISA_EE29_M_get_insert_hint_unique_posESt23_Rb_tree_const_iteratorISA_ERS7_,comdat
	.weak	_ZNSt8_Rb_treeINSt7__cxx1112basic_stringIcSt11char_traitsIcESaIcEEESt4pairIKS5_P8gzFile_sESt10_Select1stISA_ESt4lessIS5_ESaISA_EE29_M_get_insert_hint_unique_posESt23_Rb_tree_const_iteratorISA_ERS7_ # -- Begin function _ZNSt8_Rb_treeINSt7__cxx1112basic_stringIcSt11char_traitsIcESaIcEEESt4pairIKS5_P8gzFile_sESt10_Select1stISA_ESt4lessIS5_ESaISA_EE29_M_get_insert_hint_unique_posESt23_Rb_tree_const_iteratorISA_ERS7_
	.p2align	4, 0x90
	.type	_ZNSt8_Rb_treeINSt7__cxx1112basic_stringIcSt11char_traitsIcESaIcEEESt4pairIKS5_P8gzFile_sESt10_Select1stISA_ESt4lessIS5_ESaISA_EE29_M_get_insert_hint_unique_posESt23_Rb_tree_const_iteratorISA_ERS7_,@function
_ZNSt8_Rb_treeINSt7__cxx1112basic_stringIcSt11char_traitsIcESaIcEEESt4pairIKS5_P8gzFile_sESt10_Select1stISA_ESt4lessIS5_ESaISA_EE29_M_get_insert_hint_unique_posESt23_Rb_tree_const_iteratorISA_ERS7_: # @_ZNSt8_Rb_treeINSt7__cxx1112basic_stringIcSt11char_traitsIcESaIcEEESt4pairIKS5_P8gzFile_sESt10_Select1stISA_ESt4lessIS5_ESaISA_EE29_M_get_insert_hint_unique_posESt23_Rb_tree_const_iteratorISA_ERS7_
.Lfunc_begin96:
	.cfi_startproc
# %bb.0:
	pushq	%r15
	.cfi_def_cfa_offset 16
	pushq	%r14
	.cfi_def_cfa_offset 24
	pushq	%rbx
	.cfi_def_cfa_offset 32
	subq	$48, %rsp
	.cfi_def_cfa_offset 80
	.cfi_offset %rbx, -32
	.cfi_offset %r14, -24
	.cfi_offset %r15, -16
	movq	%rdx, %r14
	movq	%rdi, %r15
	movq	%rsi, 40(%rsp)
	leaq	40(%rsp), %rdi
	callq	_ZNKSt23_Rb_tree_const_iteratorISt4pairIKNSt7__cxx1112basic_stringIcSt11char_traitsIcESaIcEEEP8gzFile_sEE13_M_const_castEv
	movq	%rax, %rbx
	movq	%rbx, 32(%rsp)
	movq	%r15, %rdi
	callq	_ZNSt8_Rb_treeINSt7__cxx1112basic_stringIcSt11char_traitsIcESaIcEEESt4pairIKS5_P8gzFile_sESt10_Select1stISA_ESt4lessIS5_ESaISA_EE6_M_endEv
	cmpq	%rax, %rbx
	je	.LBB96_6
# %bb.1:
	movq	%rbx, %rdi
	callq	_ZNSt8_Rb_treeINSt7__cxx1112basic_stringIcSt11char_traitsIcESaIcEEESt4pairIKS5_P8gzFile_sESt10_Select1stISA_ESt4lessIS5_ESaISA_EE6_S_keyEPKSt18_Rb_tree_node_base
	movq	%r15, %rdi
	movq	%r14, %rsi
	movq	%rax, %rdx
	callq	_ZNKSt4lessINSt7__cxx1112basic_stringIcSt11char_traitsIcESaIcEEEEclERKS5_S8_
	testb	%al, %al
	je	.LBB96_9
# %bb.2:
	movq	%rbx, (%rsp)
	movq	%r15, %rdi
	callq	_ZNSt8_Rb_treeINSt7__cxx1112basic_stringIcSt11char_traitsIcESaIcEEESt4pairIKS5_P8gzFile_sESt10_Select1stISA_ESt4lessIS5_ESaISA_EE11_M_leftmostEv
	cmpq	%rbx, (%rax)
	je	.LBB96_17
# %bb.3:
	movq	%rsp, %rdi
	callq	_ZNSt17_Rb_tree_iteratorISt4pairIKNSt7__cxx1112basic_stringIcSt11char_traitsIcESaIcEEEP8gzFile_sEEmmEv
	movq	(%rax), %rdi
	callq	_ZNSt8_Rb_treeINSt7__cxx1112basic_stringIcSt11char_traitsIcESaIcEEESt4pairIKS5_P8gzFile_sESt10_Select1stISA_ESt4lessIS5_ESaISA_EE6_S_keyEPKSt18_Rb_tree_node_base
	movq	%r15, %rdi
	movq	%rax, %rsi
	movq	%r14, %rdx
	callq	_ZNKSt4lessINSt7__cxx1112basic_stringIcSt11char_traitsIcESaIcEEEEclERKS5_S8_
	testb	%al, %al
	je	.LBB96_15
# %bb.4:
	movq	(%rsp), %rdi
	callq	_ZNSt8_Rb_treeINSt7__cxx1112basic_stringIcSt11char_traitsIcESaIcEEESt4pairIKS5_P8gzFile_sESt10_Select1stISA_ESt4lessIS5_ESaISA_EE8_S_rightEPSt18_Rb_tree_node_base
	testq	%rax, %rax
	je	.LBB96_22
# %bb.5:
	leaq	8(%rsp), %rdi
	leaq	32(%rsp), %rsi
	jmp	.LBB96_14
.LBB96_6:
	movq	%r15, %rdi
	callq	_ZNKSt8_Rb_treeINSt7__cxx1112basic_stringIcSt11char_traitsIcESaIcEEESt4pairIKS5_P8gzFile_sESt10_Select1stISA_ESt4lessIS5_ESaISA_EE4sizeEv
	testq	%rax, %rax
	je	.LBB96_15
# %bb.7:
	movq	%r15, %rdi
	callq	_ZNSt8_Rb_treeINSt7__cxx1112basic_stringIcSt11char_traitsIcESaIcEEESt4pairIKS5_P8gzFile_sESt10_Select1stISA_ESt4lessIS5_ESaISA_EE12_M_rightmostEv
	movq	(%rax), %rdi
	callq	_ZNSt8_Rb_treeINSt7__cxx1112basic_stringIcSt11char_traitsIcESaIcEEESt4pairIKS5_P8gzFile_sESt10_Select1stISA_ESt4lessIS5_ESaISA_EE6_S_keyEPKSt18_Rb_tree_node_base
	movq	%r15, %rdi
	movq	%rax, %rsi
	movq	%r14, %rdx
	callq	_ZNKSt4lessINSt7__cxx1112basic_stringIcSt11char_traitsIcESaIcEEEEclERKS5_S8_
	testb	%al, %al
	je	.LBB96_15
# %bb.8:
	movq	$0, (%rsp)
	movq	%r15, %rdi
	callq	_ZNSt8_Rb_treeINSt7__cxx1112basic_stringIcSt11char_traitsIcESaIcEEESt4pairIKS5_P8gzFile_sESt10_Select1stISA_ESt4lessIS5_ESaISA_EE12_M_rightmostEv
	leaq	8(%rsp), %rdi
	movq	%rsp, %rsi
	jmp	.LBB96_19
.LBB96_9:
	movq	%rbx, %rdi
	callq	_ZNSt8_Rb_treeINSt7__cxx1112basic_stringIcSt11char_traitsIcESaIcEEESt4pairIKS5_P8gzFile_sESt10_Select1stISA_ESt4lessIS5_ESaISA_EE6_S_keyEPKSt18_Rb_tree_node_base
	movq	%r15, %rdi
	movq	%rax, %rsi
	movq	%r14, %rdx
	callq	_ZNKSt4lessINSt7__cxx1112basic_stringIcSt11char_traitsIcESaIcEEEEclERKS5_S8_
	testb	%al, %al
	je	.LBB96_16
# %bb.10:
	movq	32(%rsp), %rbx
	movq	%rbx, (%rsp)
	movq	%r15, %rdi
	callq	_ZNSt8_Rb_treeINSt7__cxx1112basic_stringIcSt11char_traitsIcESaIcEEESt4pairIKS5_P8gzFile_sESt10_Select1stISA_ESt4lessIS5_ESaISA_EE12_M_rightmostEv
	cmpq	%rbx, (%rax)
	je	.LBB96_18
# %bb.11:
	movq	%rsp, %rdi
	callq	_ZNSt17_Rb_tree_iteratorISt4pairIKNSt7__cxx1112basic_stringIcSt11char_traitsIcESaIcEEEP8gzFile_sEEppEv
	movq	(%rax), %rdi
	callq	_ZNSt8_Rb_treeINSt7__cxx1112basic_stringIcSt11char_traitsIcESaIcEEESt4pairIKS5_P8gzFile_sESt10_Select1stISA_ESt4lessIS5_ESaISA_EE6_S_keyEPKSt18_Rb_tree_node_base
	movq	%r15, %rdi
	movq	%r14, %rsi
	movq	%rax, %rdx
	callq	_ZNKSt4lessINSt7__cxx1112basic_stringIcSt11char_traitsIcESaIcEEEEclERKS5_S8_
	testb	%al, %al
	je	.LBB96_15
# %bb.12:
	movq	32(%rsp), %rdi
	callq	_ZNSt8_Rb_treeINSt7__cxx1112basic_stringIcSt11char_traitsIcESaIcEEESt4pairIKS5_P8gzFile_sESt10_Select1stISA_ESt4lessIS5_ESaISA_EE8_S_rightEPSt18_Rb_tree_node_base
	testq	%rax, %rax
	je	.LBB96_23
# %bb.13:
	leaq	8(%rsp), %rdi
	movq	%rsp, %rsi
.LBB96_14:
	movq	%rsi, %rdx
