	.text
	.file	"llvm-link"
	.file	1 "/home/yingj4/Desktop/cs598jtfa20/project/audio_pipeline/./include/audio.h"
	.file	2 "/usr/lib/gcc/x86_64-linux-gnu/9/../../../../include/c++/9/bits/alloc_traits.h"
	.file	3 "/usr/lib/gcc/x86_64-linux-gnu/9/../../../../include/c++/9/iosfwd"
	.file	4 "/home/yingj4/Desktop/cs598jtfa20/project/audio_pipeline/./include/sound.h"
	.file	5 "/home/yingj4/Desktop/cs598jtfa20/project/audio_pipeline/./libspatialaudio/build/Release/include/spatialaudio/AmbisonicCommons.h"
	.file	6 "/usr/lib/gcc/x86_64-linux-gnu/9/../../../../include/c++/9/bits/stringfwd.h"
	.file	7 "/usr/lib/gcc/x86_64-linux-gnu/9/../../../../include/c++/9/ext/new_allocator.h"
	.file	8 "/usr/lib/gcc/x86_64-linux-gnu/9/../../../../include/x86_64-linux-gnu/c++/9/bits/c++config.h"
	.file	9 "/usr/lib/gcc/x86_64-linux-gnu/9/../../../../include/x86_64-linux-gnu/c++/9/bits/c++allocator.h"
	.file	10 "/usr/lib/gcc/x86_64-linux-gnu/9/../../../../include/c++/9/bits/allocator.h"
	.file	11 "/usr/lib/gcc/x86_64-linux-gnu/9/../../../../include/c++/9/ext/alloc_traits.h"
	.file	12 "/usr/lib/gcc/x86_64-linux-gnu/9/../../../../include/c++/9/bits/stl_vector.h"
	.file	13 "/usr/lib/gcc/x86_64-linux-gnu/9/../../../../include/c++/9/type_traits"
	.file	14 "/usr/lib/gcc/x86_64-linux-gnu/9/../../../../include/c++/9/bits/stl_iterator.h"
	.file	15 "/usr/lib/gcc/x86_64-linux-gnu/9/../../../../include/c++/9/bits/stl_iterator_base_types.h"
	.file	16 "/home/yingj4/Desktop/cs598jtfa20/project/audio_pipeline/src/audio.cpp"
	.file	17 "/usr/lib/gcc/x86_64-linux-gnu/9/../../../../include/c++/9/ext/concurrence.h"
	.file	18 "/usr/lib/gcc/x86_64-linux-gnu/9/../../../../include/c++/9/bits/ios_base.h"
	.file	19 "/usr/lib/gcc/x86_64-linux-gnu/9/../../../../include/c++/9/bits/basic_string.h"
	.file	20 "/usr/include/x86_64-linux-gnu/bits/types.h"
	.file	21 "/usr/include/x86_64-linux-gnu/bits/stdint-intn.h"
	.file	22 "/usr/lib/gcc/x86_64-linux-gnu/9/../../../../include/c++/9/bits/char_traits.h"
	.file	23 "/usr/lib/gcc/x86_64-linux-gnu/9/../../../../include/c++/9/ext/numeric_traits.h"
	.file	24 "/usr/include/stdlib.h"
	.file	25 "/usr/lib/gcc/x86_64-linux-gnu/9/../../../../include/c++/9/bits/std_abs.h"
	.file	26 "/usr/include/x86_64-linux-gnu/bits/mathcalls.h"
	.file	27 "/usr/lib/gcc/x86_64-linux-gnu/9/../../../../include/c++/9/cmath"
	.file	28 "/usr/include/math.h"
	.file	29 "/usr/lib/gcc/x86_64-linux-gnu/9/../../../../include/c++/9/math.h"
	.file	30 "/usr/lib/gcc/x86_64-linux-gnu/9/../../../../include/c++/9/debug/debug.h"
	.file	31 "/usr/lib/gcc/x86_64-linux-gnu/9/../../../../include/c++/9/bits/exception_ptr.h"
	.file	32 "/usr/include/x86_64-linux-gnu/bits/types/__mbstate_t.h"
	.file	33 "/usr/include/x86_64-linux-gnu/bits/types/mbstate_t.h"
	.file	34 "/usr/lib/gcc/x86_64-linux-gnu/9/../../../../include/c++/9/cwchar"
	.file	35 "/usr/include/x86_64-linux-gnu/bits/types/wint_t.h"
	.file	36 "/usr/include/wchar.h"
	.file	37 "/usr/include/x86_64-linux-gnu/bits/types/__FILE.h"
	.file	38 "/home/yingj4/llvm-6.0/builtLLVM/lib/clang/6.0.1/include/stddef.h"
	.file	39 "/usr/lib/gcc/x86_64-linux-gnu/9/../../../../include/c++/9/cstdint"
	.file	40 "/usr/include/stdint.h"
	.file	41 "/usr/include/x86_64-linux-gnu/bits/stdint-uintn.h"
	.file	42 "/usr/lib/gcc/x86_64-linux-gnu/9/../../../../include/c++/9/clocale"
	.file	43 "/usr/include/locale.h"
	.file	44 "/usr/include/ctype.h"
	.file	45 "/usr/lib/gcc/x86_64-linux-gnu/9/../../../../include/c++/9/cctype"
	.file	46 "/usr/lib/gcc/x86_64-linux-gnu/9/../../../../include/c++/9/cstdlib"
	.file	47 "/usr/include/x86_64-linux-gnu/bits/types/FILE.h"
	.file	48 "/usr/lib/gcc/x86_64-linux-gnu/9/../../../../include/c++/9/cstdio"
	.file	49 "/usr/include/x86_64-linux-gnu/bits/types/__fpos_t.h"
	.file	50 "/usr/include/stdio.h"
	.file	51 "/usr/lib/gcc/x86_64-linux-gnu/9/../../../../include/c++/9/bits/shared_ptr_base.h"
	.file	52 "/usr/lib/gcc/x86_64-linux-gnu/9/../../../../include/c++/9/stdlib.h"
	.file	53 "/usr/include/wctype.h"
	.file	54 "/usr/lib/gcc/x86_64-linux-gnu/9/../../../../include/c++/9/cwctype"
	.file	55 "/usr/include/x86_64-linux-gnu/bits/wctype-wchar.h"
	.file	56 "/usr/lib/gcc/x86_64-linux-gnu/9/../../../../include/c++/9/bits/postypes.h"
	.globl	_ZN12ILLIXR_AUDIO7ABAudioC2ENSt7__cxx1112basic_stringIcSt11char_traitsIcESaIcEEENS0_11ProcessTypeE # -- Begin function _ZN12ILLIXR_AUDIO7ABAudioC2ENSt7__cxx1112basic_stringIcSt11char_traitsIcESaIcEEENS0_11ProcessTypeE
	.p2align	4, 0x90
	.type	_ZN12ILLIXR_AUDIO7ABAudioC2ENSt7__cxx1112basic_stringIcSt11char_traitsIcESaIcEEENS0_11ProcessTypeE,@function
_ZN12ILLIXR_AUDIO7ABAudioC2ENSt7__cxx1112basic_stringIcSt11char_traitsIcESaIcEEENS0_11ProcessTypeE: # @_ZN12ILLIXR_AUDIO7ABAudioC2ENSt7__cxx1112basic_stringIcSt11char_traitsIcESaIcEEENS0_11ProcessTypeE
.Lfunc_begin0:
	.loc	16 3 0                  # src/audio.cpp:3:0
	.cfi_startproc
	.cfi_personality 3, __gxx_personality_v0
	.cfi_lsda 3, .Lexception0
# %bb.0:
	pushq	%r15
	.cfi_def_cfa_offset 16
	pushq	%r14
	.cfi_def_cfa_offset 24
	pushq	%r13
	.cfi_def_cfa_offset 32
	pushq	%r12
	.cfi_def_cfa_offset 40
	pushq	%rbx
	.cfi_def_cfa_offset 48
	subq	$48, %rsp
	.cfi_def_cfa_offset 96
	.cfi_offset %rbx, -48
	.cfi_offset %r12, -40
	.cfi_offset %r13, -32
	.cfi_offset %r14, -24
	.cfi_offset %r15, -16
	#DEBUG_VALUE: ABAudio:this <- %rdi
	#DEBUG_VALUE: ABAudio:outputFilePath <- [%rsi+0]
	#DEBUG_VALUE: ABAudio:procTypeIn <- %edx
	movq	%rsi, %rbx
	movq	%rdi, %r14
	#DEBUG_VALUE: ABAudio:procTypeIn <- %edx
.Ltmp18:
	#DEBUG_VALUE: ABAudio:outputFilePath <- [%rbx+0]
	#DEBUG_VALUE: ABAudio:this <- %r14
	.loc	16 4 17 prologue_end    # src/audio.cpp:4:17
	movl	%edx, (%r14)
.Ltmp19:
	.loc	16 5 21                 # src/audio.cpp:5:21
	testl	%edx, %edx
.Ltmp20:
	.loc	16 5 9 is_stmt 0        # src/audio.cpp:5:9
	jne	.LBB0_3
.Ltmp21:
# %bb.1:
	#DEBUG_VALUE: ABAudio:this <- %r14
	#DEBUG_VALUE: ABAudio:outputFilePath <- [%rbx+0]
	#DEBUG_VALUE: ABAudio:procTypeIn <- %edx
	.loc	16 6 22 is_stmt 1       # src/audio.cpp:6:22
	movl	$512, %edi              # imm = 0x200
	callq	_Znwm
.Ltmp22:
	movq	%rax, %r15
	.loc	16 6 74 is_stmt 0       # src/audio.cpp:6:74
	movl	$16, %edi
	movl	$4, %esi
	callq	_ZStorSt13_Ios_OpenmodeS_
.Ltmp0:
	.loc	16 6 26                 # src/audio.cpp:6:26
	movq	%r15, %rdi
	movq	%rbx, %rsi
	movl	%eax, %edx
	callq	_ZNSt14basic_ofstreamIcSt11char_traitsIcEEC1ERKNSt7__cxx1112basic_stringIcS1_SaIcEEESt13_Ios_Openmode
.Ltmp1:
.Ltmp23:
# %bb.2:
	#DEBUG_VALUE: ABAudio:this <- %r14
	#DEBUG_VALUE: ABAudio:outputFilePath <- [%rbx+0]
	.loc	16 6 20                 # src/audio.cpp:6:20
	movq	%r15, 16(%r14)
	.loc	16 7 9 is_stmt 1        # src/audio.cpp:7:9
	movq	%r14, %rdi
	callq	_ZN12ILLIXR_AUDIO7ABAudio17generateWAVHeaderEv
.Ltmp24:
.LBB0_3:
	#DEBUG_VALUE: ABAudio:this <- %r14
	#DEBUG_VALUE: ABAudio:outputFilePath <- [%rbx+0]
	.loc	16 10 17                # src/audio.cpp:10:17
	movl	$24, %edi
	callq	_Znwm
	movq	%rax, %rbx
.Ltmp25:
	.loc	16 10 21 is_stmt 0      # src/audio.cpp:10:21
	movq	%rbx, %rdi
	callq	_ZNSt6vectorIPN12ILLIXR_AUDIO5SoundESaIS2_EEC2Ev
	.loc	16 10 15                # src/audio.cpp:10:15
	movq	%rbx, 8(%r14)
	.loc	16 12 15 is_stmt 1      # src/audio.cpp:12:15
	movl	$296, %edi              # imm = 0x128
	callq	_Znwm
	movq	%rax, %rbx
.Ltmp3:
	.loc	16 12 19 is_stmt 0      # src/audio.cpp:12:19
	movq	%rbx, %rdi
	callq	_ZN22CAmbisonicBinauralizerC1Ev
.Ltmp4:
.Ltmp26:
# %bb.4:
	#DEBUG_VALUE: ABAudio:this <- %r14
	.loc	16 12 13                # src/audio.cpp:12:13
	movq	%rbx, 24(%r14)
	.loc	16 14 24 is_stmt 1      # src/audio.cpp:14:24
	movq	(%rbx), %rax
	movq	40(%rax), %r13
	leaq	8(%rsp), %r12
	movq	%r12, %rdi
	callq	_ZNSaIcEC2Ev
.Ltmp6:
	leaq	16(%rsp), %r15
	movl	$.L.str, %esi
	movq	%r15, %rdi
	movq	%r12, %rdx
	callq	_ZNSt7__cxx1112basic_stringIcSt11char_traitsIcESaIcEEC2EPKcRKS3_
.Ltmp7:
.Ltmp27:
# %bb.5:
	#DEBUG_VALUE: ABAudio:this <- %r14
.Ltmp9:
	movq	%r15, (%rsp)
	leaq	12(%rsp), %r9
	movl	$3, %esi
	movl	$1, %edx
	movl	$48000, %ecx            # imm = 0xBB80
	movl	$1024, %r8d             # imm = 0x400
	movq	%rbx, %rdi
	callq	*%r13
	movl	%eax, %ebx
.Ltmp10:
.Ltmp28:
# %bb.6:
	#DEBUG_VALUE: ABAudio:this <- %r14
	.loc	16 0 24 is_stmt 0       # src/audio.cpp:0:24
	leaq	16(%rsp), %rdi
	.loc	16 14 15                # src/audio.cpp:14:15
	callq	_ZNSt7__cxx1112basic_stringIcSt11char_traitsIcESaIcEED2Ev
	leaq	8(%rsp), %rdi
	callq	_ZNSaIcED2Ev
	.loc	16 15 9 is_stmt 1       # src/audio.cpp:15:9
	testb	%bl, %bl
	jne	.LBB0_8
.Ltmp29:
# %bb.7:
	#DEBUG_VALUE: ABAudio:this <- %r14
	.loc	16 16 9                 # src/audio.cpp:16:9
	movl	$.Lstr, %edi
	callq	puts
.Ltmp30:
.LBB0_8:
	#DEBUG_VALUE: ABAudio:this <- %r14
	.loc	16 19 15                # src/audio.cpp:19:15
	movl	$200, %edi
	callq	_Znwm
	movq	%rax, %rbx
.Ltmp12:
	.loc	16 19 19 is_stmt 0      # src/audio.cpp:19:19
	movq	%rbx, %rdi
	callq	_ZN19CAmbisonicProcessorC1Ev
.Ltmp13:
.Ltmp31:
# %bb.9:
	#DEBUG_VALUE: ABAudio:this <- %r14
	.loc	16 19 13                # src/audio.cpp:19:13
	movq	%rbx, 32(%r14)
	.loc	16 20 14 is_stmt 1      # src/audio.cpp:20:14
	movl	$3, %esi
	movl	$1, %edx
	movl	$1024, %ecx             # imm = 0x400
	xorl	%r8d, %r8d
	movq	%rbx, %rdi
	callq	_ZN19CAmbisonicProcessor9ConfigureEjbjj
	.loc	16 22 14                # src/audio.cpp:22:14
	movl	$104, %edi
	callq	_Znwm
	movq	%rax, %rbx
.Ltmp15:
	.loc	16 22 18 is_stmt 0      # src/audio.cpp:22:18
	movq	%rbx, %rdi
	callq	_ZN16CAmbisonicZoomerC1Ev
.Ltmp16:
.Ltmp32:
# %bb.10:
	#DEBUG_VALUE: ABAudio:this <- %r14
	.loc	16 22 12                # src/audio.cpp:22:12
	movq	%rbx, 40(%r14)
	.loc	16 23 13 is_stmt 1      # src/audio.cpp:23:13
	movq	(%rbx), %rax
	movl	$3, %esi
	movl	$1, %edx
	xorl	%ecx, %ecx
	movq	%rbx, %rdi
	callq	*16(%rax)
.Ltmp33:
	.loc	16 24 1                 # src/audio.cpp:24:1
	addq	$48, %rsp
	popq	%rbx
	popq	%r12
	popq	%r13
	popq	%r14
.Ltmp34:
	popq	%r15
	retq
.LBB0_20:
.Ltmp35:
	#DEBUG_VALUE: ABAudio:this <- %r14
	#DEBUG_VALUE: ABAudio:outputFilePath <- [%rbx+0]
.Ltmp2:
	.loc	16 0 1 is_stmt 0        # src/audio.cpp:0:1
	movq	%rax, %r14
.Ltmp36:
	.loc	16 6 22 is_stmt 1       # src/audio.cpp:6:22
	movq	%r15, %rdi
	jmp	.LBB0_18
.Ltmp37:
.LBB0_16:
	#DEBUG_VALUE: ABAudio:this <- %r14
.Ltmp17:
	.loc	16 0 22 is_stmt 0       # src/audio.cpp:0:22
	jmp	.LBB0_17
.Ltmp38:
.LBB0_15:
	#DEBUG_VALUE: ABAudio:this <- %r14
.Ltmp14:
	jmp	.LBB0_17
.Ltmp39:
.LBB0_13:
	#DEBUG_VALUE: ABAudio:this <- %r14
.Ltmp11:
	movq	%rax, %r14
.Ltmp40:
	leaq	16(%rsp), %rdi
	.loc	16 14 15 is_stmt 1      # src/audio.cpp:14:15
	callq	_ZNSt7__cxx1112basic_stringIcSt11char_traitsIcESaIcEED2Ev
	jmp	.LBB0_14
.LBB0_12:
.Ltmp41:
	#DEBUG_VALUE: ABAudio:this <- %r14
.Ltmp8:
	.loc	16 0 15 is_stmt 0       # src/audio.cpp:0:15
	movq	%rax, %r14
.Ltmp42:
.LBB0_14:
	leaq	8(%rsp), %rdi
	.loc	16 14 15                # src/audio.cpp:14:15
	callq	_ZNSaIcED2Ev
	movq	%r14, %rdi
	callq	_Unwind_Resume
.Ltmp43:
.LBB0_11:
	#DEBUG_VALUE: ABAudio:this <- %r14
.Ltmp5:
.LBB0_17:
	#DEBUG_VALUE: ABAudio:this <- %r14
	.loc	16 0 15                 # src/audio.cpp:0:15
	movq	%rax, %r14
.Ltmp44:
	movq	%rbx, %rdi
.LBB0_18:
	callq	_ZdlPv
	movq	%r14, %rdi
	callq	_Unwind_Resume
.Lfunc_end0:
	.size	_ZN12ILLIXR_AUDIO7ABAudioC2ENSt7__cxx1112basic_stringIcSt11char_traitsIcESaIcEEENS0_11ProcessTypeE, .Lfunc_end0-_ZN12ILLIXR_AUDIO7ABAudioC2ENSt7__cxx1112basic_stringIcSt11char_traitsIcESaIcEEENS0_11ProcessTypeE
	.cfi_endproc
	.section	.gcc_except_table,"a",@progbits
	.p2align	2
GCC_except_table0:
.Lexception0:
	.byte	255                     # @LPStart Encoding = omit
	.byte	3                       # @TType Encoding = udata4
	.asciz	"\222\201\200"          # @TType base offset
	.byte	3                       # Call site Encoding = udata4
	.ascii	"\217\001"              # Call site table length
	.long	.Lfunc_begin0-.Lfunc_begin0 # >> Call Site 1 <<
	.long	.Ltmp0-.Lfunc_begin0    #   Call between .Lfunc_begin0 and .Ltmp0
	.long	0                       #     has no landing pad
	.byte	0                       #   On action: cleanup
	.long	.Ltmp0-.Lfunc_begin0    # >> Call Site 2 <<
	.long	.Ltmp1-.Ltmp0           #   Call between .Ltmp0 and .Ltmp1
	.long	.Ltmp2-.Lfunc_begin0    #     jumps to .Ltmp2
	.byte	0                       #   On action: cleanup
	.long	.Ltmp1-.Lfunc_begin0    # >> Call Site 3 <<
	.long	.Ltmp3-.Ltmp1           #   Call between .Ltmp1 and .Ltmp3
	.long	0                       #     has no landing pad
	.byte	0                       #   On action: cleanup
	.long	.Ltmp3-.Lfunc_begin0    # >> Call Site 4 <<
	.long	.Ltmp4-.Ltmp3           #   Call between .Ltmp3 and .Ltmp4
	.long	.Ltmp5-.Lfunc_begin0    #     jumps to .Ltmp5
	.byte	0                       #   On action: cleanup
	.long	.Ltmp6-.Lfunc_begin0    # >> Call Site 5 <<
	.long	.Ltmp7-.Ltmp6           #   Call between .Ltmp6 and .Ltmp7
	.long	.Ltmp8-.Lfunc_begin0    #     jumps to .Ltmp8
	.byte	0                       #   On action: cleanup
	.long	.Ltmp9-.Lfunc_begin0    # >> Call Site 6 <<
	.long	.Ltmp10-.Ltmp9          #   Call between .Ltmp9 and .Ltmp10
	.long	.Ltmp11-.Lfunc_begin0   #     jumps to .Ltmp11
	.byte	0                       #   On action: cleanup
	.long	.Ltmp10-.Lfunc_begin0   # >> Call Site 7 <<
	.long	.Ltmp12-.Ltmp10         #   Call between .Ltmp10 and .Ltmp12
	.long	0                       #     has no landing pad
	.byte	0                       #   On action: cleanup
	.long	.Ltmp12-.Lfunc_begin0   # >> Call Site 8 <<
	.long	.Ltmp13-.Ltmp12         #   Call between .Ltmp12 and .Ltmp13
	.long	.Ltmp14-.Lfunc_begin0   #     jumps to .Ltmp14
	.byte	0                       #   On action: cleanup
	.long	.Ltmp13-.Lfunc_begin0   # >> Call Site 9 <<
	.long	.Ltmp15-.Ltmp13         #   Call between .Ltmp13 and .Ltmp15
	.long	0                       #     has no landing pad
	.byte	0                       #   On action: cleanup
	.long	.Ltmp15-.Lfunc_begin0   # >> Call Site 10 <<
	.long	.Ltmp16-.Ltmp15         #   Call between .Ltmp15 and .Ltmp16
	.long	.Ltmp17-.Lfunc_begin0   #     jumps to .Ltmp17
	.byte	0                       #   On action: cleanup
	.long	.Ltmp16-.Lfunc_begin0   # >> Call Site 11 <<
	.long	.Lfunc_end0-.Ltmp16     #   Call between .Ltmp16 and .Lfunc_end0
	.long	0                       #     has no landing pad
	.byte	0                       #   On action: cleanup
	.p2align	2
                                        # -- End function
	.section	.text._ZStorSt13_Ios_OpenmodeS_,"axG",@progbits,_ZStorSt13_Ios_OpenmodeS_,comdat
	.weak	_ZStorSt13_Ios_OpenmodeS_ # -- Begin function _ZStorSt13_Ios_OpenmodeS_
	.p2align	4, 0x90
	.type	_ZStorSt13_Ios_OpenmodeS_,@function
_ZStorSt13_Ios_OpenmodeS_:              # @_ZStorSt13_Ios_OpenmodeS_
.Lfunc_begin1:
	.loc	18 130 0 is_stmt 1      # /usr/lib/gcc/x86_64-linux-gnu/9/../../../../include/c++/9/bits/ios_base.h:130:0
	.cfi_startproc
# %bb.0:
	#DEBUG_VALUE: operator|:__a <- %edi
	#DEBUG_VALUE: operator|:__a <- %edi
	#DEBUG_VALUE: operator|:__b <- %esi
	#DEBUG_VALUE: operator|:__b <- %esi
	.loc	18 130 48 prologue_end  # /usr/lib/gcc/x86_64-linux-gnu/9/../../../../include/c++/9/bits/ios_base.h:130:48
	orl	%esi, %edi
.Ltmp45:
	.loc	18 130 5 is_stmt 0      # /usr/lib/gcc/x86_64-linux-gnu/9/../../../../include/c++/9/bits/ios_base.h:130:5
	movl	%edi, %eax
	retq
.Ltmp46:
.Lfunc_end1:
	.size	_ZStorSt13_Ios_OpenmodeS_, .Lfunc_end1-_ZStorSt13_Ios_OpenmodeS_
	.cfi_endproc
                                        # -- End function
	.text
	.globl	_ZN12ILLIXR_AUDIO7ABAudio17generateWAVHeaderEv # -- Begin function _ZN12ILLIXR_AUDIO7ABAudio17generateWAVHeaderEv
	.p2align	4, 0x90
	.type	_ZN12ILLIXR_AUDIO7ABAudio17generateWAVHeaderEv,@function
_ZN12ILLIXR_AUDIO7ABAudio17generateWAVHeaderEv: # @_ZN12ILLIXR_AUDIO7ABAudio17generateWAVHeaderEv
.Lfunc_begin2:
	.loc	16 162 0 is_stmt 1      # src/audio.cpp:162:0
	.cfi_startproc
# %bb.0:
	pushq	%r14
	.cfi_def_cfa_offset 16
	pushq	%rbx
	.cfi_def_cfa_offset 24
	subq	$56, %rsp
	.cfi_def_cfa_offset 80
	.cfi_offset %rbx, -24
	.cfi_offset %r14, -16
	#DEBUG_VALUE: generateWAVHeader:this <- %rdi
	movq	%rdi, %rbx
.Ltmp47:
	#DEBUG_VALUE: generateWAVHeader:this <- %rbx
	leaq	8(%rsp), %r14
.Ltmp48:
	#DEBUG_VALUE: generateWAVHeader:wavh <- [DW_OP_plus_uconst 8] [%rsp+0]
	.loc	16 164 12 prologue_end  # src/audio.cpp:164:12
	movq	%r14, %rdi
	callq	_ZN12ILLIXR_AUDIO11WAVHeader_tC2Ev
	.loc	16 165 2                # src/audio.cpp:165:2
	movq	16(%rbx), %rdi
	.loc	16 165 14 is_stmt 0     # src/audio.cpp:165:14
	movl	$44, %edx
	movq	%r14, %rsi
	callq	_ZNSo5writeEPKcl
	.loc	16 166 1 is_stmt 1      # src/audio.cpp:166:1
	addq	$56, %rsp
.Ltmp49:
	popq	%rbx
.Ltmp50:
	popq	%r14
	retq
.Ltmp51:
.Lfunc_end2:
	.size	_ZN12ILLIXR_AUDIO7ABAudio17generateWAVHeaderEv, .Lfunc_end2-_ZN12ILLIXR_AUDIO7ABAudio17generateWAVHeaderEv
	.cfi_endproc
                                        # -- End function
	.section	.text._ZNSt6vectorIPN12ILLIXR_AUDIO5SoundESaIS2_EEC2Ev,"axG",@progbits,_ZNSt6vectorIPN12ILLIXR_AUDIO5SoundESaIS2_EEC2Ev,comdat
	.weak	_ZNSt6vectorIPN12ILLIXR_AUDIO5SoundESaIS2_EEC2Ev # -- Begin function _ZNSt6vectorIPN12ILLIXR_AUDIO5SoundESaIS2_EEC2Ev
	.p2align	4, 0x90
	.type	_ZNSt6vectorIPN12ILLIXR_AUDIO5SoundESaIS2_EEC2Ev,@function
_ZNSt6vectorIPN12ILLIXR_AUDIO5SoundESaIS2_EEC2Ev: # @_ZNSt6vectorIPN12ILLIXR_AUDIO5SoundESaIS2_EEC2Ev
.Lfunc_begin3:
	.loc	12 484 0                # /usr/lib/gcc/x86_64-linux-gnu/9/../../../../include/c++/9/bits/stl_vector.h:484:0
	.cfi_startproc
# %bb.0:
	#DEBUG_VALUE: vector:this <- %rdi
	#DEBUG_VALUE: vector:this <- %rdi
	#DEBUG_VALUE: vector:this <- %rdi
	.loc	12 484 7 prologue_end   # /usr/lib/gcc/x86_64-linux-gnu/9/../../../../include/c++/9/bits/stl_vector.h:484:7
	jmp	_ZNSt12_Vector_baseIPN12ILLIXR_AUDIO5SoundESaIS2_EEC2Ev # TAILCALL
.Ltmp52:
.Lfunc_end3:
	.size	_ZNSt6vectorIPN12ILLIXR_AUDIO5SoundESaIS2_EEC2Ev, .Lfunc_end3-_ZNSt6vectorIPN12ILLIXR_AUDIO5SoundESaIS2_EEC2Ev
	.cfi_endproc
                                        # -- End function
	.section	.text._ZN9__gnu_cxx13new_allocatorIcED2Ev,"axG",@progbits,_ZN9__gnu_cxx13new_allocatorIcED2Ev,comdat
	.weak	_ZN9__gnu_cxx13new_allocatorIcED2Ev # -- Begin function _ZN9__gnu_cxx13new_allocatorIcED2Ev
	.p2align	4, 0x90
	.type	_ZN9__gnu_cxx13new_allocatorIcED2Ev,@function
_ZN9__gnu_cxx13new_allocatorIcED2Ev:    # @_ZN9__gnu_cxx13new_allocatorIcED2Ev
.Lfunc_begin4:
	.loc	7 89 0                  # /usr/lib/gcc/x86_64-linux-gnu/9/../../../../include/c++/9/ext/new_allocator.h:89:0
	.cfi_startproc
# %bb.0:
	#DEBUG_VALUE: ~new_allocator:this <- %rdi
	.loc	7 89 48 prologue_end    # /usr/lib/gcc/x86_64-linux-gnu/9/../../../../include/c++/9/ext/new_allocator.h:89:48
	retq
.Ltmp53:
.Lfunc_end4:
	.size	_ZN9__gnu_cxx13new_allocatorIcED2Ev, .Lfunc_end4-_ZN9__gnu_cxx13new_allocatorIcED2Ev
	.cfi_endproc
                                        # -- End function
	.section	.text.__clang_call_terminate,"axG",@progbits,__clang_call_terminate,comdat
	.hidden	__clang_call_terminate  # -- Begin function __clang_call_terminate
	.weak	__clang_call_terminate
	.p2align	4, 0x90
	.type	__clang_call_terminate,@function
__clang_call_terminate:                 # @__clang_call_terminate
.Lfunc_begin5:
	.cfi_startproc
# %bb.0:
	pushq	%rax
	.cfi_def_cfa_offset 16
	callq	__cxa_begin_catch
	callq	_ZSt9terminatev
.Lfunc_end5:
	.size	__clang_call_terminate, .Lfunc_end5-__clang_call_terminate
	.cfi_endproc
                                        # -- End function
	.section	.text._ZNSt16allocator_traitsISaIcEE10deallocateERS0_Pcm,"axG",@progbits,_ZNSt16allocator_traitsISaIcEE10deallocateERS0_Pcm,comdat
	.weak	_ZNSt16allocator_traitsISaIcEE10deallocateERS0_Pcm # -- Begin function _ZNSt16allocator_traitsISaIcEE10deallocateERS0_Pcm
	.p2align	4, 0x90
	.type	_ZNSt16allocator_traitsISaIcEE10deallocateERS0_Pcm,@function
_ZNSt16allocator_traitsISaIcEE10deallocateERS0_Pcm: # @_ZNSt16allocator_traitsISaIcEE10deallocateERS0_Pcm
.Lfunc_begin6:
	.loc	2 470 0                 # /usr/lib/gcc/x86_64-linux-gnu/9/../../../../include/c++/9/bits/alloc_traits.h:470:0
	.cfi_startproc
# %bb.0:
	#DEBUG_VALUE: deallocate:__a <- %rdi
	#DEBUG_VALUE: deallocate:__a <- %rdi
	#DEBUG_VALUE: deallocate:__a <- %rdi
	#DEBUG_VALUE: deallocate:__p <- %rsi
	#DEBUG_VALUE: deallocate:__p <- %rsi
	#DEBUG_VALUE: deallocate:__p <- %rsi
	#DEBUG_VALUE: deallocate:__n <- %rdx
	#DEBUG_VALUE: deallocate:__n <- %rdx
	#DEBUG_VALUE: deallocate:__n <- %rdx
	.loc	2 470 13 prologue_end   # /usr/lib/gcc/x86_64-linux-gnu/9/../../../../include/c++/9/bits/alloc_traits.h:470:13
	jmp	_ZN9__gnu_cxx13new_allocatorIcE10deallocateEPcm # TAILCALL
.Ltmp54:
.Lfunc_end6:
	.size	_ZNSt16allocator_traitsISaIcEE10deallocateERS0_Pcm, .Lfunc_end6-_ZNSt16allocator_traitsISaIcEE10deallocateERS0_Pcm
	.cfi_endproc
                                        # -- End function
	.section	.text._ZN9__gnu_cxx13new_allocatorIcE10deallocateEPcm,"axG",@progbits,_ZN9__gnu_cxx13new_allocatorIcE10deallocateEPcm,comdat
	.weak	_ZN9__gnu_cxx13new_allocatorIcE10deallocateEPcm # -- Begin function _ZN9__gnu_cxx13new_allocatorIcE10deallocateEPcm
	.p2align	4, 0x90
	.type	_ZN9__gnu_cxx13new_allocatorIcE10deallocateEPcm,@function
_ZN9__gnu_cxx13new_allocatorIcE10deallocateEPcm: # @_ZN9__gnu_cxx13new_allocatorIcE10deallocateEPcm
.Lfunc_begin7:
	.loc	7 120 0                 # /usr/lib/gcc/x86_64-linux-gnu/9/../../../../include/c++/9/ext/new_allocator.h:120:0
	.cfi_startproc
# %bb.0:
	#DEBUG_VALUE: deallocate:this <- %rdi
	#DEBUG_VALUE: deallocate:__p <- %rsi
	#DEBUG_VALUE: deallocate:__p <- %rsi
	#DEBUG_VALUE: deallocate: <- %rdx
	.loc	7 128 2 prologue_end    # /usr/lib/gcc/x86_64-linux-gnu/9/../../../../include/c++/9/ext/new_allocator.h:128:2
	movq	%rsi, %rdi
.Ltmp55:
	#DEBUG_VALUE: deallocate:__p <- %rdi
	jmp	_ZdlPv                  # TAILCALL
.Ltmp56:
.Lfunc_end7:
	.size	_ZN9__gnu_cxx13new_allocatorIcE10deallocateEPcm, .Lfunc_end7-_ZN9__gnu_cxx13new_allocatorIcE10deallocateEPcm
	.cfi_endproc
                                        # -- End function
	.section	.text._ZNSt14pointer_traitsIPKcE10pointer_toERS0_,"axG",@progbits,_ZNSt14pointer_traitsIPKcE10pointer_toERS0_,comdat
	.weak	_ZNSt14pointer_traitsIPKcE10pointer_toERS0_ # -- Begin function _ZNSt14pointer_traitsIPKcE10pointer_toERS0_
	.p2align	4, 0x90
	.type	_ZNSt14pointer_traitsIPKcE10pointer_toERS0_,@function
_ZNSt14pointer_traitsIPKcE10pointer_toERS0_: # @_ZNSt14pointer_traitsIPKcE10pointer_toERS0_
.Lfunc_begin8:
	.file	57 "/usr/lib/gcc/x86_64-linux-gnu/9/../../../../include/c++/9/bits/ptr_traits.h"
	.loc	57 147 0                # /usr/lib/gcc/x86_64-linux-gnu/9/../../../../include/c++/9/bits/ptr_traits.h:147:0
	.cfi_startproc
# %bb.0:
	#DEBUG_VALUE: pointer_to:__r <- %rdi
	#DEBUG_VALUE: pointer_to:__r <- %rdi
	#DEBUG_VALUE: pointer_to:__r <- %rdi
	.loc	57 147 16 prologue_end  # /usr/lib/gcc/x86_64-linux-gnu/9/../../../../include/c++/9/bits/ptr_traits.h:147:16
	jmp	_ZSt9addressofIKcEPT_RS1_ # TAILCALL
.Ltmp57:
.Lfunc_end8:
	.size	_ZNSt14pointer_traitsIPKcE10pointer_toERS0_, .Lfunc_end8-_ZNSt14pointer_traitsIPKcE10pointer_toERS0_
	.cfi_endproc
                                        # -- End function
	.section	.text._ZSt9addressofIKcEPT_RS1_,"axG",@progbits,_ZSt9addressofIKcEPT_RS1_,comdat
	.weak	_ZSt9addressofIKcEPT_RS1_ # -- Begin function _ZSt9addressofIKcEPT_RS1_
	.p2align	4, 0x90
	.type	_ZSt9addressofIKcEPT_RS1_,@function
_ZSt9addressofIKcEPT_RS1_:              # @_ZSt9addressofIKcEPT_RS1_
.Lfunc_begin9:
	.file	58 "/usr/lib/gcc/x86_64-linux-gnu/9/../../../../include/c++/9/bits/move.h"
	.loc	58 139 0                # /usr/lib/gcc/x86_64-linux-gnu/9/../../../../include/c++/9/bits/move.h:139:0
	.cfi_startproc
# %bb.0:
	#DEBUG_VALUE: addressof<const char>:__r <- %rdi
	#DEBUG_VALUE: addressof<const char>:__r <- %rdi
	#DEBUG_VALUE: addressof<const char>:__r <- %rdi
	.loc	58 139 14 prologue_end  # /usr/lib/gcc/x86_64-linux-gnu/9/../../../../include/c++/9/bits/move.h:139:14
	jmp	_ZSt11__addressofIKcEPT_RS1_ # TAILCALL
.Ltmp58:
.Lfunc_end9:
	.size	_ZSt9addressofIKcEPT_RS1_, .Lfunc_end9-_ZSt9addressofIKcEPT_RS1_
	.cfi_endproc
                                        # -- End function
	.section	.text._ZSt11__addressofIKcEPT_RS1_,"axG",@progbits,_ZSt11__addressofIKcEPT_RS1_,comdat
	.weak	_ZSt11__addressofIKcEPT_RS1_ # -- Begin function _ZSt11__addressofIKcEPT_RS1_
	.p2align	4, 0x90
	.type	_ZSt11__addressofIKcEPT_RS1_,@function
_ZSt11__addressofIKcEPT_RS1_:           # @_ZSt11__addressofIKcEPT_RS1_
.Lfunc_begin10:
	.loc	58 48 0                 # /usr/lib/gcc/x86_64-linux-gnu/9/../../../../include/c++/9/bits/move.h:48:0
	.cfi_startproc
# %bb.0:
	#DEBUG_VALUE: __addressof<const char>:__r <- %rdi
	#DEBUG_VALUE: __addressof<const char>:__r <- %rdi
	.loc	58 48 7 prologue_end    # /usr/lib/gcc/x86_64-linux-gnu/9/../../../../include/c++/9/bits/move.h:48:7
	movq	%rdi, %rax
.Ltmp59:
	#DEBUG_VALUE: __addressof<const char>:__r <- %rax
	retq
.Ltmp60:
.Lfunc_end10:
	.size	_ZSt11__addressofIKcEPT_RS1_, .Lfunc_end10-_ZSt11__addressofIKcEPT_RS1_
	.cfi_endproc
                                        # -- End function
	.section	.text._ZNSt11char_traitsIcE6lengthEPKc,"axG",@progbits,_ZNSt11char_traitsIcE6lengthEPKc,comdat
	.weak	_ZNSt11char_traitsIcE6lengthEPKc # -- Begin function _ZNSt11char_traitsIcE6lengthEPKc
	.p2align	4, 0x90
	.type	_ZNSt11char_traitsIcE6lengthEPKc,@function
_ZNSt11char_traitsIcE6lengthEPKc:       # @_ZNSt11char_traitsIcE6lengthEPKc
.Lfunc_begin11:
	.loc	22 330 0                # /usr/lib/gcc/x86_64-linux-gnu/9/../../../../include/c++/9/bits/char_traits.h:330:0
	.cfi_startproc
# %bb.0:
	#DEBUG_VALUE: length:__s <- %rdi
	#DEBUG_VALUE: length:__s <- %rdi
	#DEBUG_VALUE: length:__s <- %rdi
	.loc	22 335 9 prologue_end   # /usr/lib/gcc/x86_64-linux-gnu/9/../../../../include/c++/9/bits/char_traits.h:335:9
	jmp	strlen                  # TAILCALL
.Ltmp61:
.Lfunc_end11:
	.size	_ZNSt11char_traitsIcE6lengthEPKc, .Lfunc_end11-_ZNSt11char_traitsIcE6lengthEPKc
	.cfi_endproc
                                        # -- End function
	.section	.text._ZNSt7__cxx1112basic_stringIcSt11char_traitsIcESaIcEE12_M_constructIPKcEEvT_S8_,"axG",@progbits,_ZNSt7__cxx1112basic_stringIcSt11char_traitsIcESaIcEE12_M_constructIPKcEEvT_S8_,comdat
	.weak	_ZNSt7__cxx1112basic_stringIcSt11char_traitsIcESaIcEE12_M_constructIPKcEEvT_S8_ # -- Begin function _ZNSt7__cxx1112basic_stringIcSt11char_traitsIcESaIcEE12_M_constructIPKcEEvT_S8_
	.p2align	4, 0x90
	.type	_ZNSt7__cxx1112basic_stringIcSt11char_traitsIcESaIcEE12_M_constructIPKcEEvT_S8_,@function
_ZNSt7__cxx1112basic_stringIcSt11char_traitsIcESaIcEE12_M_constructIPKcEEvT_S8_: # @_ZNSt7__cxx1112basic_stringIcSt11char_traitsIcESaIcEE12_M_constructIPKcEEvT_S8_
.Lfunc_begin12:
	.loc	19 264 0                # /usr/lib/gcc/x86_64-linux-gnu/9/../../../../include/c++/9/bits/basic_string.h:264:0
	.cfi_startproc
# %bb.0:
	#DEBUG_VALUE: _M_construct<const char *>:this <- %rdi
	#DEBUG_VALUE: _M_construct<const char *>:this <- %rdi
	#DEBUG_VALUE: _M_construct<const char *>:this <- %rdi
	#DEBUG_VALUE: _M_construct<const char *>:__beg <- %rsi
	#DEBUG_VALUE: _M_construct<const char *>:__beg <- %rsi
	#DEBUG_VALUE: _M_construct<const char *>:__beg <- %rsi
	#DEBUG_VALUE: _M_construct<const char *>:__end <- %rdx
	#DEBUG_VALUE: _M_construct<const char *>:__end <- %rdx
	#DEBUG_VALUE: _M_construct<const char *>:__end <- %rdx
	.loc	19 266 4 prologue_end   # /usr/lib/gcc/x86_64-linux-gnu/9/../../../../include/c++/9/bits/basic_string.h:266:4
	jmp	_ZNSt7__cxx1112basic_stringIcSt11char_traitsIcESaIcEE16_M_construct_auxIPKcEEvT_S8_St12__false_type # TAILCALL
.Ltmp62:
.Lfunc_end12:
	.size	_ZNSt7__cxx1112basic_stringIcSt11char_traitsIcESaIcEE12_M_constructIPKcEEvT_S8_, .Lfunc_end12-_ZNSt7__cxx1112basic_stringIcSt11char_traitsIcESaIcEE12_M_constructIPKcEEvT_S8_
	.cfi_endproc
                                        # -- End function
	.section	.text._ZNSt7__cxx1112basic_stringIcSt11char_traitsIcESaIcEE16_M_construct_auxIPKcEEvT_S8_St12__false_type,"axG",@progbits,_ZNSt7__cxx1112basic_stringIcSt11char_traitsIcESaIcEE16_M_construct_auxIPKcEEvT_S8_St12__false_type,comdat
	.weak	_ZNSt7__cxx1112basic_stringIcSt11char_traitsIcESaIcEE16_M_construct_auxIPKcEEvT_S8_St12__false_type # -- Begin function _ZNSt7__cxx1112basic_stringIcSt11char_traitsIcESaIcEE16_M_construct_auxIPKcEEvT_S8_St12__false_type
	.p2align	4, 0x90
	.type	_ZNSt7__cxx1112basic_stringIcSt11char_traitsIcESaIcEE16_M_construct_auxIPKcEEvT_S8_St12__false_type,@function
_ZNSt7__cxx1112basic_stringIcSt11char_traitsIcESaIcEE16_M_construct_auxIPKcEEvT_S8_St12__false_type: # @_ZNSt7__cxx1112basic_stringIcSt11char_traitsIcESaIcEE16_M_construct_auxIPKcEEvT_S8_St12__false_type
.Lfunc_begin13:
	.loc	19 245 0                # /usr/lib/gcc/x86_64-linux-gnu/9/../../../../include/c++/9/bits/basic_string.h:245:0
	.cfi_startproc
# %bb.0:
	#DEBUG_VALUE: _M_construct_aux<const char *>:this <- %rdi
	#DEBUG_VALUE: _M_construct_aux<const char *>:this <- %rdi
	#DEBUG_VALUE: _M_construct_aux<const char *>:this <- %rdi
	#DEBUG_VALUE: _M_construct_aux<const char *>:__beg <- %rsi
	#DEBUG_VALUE: _M_construct_aux<const char *>:__beg <- %rsi
	#DEBUG_VALUE: _M_construct_aux<const char *>:__beg <- %rsi
	#DEBUG_VALUE: _M_construct_aux<const char *>:__end <- %rdx
	#DEBUG_VALUE: _M_construct_aux<const char *>:__end <- %rdx
	#DEBUG_VALUE: _M_construct_aux<const char *>:__end <- %rdx
	.loc	19 247 11 prologue_end  # /usr/lib/gcc/x86_64-linux-gnu/9/../../../../include/c++/9/bits/basic_string.h:247:11
	jmp	_ZNSt7__cxx1112basic_stringIcSt11char_traitsIcESaIcEE12_M_constructIPKcEEvT_S8_St20forward_iterator_tag # TAILCALL
.Ltmp63:
.Lfunc_end13:
	.size	_ZNSt7__cxx1112basic_stringIcSt11char_traitsIcESaIcEE16_M_construct_auxIPKcEEvT_S8_St12__false_type, .Lfunc_end13-_ZNSt7__cxx1112basic_stringIcSt11char_traitsIcESaIcEE16_M_construct_auxIPKcEEvT_S8_St12__false_type
	.cfi_endproc
	.file	59 "/usr/lib/gcc/x86_64-linux-gnu/9/../../../../include/c++/9/bits/cpp_type_traits.h"
                                        # -- End function
	.section	.text._ZNSt7__cxx1112basic_stringIcSt11char_traitsIcESaIcEE12_M_constructIPKcEEvT_S8_St20forward_iterator_tag,"axG",@progbits,_ZNSt7__cxx1112basic_stringIcSt11char_traitsIcESaIcEE12_M_constructIPKcEEvT_S8_St20forward_iterator_tag,comdat
	.weak	_ZNSt7__cxx1112basic_stringIcSt11char_traitsIcESaIcEE12_M_constructIPKcEEvT_S8_St20forward_iterator_tag # -- Begin function _ZNSt7__cxx1112basic_stringIcSt11char_traitsIcESaIcEE12_M_constructIPKcEEvT_S8_St20forward_iterator_tag
	.p2align	4, 0x90
	.type	_ZNSt7__cxx1112basic_stringIcSt11char_traitsIcESaIcEE12_M_constructIPKcEEvT_S8_St20forward_iterator_tag,@function
_ZNSt7__cxx1112basic_stringIcSt11char_traitsIcESaIcEE12_M_constructIPKcEEvT_S8_St20forward_iterator_tag: # @_ZNSt7__cxx1112basic_stringIcSt11char_traitsIcESaIcEE12_M_constructIPKcEEvT_S8_St20forward_iterator_tag
.Lfunc_begin14:
	.file	60 "/usr/lib/gcc/x86_64-linux-gnu/9/../../../../include/c++/9/bits/basic_string.tcc"
	.loc	60 209 0                # /usr/lib/gcc/x86_64-linux-gnu/9/../../../../include/c++/9/bits/basic_string.tcc:209:0
	.cfi_startproc
# %bb.0:
	pushq	%r15
	.cfi_def_cfa_offset 16
	pushq	%r14
	.cfi_def_cfa_offset 24
	pushq	%rbx
	.cfi_def_cfa_offset 32
	subq	$16, %rsp
	.cfi_def_cfa_offset 48
	.cfi_offset %rbx, -32
	.cfi_offset %r14, -24
	.cfi_offset %r15, -16
	#DEBUG_VALUE: _M_construct<const char *>:this <- %rdi
	#DEBUG_VALUE: _M_construct<const char *>:__beg <- %rsi
	#DEBUG_VALUE: _M_construct<const char *>:__end <- %rdx
	movq	%rdx, %r14
	movq	%rsi, %rbx
	movq	%rdi, %r15
.Ltmp64:
	#DEBUG_VALUE: _M_construct<const char *>:__end <- %r14
	#DEBUG_VALUE: _M_construct<const char *>:__beg <- %rbx
	#DEBUG_VALUE: _M_construct<const char *>:this <- %r15
	.loc	60 211 6 prologue_end   # /usr/lib/gcc/x86_64-linux-gnu/9/../../../../include/c++/9/bits/basic_string.tcc:211:6
	movq	%rbx, %rdi
	callq	_ZN9__gnu_cxx17__is_null_pointerIKcEEbPT_
	.loc	60 211 51 is_stmt 0     # /usr/lib/gcc/x86_64-linux-gnu/9/../../../../include/c++/9/bits/basic_string.tcc:211:51
	cmpq	%r14, %rbx
	.loc	60 211 42               # /usr/lib/gcc/x86_64-linux-gnu/9/../../../../include/c++/9/bits/basic_string.tcc:211:42
	je	.LBB14_2
.Ltmp65:
# %bb.1:
	#DEBUG_VALUE: _M_construct<const char *>:this <- %r15
	#DEBUG_VALUE: _M_construct<const char *>:__beg <- %rbx
	#DEBUG_VALUE: _M_construct<const char *>:__end <- %r14
	testb	%al, %al
	jne	.LBB14_5
.Ltmp66:
.LBB14_2:
	#DEBUG_VALUE: _M_construct<const char *>:this <- %r15
	#DEBUG_VALUE: _M_construct<const char *>:__beg <- %rbx
	#DEBUG_VALUE: _M_construct<const char *>:__end <- %r14
	.loc	60 215 44 is_stmt 1     # /usr/lib/gcc/x86_64-linux-gnu/9/../../../../include/c++/9/bits/basic_string.tcc:215:44
	movq	%rbx, %rdi
	movq	%r14, %rsi
	callq	_ZSt8distanceIPKcENSt15iterator_traitsIT_E15difference_typeES3_S3_
.Ltmp67:
	#DEBUG_VALUE: _M_construct<const char *>:__dnew <- %rax
	.loc	60 215 12 is_stmt 0     # /usr/lib/gcc/x86_64-linux-gnu/9/../../../../include/c++/9/bits/basic_string.tcc:215:12
	movq	%rax, 8(%rsp)
.Ltmp68:
	.loc	60 217 13 is_stmt 1     # /usr/lib/gcc/x86_64-linux-gnu/9/../../../../include/c++/9/bits/basic_string.tcc:217:13
	cmpq	$16, %rax
.Ltmp69:
	.loc	60 217 6 is_stmt 0      # /usr/lib/gcc/x86_64-linux-gnu/9/../../../../include/c++/9/bits/basic_string.tcc:217:6
	jb	.LBB14_4
.Ltmp70:
# %bb.3:
	#DEBUG_VALUE: _M_construct<const char *>:__dnew <- %rax
	#DEBUG_VALUE: _M_construct<const char *>:this <- %r15
	#DEBUG_VALUE: _M_construct<const char *>:__beg <- %rbx
	#DEBUG_VALUE: _M_construct<const char *>:__end <- %r14
	.loc	60 0 6                  # /usr/lib/gcc/x86_64-linux-gnu/9/../../../../include/c++/9/bits/basic_string.tcc:0:6
	leaq	8(%rsp), %rsi
.Ltmp71:
	#DEBUG_VALUE: _M_construct<const char *>:__dnew <- [DW_OP_plus_uconst 8] [%rsp+0]
	.loc	60 219 14 is_stmt 1     # /usr/lib/gcc/x86_64-linux-gnu/9/../../../../include/c++/9/bits/basic_string.tcc:219:14
	xorl	%edx, %edx
	movq	%r15, %rdi
	callq	_ZNSt7__cxx1112basic_stringIcSt11char_traitsIcESaIcEE9_M_createERmm
	.loc	60 219 6 is_stmt 0      # /usr/lib/gcc/x86_64-linux-gnu/9/../../../../include/c++/9/bits/basic_string.tcc:219:6
	movq	%r15, %rdi
	movq	%rax, %rsi
	callq	_ZNSt7__cxx1112basic_stringIcSt11char_traitsIcESaIcEE7_M_dataEPc
	.loc	60 220 18 is_stmt 1     # /usr/lib/gcc/x86_64-linux-gnu/9/../../../../include/c++/9/bits/basic_string.tcc:220:18
	movq	8(%rsp), %rsi
.Ltmp72:
	#DEBUG_VALUE: _M_construct<const char *>:__dnew <- %rsi
	.loc	60 220 6 is_stmt 0      # /usr/lib/gcc/x86_64-linux-gnu/9/../../../../include/c++/9/bits/basic_string.tcc:220:6
	movq	%r15, %rdi
	callq	_ZNSt7__cxx1112basic_stringIcSt11char_traitsIcESaIcEE11_M_capacityEm
.Ltmp73:
.LBB14_4:
	#DEBUG_VALUE: _M_construct<const char *>:this <- %r15
	#DEBUG_VALUE: _M_construct<const char *>:__beg <- %rbx
	#DEBUG_VALUE: _M_construct<const char *>:__end <- %r14
	.loc	60 225 26 is_stmt 1     # /usr/lib/gcc/x86_64-linux-gnu/9/../../../../include/c++/9/bits/basic_string.tcc:225:26
	movq	%r15, %rdi
	callq	_ZNKSt7__cxx1112basic_stringIcSt11char_traitsIcESaIcEE7_M_dataEv
	.loc	60 225 6 is_stmt 0      # /usr/lib/gcc/x86_64-linux-gnu/9/../../../../include/c++/9/bits/basic_string.tcc:225:6
	movq	%rax, %rdi
	movq	%rbx, %rsi
	movq	%r14, %rdx
	callq	_ZNSt7__cxx1112basic_stringIcSt11char_traitsIcESaIcEE13_S_copy_charsEPcPKcS7_
.Ltmp74:
	.loc	60 232 16 is_stmt 1     # /usr/lib/gcc/x86_64-linux-gnu/9/../../../../include/c++/9/bits/basic_string.tcc:232:16
	movq	8(%rsp), %rsi
.Ltmp75:
	#DEBUG_VALUE: _M_construct<const char *>:__dnew <- %rsi
	.loc	60 232 2 is_stmt 0      # /usr/lib/gcc/x86_64-linux-gnu/9/../../../../include/c++/9/bits/basic_string.tcc:232:2
	movq	%r15, %rdi
	callq	_ZNSt7__cxx1112basic_stringIcSt11char_traitsIcESaIcEE13_M_set_lengthEm
.Ltmp76:
	.loc	60 233 7 is_stmt 1      # /usr/lib/gcc/x86_64-linux-gnu/9/../../../../include/c++/9/bits/basic_string.tcc:233:7
	addq	$16, %rsp
	popq	%rbx
.Ltmp77:
	popq	%r14
.Ltmp78:
	popq	%r15
.Ltmp79:
	retq
.LBB14_5:
.Ltmp80:
	#DEBUG_VALUE: _M_construct<const char *>:this <- %r15
	#DEBUG_VALUE: _M_construct<const char *>:__beg <- %rbx
	#DEBUG_VALUE: _M_construct<const char *>:__end <- %r14
	.loc	60 212 4                # /usr/lib/gcc/x86_64-linux-gnu/9/../../../../include/c++/9/bits/basic_string.tcc:212:4
	movl	$.L.str.4, %edi
	callq	_ZSt19__throw_logic_errorPKc
.Ltmp81:
.Lfunc_end14:
	.size	_ZNSt7__cxx1112basic_stringIcSt11char_traitsIcESaIcEE12_M_constructIPKcEEvT_S8_St20forward_iterator_tag, .Lfunc_end14-_ZNSt7__cxx1112basic_stringIcSt11char_traitsIcESaIcEE12_M_constructIPKcEEvT_S8_St20forward_iterator_tag
	.cfi_endproc
                                        # -- End function
	.section	.text._ZN9__gnu_cxx17__is_null_pointerIKcEEbPT_,"axG",@progbits,_ZN9__gnu_cxx17__is_null_pointerIKcEEbPT_,comdat
	.weak	_ZN9__gnu_cxx17__is_null_pointerIKcEEbPT_ # -- Begin function _ZN9__gnu_cxx17__is_null_pointerIKcEEbPT_
	.p2align	4, 0x90
	.type	_ZN9__gnu_cxx17__is_null_pointerIKcEEbPT_,@function
_ZN9__gnu_cxx17__is_null_pointerIKcEEbPT_: # @_ZN9__gnu_cxx17__is_null_pointerIKcEEbPT_
.Lfunc_begin15:
	.file	61 "/usr/lib/gcc/x86_64-linux-gnu/9/../../../../include/c++/9/ext/type_traits.h"
	.loc	61 153 0                # /usr/lib/gcc/x86_64-linux-gnu/9/../../../../include/c++/9/ext/type_traits.h:153:0
	.cfi_startproc
# %bb.0:
	#DEBUG_VALUE: __is_null_pointer<const char>:__ptr <- %rdi
	#DEBUG_VALUE: __is_null_pointer<const char>:__ptr <- %rdi
	.loc	61 153 20 prologue_end  # /usr/lib/gcc/x86_64-linux-gnu/9/../../../../include/c++/9/ext/type_traits.h:153:20
	testq	%rdi, %rdi
	sete	%al
	.loc	61 153 7 is_stmt 0      # /usr/lib/gcc/x86_64-linux-gnu/9/../../../../include/c++/9/ext/type_traits.h:153:7
	retq
.Ltmp82:
.Lfunc_end15:
	.size	_ZN9__gnu_cxx17__is_null_pointerIKcEEbPT_, .Lfunc_end15-_ZN9__gnu_cxx17__is_null_pointerIKcEEbPT_
	.cfi_endproc
                                        # -- End function
	.section	.text._ZSt8distanceIPKcENSt15iterator_traitsIT_E15difference_typeES3_S3_,"axG",@progbits,_ZSt8distanceIPKcENSt15iterator_traitsIT_E15difference_typeES3_S3_,comdat
	.weak	_ZSt8distanceIPKcENSt15iterator_traitsIT_E15difference_typeES3_S3_ # -- Begin function _ZSt8distanceIPKcENSt15iterator_traitsIT_E15difference_typeES3_S3_
	.p2align	4, 0x90
	.type	_ZSt8distanceIPKcENSt15iterator_traitsIT_E15difference_typeES3_S3_,@function
_ZSt8distanceIPKcENSt15iterator_traitsIT_E15difference_typeES3_S3_: # @_ZSt8distanceIPKcENSt15iterator_traitsIT_E15difference_typeES3_S3_
.Lfunc_begin16:
	.file	62 "/usr/lib/gcc/x86_64-linux-gnu/9/../../../../include/c++/9/bits/stl_iterator_base_funcs.h"
	.loc	62 139 0 is_stmt 1      # /usr/lib/gcc/x86_64-linux-gnu/9/../../../../include/c++/9/bits/stl_iterator_base_funcs.h:139:0
	.cfi_startproc
# %bb.0:
	pushq	%r14
	.cfi_def_cfa_offset 16
	pushq	%rbx
	.cfi_def_cfa_offset 24
	pushq	%rax
	.cfi_def_cfa_offset 32
	.cfi_offset %rbx, -24
	.cfi_offset %r14, -16
	#DEBUG_VALUE: distance<const char *>:__first <- %rdi
	#DEBUG_VALUE: distance<const char *>:__last <- %rsi
	movq	%rsi, %r14
	movq	%rdi, %rbx
	movq	%rbx, (%rsp)
.Ltmp83:
	#DEBUG_VALUE: distance<const char *>:__last <- %r14
	#DEBUG_VALUE: distance<const char *>:__first <- %rbx
	movq	%rsp, %rdi
.Ltmp84:
	#DEBUG_VALUE: distance<const char *>:__first <- [%rsp+0]
	.loc	62 142 9 prologue_end   # /usr/lib/gcc/x86_64-linux-gnu/9/../../../../include/c++/9/bits/stl_iterator_base_funcs.h:142:9
	callq	_ZSt19__iterator_categoryIPKcENSt15iterator_traitsIT_E17iterator_categoryERKS3_
	.loc	62 141 14               # /usr/lib/gcc/x86_64-linux-gnu/9/../../../../include/c++/9/bits/stl_iterator_base_funcs.h:141:14
	movq	%rbx, %rdi
	movq	%r14, %rsi
.Ltmp85:
	#DEBUG_VALUE: distance<const char *>:__last <- %rsi
	callq	_ZSt10__distanceIPKcENSt15iterator_traitsIT_E15difference_typeES3_S3_St26random_access_iterator_tag
.Ltmp86:
	.loc	62 141 7 is_stmt 0      # /usr/lib/gcc/x86_64-linux-gnu/9/../../../../include/c++/9/bits/stl_iterator_base_funcs.h:141:7
	addq	$8, %rsp
.Ltmp87:
	popq	%rbx
	popq	%r14
	retq
.Ltmp88:
.Lfunc_end16:
	.size	_ZSt8distanceIPKcENSt15iterator_traitsIT_E15difference_typeES3_S3_, .Lfunc_end16-_ZSt8distanceIPKcENSt15iterator_traitsIT_E15difference_typeES3_S3_
	.cfi_endproc
                                        # -- End function
	.section	.text._ZNSt11char_traitsIcE6assignERcRKc,"axG",@progbits,_ZNSt11char_traitsIcE6assignERcRKc,comdat
	.weak	_ZNSt11char_traitsIcE6assignERcRKc # -- Begin function _ZNSt11char_traitsIcE6assignERcRKc
	.p2align	4, 0x90
	.type	_ZNSt11char_traitsIcE6assignERcRKc,@function
_ZNSt11char_traitsIcE6assignERcRKc:     # @_ZNSt11char_traitsIcE6assignERcRKc
.Lfunc_begin17:
	.loc	22 300 0 is_stmt 1      # /usr/lib/gcc/x86_64-linux-gnu/9/../../../../include/c++/9/bits/char_traits.h:300:0
	.cfi_startproc
# %bb.0:
	#DEBUG_VALUE: assign:__c1 <- %rdi
	#DEBUG_VALUE: assign:__c1 <- %rdi
	#DEBUG_VALUE: assign:__c2 <- %rsi
	#DEBUG_VALUE: assign:__c2 <- %rsi
	.loc	22 300 16 prologue_end  # /usr/lib/gcc/x86_64-linux-gnu/9/../../../../include/c++/9/bits/char_traits.h:300:16
	movb	(%rsi), %al
	.loc	22 300 14 is_stmt 0     # /usr/lib/gcc/x86_64-linux-gnu/9/../../../../include/c++/9/bits/char_traits.h:300:14
	movb	%al, (%rdi)
	.loc	22 300 22               # /usr/lib/gcc/x86_64-linux-gnu/9/../../../../include/c++/9/bits/char_traits.h:300:22
	retq
.Ltmp89:
.Lfunc_end17:
	.size	_ZNSt11char_traitsIcE6assignERcRKc, .Lfunc_end17-_ZNSt11char_traitsIcE6assignERcRKc
	.cfi_endproc
                                        # -- End function
	.section	.text._ZNSt11char_traitsIcE4copyEPcPKcm,"axG",@progbits,_ZNSt11char_traitsIcE4copyEPcPKcm,comdat
	.weak	_ZNSt11char_traitsIcE4copyEPcPKcm # -- Begin function _ZNSt11char_traitsIcE4copyEPcPKcm
	.p2align	4, 0x90
	.type	_ZNSt11char_traitsIcE4copyEPcPKcm,@function
_ZNSt11char_traitsIcE4copyEPcPKcm:      # @_ZNSt11char_traitsIcE4copyEPcPKcm
.Lfunc_begin18:
	.loc	22 362 0 is_stmt 1      # /usr/lib/gcc/x86_64-linux-gnu/9/../../../../include/c++/9/bits/char_traits.h:362:0
	.cfi_startproc
# %bb.0:
	pushq	%rbx
	.cfi_def_cfa_offset 16
	.cfi_offset %rbx, -16
	#DEBUG_VALUE: copy:__s1 <- %rdi
	#DEBUG_VALUE: copy:__s2 <- %rsi
	#DEBUG_VALUE: copy:__n <- %rdx
	movq	%rdi, %rbx
	#DEBUG_VALUE: copy:__n <- %rdx
	#DEBUG_VALUE: copy:__s2 <- %rsi
.Ltmp90:
	#DEBUG_VALUE: copy:__s1 <- %rbx
	.loc	22 363 10 prologue_end  # /usr/lib/gcc/x86_64-linux-gnu/9/../../../../include/c++/9/bits/char_traits.h:363:10
	testq	%rdx, %rdx
.Ltmp91:
	.loc	22 363 6 is_stmt 0      # /usr/lib/gcc/x86_64-linux-gnu/9/../../../../include/c++/9/bits/char_traits.h:363:6
	je	.LBB18_2
.Ltmp92:
# %bb.1:
	#DEBUG_VALUE: copy:__s1 <- %rbx
	#DEBUG_VALUE: copy:__n <- %rdx
	#DEBUG_VALUE: copy:__s2 <- %rsi
	.loc	22 365 33 is_stmt 1     # /usr/lib/gcc/x86_64-linux-gnu/9/../../../../include/c++/9/bits/char_traits.h:365:33
	movq	%rbx, %rdi
	callq	memcpy
.Ltmp93:
.LBB18_2:
	#DEBUG_VALUE: copy:__s1 <- %rbx
	.loc	22 366 7                # /usr/lib/gcc/x86_64-linux-gnu/9/../../../../include/c++/9/bits/char_traits.h:366:7
	movq	%rbx, %rax
	popq	%rbx
.Ltmp94:
	retq
.Ltmp95:
.Lfunc_end18:
	.size	_ZNSt11char_traitsIcE4copyEPcPKcm, .Lfunc_end18-_ZNSt11char_traitsIcE4copyEPcPKcm
	.cfi_endproc
                                        # -- End function
	.section	.text._ZSt19__iterator_categoryIPKcENSt15iterator_traitsIT_E17iterator_categoryERKS3_,"axG",@progbits,_ZSt19__iterator_categoryIPKcENSt15iterator_traitsIT_E17iterator_categoryERKS3_,comdat
	.weak	_ZSt19__iterator_categoryIPKcENSt15iterator_traitsIT_E17iterator_categoryERKS3_ # -- Begin function _ZSt19__iterator_categoryIPKcENSt15iterator_traitsIT_E17iterator_categoryERKS3_
	.p2align	4, 0x90
	.type	_ZSt19__iterator_categoryIPKcENSt15iterator_traitsIT_E17iterator_categoryERKS3_,@function
_ZSt19__iterator_categoryIPKcENSt15iterator_traitsIT_E17iterator_categoryERKS3_: # @_ZSt19__iterator_categoryIPKcENSt15iterator_traitsIT_E17iterator_categoryERKS3_
.Lfunc_begin19:
	.loc	15 206 0                # /usr/lib/gcc/x86_64-linux-gnu/9/../../../../include/c++/9/bits/stl_iterator_base_types.h:206:0
	.cfi_startproc
# %bb.0:
	#DEBUG_VALUE: __iterator_category<const char *>: <- %rdi
	.loc	15 206 7 prologue_end   # /usr/lib/gcc/x86_64-linux-gnu/9/../../../../include/c++/9/bits/stl_iterator_base_types.h:206:7
	retq
.Ltmp96:
.Lfunc_end19:
	.size	_ZSt19__iterator_categoryIPKcENSt15iterator_traitsIT_E17iterator_categoryERKS3_, .Lfunc_end19-_ZSt19__iterator_categoryIPKcENSt15iterator_traitsIT_E17iterator_categoryERKS3_
	.cfi_endproc
                                        # -- End function
	.section	.text._ZSt10__distanceIPKcENSt15iterator_traitsIT_E15difference_typeES3_S3_St26random_access_iterator_tag,"axG",@progbits,_ZSt10__distanceIPKcENSt15iterator_traitsIT_E15difference_typeES3_S3_St26random_access_iterator_tag,comdat
	.weak	_ZSt10__distanceIPKcENSt15iterator_traitsIT_E15difference_typeES3_S3_St26random_access_iterator_tag # -- Begin function _ZSt10__distanceIPKcENSt15iterator_traitsIT_E15difference_typeES3_S3_St26random_access_iterator_tag
	.p2align	4, 0x90
	.type	_ZSt10__distanceIPKcENSt15iterator_traitsIT_E15difference_typeES3_S3_St26random_access_iterator_tag,@function
_ZSt10__distanceIPKcENSt15iterator_traitsIT_E15difference_typeES3_S3_St26random_access_iterator_tag: # @_ZSt10__distanceIPKcENSt15iterator_traitsIT_E15difference_typeES3_S3_St26random_access_iterator_tag
.Lfunc_begin20:
	.loc	62 100 0                # /usr/lib/gcc/x86_64-linux-gnu/9/../../../../include/c++/9/bits/stl_iterator_base_funcs.h:100:0
	.cfi_startproc
# %bb.0:
	#DEBUG_VALUE: __distance<const char *>:__first <- %rdi
	#DEBUG_VALUE: __distance<const char *>:__first <- %rdi
	#DEBUG_VALUE: __distance<const char *>:__last <- %rsi
	#DEBUG_VALUE: __distance<const char *>:__last <- %rsi
	.loc	62 104 21 prologue_end  # /usr/lib/gcc/x86_64-linux-gnu/9/../../../../include/c++/9/bits/stl_iterator_base_funcs.h:104:21
	subq	%rdi, %rsi
.Ltmp97:
	.loc	62 104 7 is_stmt 0      # /usr/lib/gcc/x86_64-linux-gnu/9/../../../../include/c++/9/bits/stl_iterator_base_funcs.h:104:7
	movq	%rsi, %rax
	retq
.Ltmp98:
.Lfunc_end20:
	.size	_ZSt10__distanceIPKcENSt15iterator_traitsIT_E15difference_typeES3_S3_St26random_access_iterator_tag, .Lfunc_end20-_ZSt10__distanceIPKcENSt15iterator_traitsIT_E15difference_typeES3_S3_St26random_access_iterator_tag
	.cfi_endproc
                                        # -- End function
	.section	.text._ZN9__gnu_cxx13new_allocatorIcEC2ERKS1_,"axG",@progbits,_ZN9__gnu_cxx13new_allocatorIcEC2ERKS1_,comdat
	.weak	_ZN9__gnu_cxx13new_allocatorIcEC2ERKS1_ # -- Begin function _ZN9__gnu_cxx13new_allocatorIcEC2ERKS1_
	.p2align	4, 0x90
	.type	_ZN9__gnu_cxx13new_allocatorIcEC2ERKS1_,@function
_ZN9__gnu_cxx13new_allocatorIcEC2ERKS1_: # @_ZN9__gnu_cxx13new_allocatorIcEC2ERKS1_
.Lfunc_begin21:
	.loc	7 83 0 is_stmt 1        # /usr/lib/gcc/x86_64-linux-gnu/9/../../../../include/c++/9/ext/new_allocator.h:83:0
	.cfi_startproc
# %bb.0:
	#DEBUG_VALUE: new_allocator:this <- %rdi
	#DEBUG_VALUE: new_allocator: <- %rsi
	.loc	7 83 67 prologue_end    # /usr/lib/gcc/x86_64-linux-gnu/9/../../../../include/c++/9/ext/new_allocator.h:83:67
	retq
.Ltmp99:
.Lfunc_end21:
	.size	_ZN9__gnu_cxx13new_allocatorIcEC2ERKS1_, .Lfunc_end21-_ZN9__gnu_cxx13new_allocatorIcEC2ERKS1_
	.cfi_endproc
                                        # -- End function
	.section	.text._ZNSt14pointer_traitsIPcE10pointer_toERc,"axG",@progbits,_ZNSt14pointer_traitsIPcE10pointer_toERc,comdat
	.weak	_ZNSt14pointer_traitsIPcE10pointer_toERc # -- Begin function _ZNSt14pointer_traitsIPcE10pointer_toERc
	.p2align	4, 0x90
	.type	_ZNSt14pointer_traitsIPcE10pointer_toERc,@function
_ZNSt14pointer_traitsIPcE10pointer_toERc: # @_ZNSt14pointer_traitsIPcE10pointer_toERc
.Lfunc_begin22:
	.loc	57 147 0                # /usr/lib/gcc/x86_64-linux-gnu/9/../../../../include/c++/9/bits/ptr_traits.h:147:0
	.cfi_startproc
# %bb.0:
	#DEBUG_VALUE: pointer_to:__r <- %rdi
	#DEBUG_VALUE: pointer_to:__r <- %rdi
	#DEBUG_VALUE: pointer_to:__r <- %rdi
	.loc	57 147 16 prologue_end  # /usr/lib/gcc/x86_64-linux-gnu/9/../../../../include/c++/9/bits/ptr_traits.h:147:16
	jmp	_ZSt9addressofIcEPT_RS0_ # TAILCALL
.Ltmp100:
.Lfunc_end22:
	.size	_ZNSt14pointer_traitsIPcE10pointer_toERc, .Lfunc_end22-_ZNSt14pointer_traitsIPcE10pointer_toERc
	.cfi_endproc
                                        # -- End function
	.section	.text._ZSt9addressofIcEPT_RS0_,"axG",@progbits,_ZSt9addressofIcEPT_RS0_,comdat
	.weak	_ZSt9addressofIcEPT_RS0_ # -- Begin function _ZSt9addressofIcEPT_RS0_
	.p2align	4, 0x90
	.type	_ZSt9addressofIcEPT_RS0_,@function
_ZSt9addressofIcEPT_RS0_:               # @_ZSt9addressofIcEPT_RS0_
.Lfunc_begin23:
	.loc	58 139 0                # /usr/lib/gcc/x86_64-linux-gnu/9/../../../../include/c++/9/bits/move.h:139:0
	.cfi_startproc
# %bb.0:
	#DEBUG_VALUE: addressof<char>:__r <- %rdi
	#DEBUG_VALUE: addressof<char>:__r <- %rdi
	#DEBUG_VALUE: addressof<char>:__r <- %rdi
	.loc	58 139 14 prologue_end  # /usr/lib/gcc/x86_64-linux-gnu/9/../../../../include/c++/9/bits/move.h:139:14
	jmp	_ZSt11__addressofIcEPT_RS0_ # TAILCALL
.Ltmp101:
.Lfunc_end23:
	.size	_ZSt9addressofIcEPT_RS0_, .Lfunc_end23-_ZSt9addressofIcEPT_RS0_
	.cfi_endproc
                                        # -- End function
	.section	.text._ZSt11__addressofIcEPT_RS0_,"axG",@progbits,_ZSt11__addressofIcEPT_RS0_,comdat
	.weak	_ZSt11__addressofIcEPT_RS0_ # -- Begin function _ZSt11__addressofIcEPT_RS0_
	.p2align	4, 0x90
	.type	_ZSt11__addressofIcEPT_RS0_,@function
_ZSt11__addressofIcEPT_RS0_:            # @_ZSt11__addressofIcEPT_RS0_
.Lfunc_begin24:
	.loc	58 48 0                 # /usr/lib/gcc/x86_64-linux-gnu/9/../../../../include/c++/9/bits/move.h:48:0
	.cfi_startproc
# %bb.0:
	#DEBUG_VALUE: __addressof<char>:__r <- %rdi
	#DEBUG_VALUE: __addressof<char>:__r <- %rdi
	.loc	58 48 7 prologue_end    # /usr/lib/gcc/x86_64-linux-gnu/9/../../../../include/c++/9/bits/move.h:48:7
	movq	%rdi, %rax
.Ltmp102:
	#DEBUG_VALUE: __addressof<char>:__r <- %rax
	retq
.Ltmp103:
.Lfunc_end24:
	.size	_ZSt11__addressofIcEPT_RS0_, .Lfunc_end24-_ZSt11__addressofIcEPT_RS0_
	.cfi_endproc
                                        # -- End function
	.section	.text._ZN9__gnu_cxx13new_allocatorIcEC2Ev,"axG",@progbits,_ZN9__gnu_cxx13new_allocatorIcEC2Ev,comdat
	.weak	_ZN9__gnu_cxx13new_allocatorIcEC2Ev # -- Begin function _ZN9__gnu_cxx13new_allocatorIcEC2Ev
	.p2align	4, 0x90
	.type	_ZN9__gnu_cxx13new_allocatorIcEC2Ev,@function
_ZN9__gnu_cxx13new_allocatorIcEC2Ev:    # @_ZN9__gnu_cxx13new_allocatorIcEC2Ev
.Lfunc_begin25:
	.loc	7 80 0                  # /usr/lib/gcc/x86_64-linux-gnu/9/../../../../include/c++/9/ext/new_allocator.h:80:0
	.cfi_startproc
# %bb.0:
	#DEBUG_VALUE: new_allocator:this <- %rdi
	.loc	7 80 47 prologue_end    # /usr/lib/gcc/x86_64-linux-gnu/9/../../../../include/c++/9/ext/new_allocator.h:80:47
	retq
.Ltmp104:
.Lfunc_end25:
	.size	_ZN9__gnu_cxx13new_allocatorIcEC2Ev, .Lfunc_end25-_ZN9__gnu_cxx13new_allocatorIcEC2Ev
	.cfi_endproc
                                        # -- End function
	.section	.text._ZNSt12_Vector_baseIPN12ILLIXR_AUDIO5SoundESaIS2_EEC2Ev,"axG",@progbits,_ZNSt12_Vector_baseIPN12ILLIXR_AUDIO5SoundESaIS2_EEC2Ev,comdat
	.weak	_ZNSt12_Vector_baseIPN12ILLIXR_AUDIO5SoundESaIS2_EEC2Ev # -- Begin function _ZNSt12_Vector_baseIPN12ILLIXR_AUDIO5SoundESaIS2_EEC2Ev
	.p2align	4, 0x90
	.type	_ZNSt12_Vector_baseIPN12ILLIXR_AUDIO5SoundESaIS2_EEC2Ev,@function
_ZNSt12_Vector_baseIPN12ILLIXR_AUDIO5SoundESaIS2_EEC2Ev: # @_ZNSt12_Vector_baseIPN12ILLIXR_AUDIO5SoundESaIS2_EEC2Ev
.Lfunc_begin26:
	.loc	12 285 0                # /usr/lib/gcc/x86_64-linux-gnu/9/../../../../include/c++/9/bits/stl_vector.h:285:0
	.cfi_startproc
# %bb.0:
	#DEBUG_VALUE: _Vector_base:this <- %rdi
	#DEBUG_VALUE: _Vector_base:this <- %rdi
	#DEBUG_VALUE: _Vector_base:this <- %rdi
	.loc	12 285 7 prologue_end   # /usr/lib/gcc/x86_64-linux-gnu/9/../../../../include/c++/9/bits/stl_vector.h:285:7
	jmp	_ZNSt12_Vector_baseIPN12ILLIXR_AUDIO5SoundESaIS2_EE12_Vector_implC2Ev # TAILCALL
.Ltmp105:
.Lfunc_end26:
	.size	_ZNSt12_Vector_baseIPN12ILLIXR_AUDIO5SoundESaIS2_EEC2Ev, .Lfunc_end26-_ZNSt12_Vector_baseIPN12ILLIXR_AUDIO5SoundESaIS2_EEC2Ev
	.cfi_endproc
                                        # -- End function
	.section	.text._ZNSt12_Vector_baseIPN12ILLIXR_AUDIO5SoundESaIS2_EE12_Vector_implC2Ev,"axG",@progbits,_ZNSt12_Vector_baseIPN12ILLIXR_AUDIO5SoundESaIS2_EE12_Vector_implC2Ev,comdat
	.weak	_ZNSt12_Vector_baseIPN12ILLIXR_AUDIO5SoundESaIS2_EE12_Vector_implC2Ev # -- Begin function _ZNSt12_Vector_baseIPN12ILLIXR_AUDIO5SoundESaIS2_EE12_Vector_implC2Ev
	.p2align	4, 0x90
	.type	_ZNSt12_Vector_baseIPN12ILLIXR_AUDIO5SoundESaIS2_EE12_Vector_implC2Ev,@function
_ZNSt12_Vector_baseIPN12ILLIXR_AUDIO5SoundESaIS2_EE12_Vector_implC2Ev: # @_ZNSt12_Vector_baseIPN12ILLIXR_AUDIO5SoundESaIS2_EE12_Vector_implC2Ev
.Lfunc_begin27:
	.loc	12 131 0                # /usr/lib/gcc/x86_64-linux-gnu/9/../../../../include/c++/9/bits/stl_vector.h:131:0
	.cfi_startproc
# %bb.0:
	pushq	%rbx
	.cfi_def_cfa_offset 16
	.cfi_offset %rbx, -16
	#DEBUG_VALUE: _Vector_impl:this <- %rdi
	movq	%rdi, %rbx
.Ltmp106:
	#DEBUG_VALUE: _Vector_impl:this <- %rbx
	.loc	12 130 4 prologue_end   # /usr/lib/gcc/x86_64-linux-gnu/9/../../../../include/c++/9/bits/stl_vector.h:130:4
	callq	_ZNSaIPN12ILLIXR_AUDIO5SoundEEC2Ev
	.loc	12 128 2                # /usr/lib/gcc/x86_64-linux-gnu/9/../../../../include/c++/9/bits/stl_vector.h:128:2
	movq	%rbx, %rdi
	popq	%rbx
.Ltmp107:
	jmp	_ZNSt12_Vector_baseIPN12ILLIXR_AUDIO5SoundESaIS2_EE17_Vector_impl_dataC2Ev # TAILCALL
.Ltmp108:
.Lfunc_end27:
	.size	_ZNSt12_Vector_baseIPN12ILLIXR_AUDIO5SoundESaIS2_EE12_Vector_implC2Ev, .Lfunc_end27-_ZNSt12_Vector_baseIPN12ILLIXR_AUDIO5SoundESaIS2_EE12_Vector_implC2Ev
	.cfi_endproc
                                        # -- End function
	.section	.text._ZNSaIPN12ILLIXR_AUDIO5SoundEEC2Ev,"axG",@progbits,_ZNSaIPN12ILLIXR_AUDIO5SoundEEC2Ev,comdat
	.weak	_ZNSaIPN12ILLIXR_AUDIO5SoundEEC2Ev # -- Begin function _ZNSaIPN12ILLIXR_AUDIO5SoundEEC2Ev
	.p2align	4, 0x90
	.type	_ZNSaIPN12ILLIXR_AUDIO5SoundEEC2Ev,@function
_ZNSaIPN12ILLIXR_AUDIO5SoundEEC2Ev:     # @_ZNSaIPN12ILLIXR_AUDIO5SoundEEC2Ev
.Lfunc_begin28:
	.loc	10 138 0                # /usr/lib/gcc/x86_64-linux-gnu/9/../../../../include/c++/9/bits/allocator.h:138:0
	.cfi_startproc
# %bb.0:
	#DEBUG_VALUE: allocator:this <- %rdi
	#DEBUG_VALUE: allocator:this <- %rdi
	#DEBUG_VALUE: allocator:this <- %rdi
	.loc	10 138 7 prologue_end   # /usr/lib/gcc/x86_64-linux-gnu/9/../../../../include/c++/9/bits/allocator.h:138:7
	jmp	_ZN9__gnu_cxx13new_allocatorIPN12ILLIXR_AUDIO5SoundEEC2Ev # TAILCALL
.Ltmp109:
.Lfunc_end28:
	.size	_ZNSaIPN12ILLIXR_AUDIO5SoundEEC2Ev, .Lfunc_end28-_ZNSaIPN12ILLIXR_AUDIO5SoundEEC2Ev
	.cfi_endproc
                                        # -- End function
	.section	.text._ZNSt12_Vector_baseIPN12ILLIXR_AUDIO5SoundESaIS2_EE17_Vector_impl_dataC2Ev,"axG",@progbits,_ZNSt12_Vector_baseIPN12ILLIXR_AUDIO5SoundESaIS2_EE17_Vector_impl_dataC2Ev,comdat
	.weak	_ZNSt12_Vector_baseIPN12ILLIXR_AUDIO5SoundESaIS2_EE17_Vector_impl_dataC2Ev # -- Begin function _ZNSt12_Vector_baseIPN12ILLIXR_AUDIO5SoundESaIS2_EE17_Vector_impl_dataC2Ev
	.p2align	4, 0x90
	.type	_ZNSt12_Vector_baseIPN12ILLIXR_AUDIO5SoundESaIS2_EE17_Vector_impl_dataC2Ev,@function
_ZNSt12_Vector_baseIPN12ILLIXR_AUDIO5SoundESaIS2_EE17_Vector_impl_dataC2Ev: # @_ZNSt12_Vector_baseIPN12ILLIXR_AUDIO5SoundESaIS2_EE17_Vector_impl_dataC2Ev
.Lfunc_begin29:
	.loc	12 96 0                 # /usr/lib/gcc/x86_64-linux-gnu/9/../../../../include/c++/9/bits/stl_vector.h:96:0
	.cfi_startproc
# %bb.0:
	#DEBUG_VALUE: _Vector_impl_data:this <- %rdi
	#DEBUG_VALUE: _Vector_impl_data:this <- %rdi
	.loc	12 95 16 prologue_end   # /usr/lib/gcc/x86_64-linux-gnu/9/../../../../include/c++/9/bits/stl_vector.h:95:16
	xorps	%xmm0, %xmm0
	movups	%xmm0, (%rdi)
	movq	$0, 16(%rdi)
	.loc	12 96 4                 # /usr/lib/gcc/x86_64-linux-gnu/9/../../../../include/c++/9/bits/stl_vector.h:96:4
	retq
.Ltmp110:
.Lfunc_end29:
	.size	_ZNSt12_Vector_baseIPN12ILLIXR_AUDIO5SoundESaIS2_EE17_Vector_impl_dataC2Ev, .Lfunc_end29-_ZNSt12_Vector_baseIPN12ILLIXR_AUDIO5SoundESaIS2_EE17_Vector_impl_dataC2Ev
	.cfi_endproc
                                        # -- End function
	.section	.text._ZN9__gnu_cxx13new_allocatorIPN12ILLIXR_AUDIO5SoundEEC2Ev,"axG",@progbits,_ZN9__gnu_cxx13new_allocatorIPN12ILLIXR_AUDIO5SoundEEC2Ev,comdat
	.weak	_ZN9__gnu_cxx13new_allocatorIPN12ILLIXR_AUDIO5SoundEEC2Ev # -- Begin function _ZN9__gnu_cxx13new_allocatorIPN12ILLIXR_AUDIO5SoundEEC2Ev
	.p2align	4, 0x90
	.type	_ZN9__gnu_cxx13new_allocatorIPN12ILLIXR_AUDIO5SoundEEC2Ev,@function
_ZN9__gnu_cxx13new_allocatorIPN12ILLIXR_AUDIO5SoundEEC2Ev: # @_ZN9__gnu_cxx13new_allocatorIPN12ILLIXR_AUDIO5SoundEEC2Ev
.Lfunc_begin30:
	.loc	7 80 0                  # /usr/lib/gcc/x86_64-linux-gnu/9/../../../../include/c++/9/ext/new_allocator.h:80:0
	.cfi_startproc
# %bb.0:
	#DEBUG_VALUE: new_allocator:this <- %rdi
	.loc	7 80 47 prologue_end    # /usr/lib/gcc/x86_64-linux-gnu/9/../../../../include/c++/9/ext/new_allocator.h:80:47
	retq
.Ltmp111:
.Lfunc_end30:
	.size	_ZN9__gnu_cxx13new_allocatorIPN12ILLIXR_AUDIO5SoundEEC2Ev, .Lfunc_end30-_ZN9__gnu_cxx13new_allocatorIPN12ILLIXR_AUDIO5SoundEEC2Ev
	.cfi_endproc
                                        # -- End function
	.section	.rodata.cst16,"aM",@progbits,16
	.p2align	4               # -- Begin function _ZN12ILLIXR_AUDIO11WAVHeader_tC2Ev
.LCPI31_0:
	.long	1179011410              # 0x46464952
	.long	48000000                # 0x2dc6c00
	.long	1163280727              # 0x45564157
	.long	544501094               # 0x20746d66
	.section	.text._ZN12ILLIXR_AUDIO11WAVHeader_tC2Ev,"axG",@progbits,_ZN12ILLIXR_AUDIO11WAVHeader_tC2Ev,comdat
	.weak	_ZN12ILLIXR_AUDIO11WAVHeader_tC2Ev
	.p2align	4, 0x90
	.type	_ZN12ILLIXR_AUDIO11WAVHeader_tC2Ev,@function
_ZN12ILLIXR_AUDIO11WAVHeader_tC2Ev:     # @_ZN12ILLIXR_AUDIO11WAVHeader_tC2Ev
.Lfunc_begin31:
	.loc	16 145 0                # src/audio.cpp:145:0
	.cfi_startproc
# %bb.0:
	#DEBUG_VALUE: WAVHeader_t:this <- %rdi
	#DEBUG_VALUE: WAVHeader_t:this <- %rdi
	.loc	16 147 19 prologue_end  # src/audio.cpp:147:19
	movaps	.LCPI31_0(%rip), %xmm0  # xmm0 = [1179011410,48000000,1163280727,544501094]
	movups	%xmm0, (%rdi)
	.loc	16 151 19               # src/audio.cpp:151:19
	movabsq	$562954248388624, %rax  # imm = 0x2000100000010
	movq	%rax, 16(%rdi)
	.loc	16 154 19               # src/audio.cpp:154:19
	movabsq	$824633720880000, %rax  # imm = 0x2EE000000BB80
	movq	%rax, 24(%rdi)
	.loc	16 156 21               # src/audio.cpp:156:21
	movl	$1048580, 32(%rdi)      # imm = 0x100004
	.loc	16 158 19               # src/audio.cpp:158:19
	movabsq	$206158431843017060, %rax # imm = 0x2DC6C0061746164
	movq	%rax, 36(%rdi)
	.loc	16 145 45               # src/audio.cpp:145:45
	retq
.Ltmp112:
.Lfunc_end31:
	.size	_ZN12ILLIXR_AUDIO11WAVHeader_tC2Ev, .Lfunc_end31-_ZN12ILLIXR_AUDIO11WAVHeader_tC2Ev
	.cfi_endproc
                                        # -- End function
	.section	.text._ZStorSt12_Ios_IostateS_,"axG",@progbits,_ZStorSt12_Ios_IostateS_,comdat
	.weak	_ZStorSt12_Ios_IostateS_ # -- Begin function _ZStorSt12_Ios_IostateS_
	.p2align	4, 0x90
	.type	_ZStorSt12_Ios_IostateS_,@function
_ZStorSt12_Ios_IostateS_:               # @_ZStorSt12_Ios_IostateS_
.Lfunc_begin32:
	.loc	18 170 0                # /usr/lib/gcc/x86_64-linux-gnu/9/../../../../include/c++/9/bits/ios_base.h:170:0
	.cfi_startproc
# %bb.0:
	#DEBUG_VALUE: operator|:__a <- %edi
	#DEBUG_VALUE: operator|:__a <- %edi
	#DEBUG_VALUE: operator|:__b <- %esi
	#DEBUG_VALUE: operator|:__b <- %esi
	.loc	18 170 47 prologue_end  # /usr/lib/gcc/x86_64-linux-gnu/9/../../../../include/c++/9/bits/ios_base.h:170:47
	orl	%esi, %edi
.Ltmp113:
	.loc	18 170 5 is_stmt 0      # /usr/lib/gcc/x86_64-linux-gnu/9/../../../../include/c++/9/bits/ios_base.h:170:5
	movl	%edi, %eax
	retq
.Ltmp114:
.Lfunc_end32:
	.size	_ZStorSt12_Ios_IostateS_, .Lfunc_end32-_ZStorSt12_Ios_IostateS_
	.cfi_endproc
                                        # -- End function
	.text
	.globl	_ZN12ILLIXR_AUDIO7ABAudioD2Ev # -- Begin function _ZN12ILLIXR_AUDIO7ABAudioD2Ev
	.p2align	4, 0x90
	.type	_ZN12ILLIXR_AUDIO7ABAudioD2Ev,@function
_ZN12ILLIXR_AUDIO7ABAudioD2Ev:          # @_ZN12ILLIXR_AUDIO7ABAudioD2Ev
.Lfunc_begin33:
	.loc	16 26 0 is_stmt 1       # src/audio.cpp:26:0
	.cfi_startproc
# %bb.0:
	pushq	%rbp
	.cfi_def_cfa_offset 16
	pushq	%r14
	.cfi_def_cfa_offset 24
	pushq	%rbx
	.cfi_def_cfa_offset 32
	.cfi_offset %rbx, -32
	.cfi_offset %r14, -24
	.cfi_offset %rbp, -16
	#DEBUG_VALUE: ~ABAudio:this <- %rdi
	movq	%rdi, %r14
.Ltmp115:
	#DEBUG_VALUE: ~ABAudio:this <- %r14
	.loc	16 27 21 prologue_end   # src/audio.cpp:27:21
	cmpl	$0, (%r14)
.Ltmp116:
	.loc	16 27 9 is_stmt 0       # src/audio.cpp:27:9
	jne	.LBB33_2
.Ltmp117:
# %bb.1:
	#DEBUG_VALUE: ~ABAudio:this <- %r14
	.loc	16 28 14 is_stmt 1      # src/audio.cpp:28:14
	movq	16(%r14), %rdi
	.loc	16 28 9 is_stmt 0       # src/audio.cpp:28:9
	callq	free
.Ltmp118:
.LBB33_2:
	#DEBUG_VALUE: ~ABAudio:this <- %r14
	#DEBUG_VALUE: soundIdx <- 0
	.loc	16 30 48 is_stmt 1      # src/audio.cpp:30:48
	movq	8(%r14), %rdi
	.loc	16 30 59 is_stmt 0      # src/audio.cpp:30:59
	callq	_ZNKSt6vectorIPN12ILLIXR_AUDIO5SoundESaIS2_EE4sizeEv
	.loc	16 30 46                # src/audio.cpp:30:46
	testq	%rax, %rax
.Ltmp119:
	.loc	16 30 5                 # src/audio.cpp:30:5
	je	.LBB33_5
.Ltmp120:
# %bb.3:
	#DEBUG_VALUE: ~ABAudio:this <- %r14
	.loc	16 0 5                  # src/audio.cpp:0:5
	movl	$1, %ebp
	xorl	%ebx, %ebx
.Ltmp121:
	.p2align	4, 0x90
.LBB33_4:                               # =>This Inner Loop Header: Depth=1
	#DEBUG_VALUE: ~ABAudio:this <- %r14
	.loc	16 31 16 is_stmt 1      # src/audio.cpp:31:16
	movq	8(%r14), %rdi
	.loc	16 31 14 is_stmt 0      # src/audio.cpp:31:14
	movq	%rbx, %rsi
	callq	_ZNSt6vectorIPN12ILLIXR_AUDIO5SoundESaIS2_EEixEm
	movq	(%rax), %rdi
	.loc	16 31 9                 # src/audio.cpp:31:9
	callq	free
.Ltmp122:
	.loc	16 30 37 is_stmt 1      # src/audio.cpp:30:37
	movl	%ebp, %ebx
	.loc	16 30 48 is_stmt 0      # src/audio.cpp:30:48
	movq	8(%r14), %rdi
	.loc	16 30 59                # src/audio.cpp:30:59
	callq	_ZNKSt6vectorIPN12ILLIXR_AUDIO5SoundESaIS2_EE4sizeEv
.Ltmp123:
	.loc	16 30 5                 # src/audio.cpp:30:5
	addl	$1, %ebp
.Ltmp124:
	.loc	16 30 46                # src/audio.cpp:30:46
	cmpq	%rbx, %rax
.Ltmp125:
	.loc	16 30 5                 # src/audio.cpp:30:5
	ja	.LBB33_4
.Ltmp126:
.LBB33_5:
	#DEBUG_VALUE: ~ABAudio:this <- %r14
	.loc	16 33 10 is_stmt 1      # src/audio.cpp:33:10
	movq	8(%r14), %rdi
	.loc	16 33 5 is_stmt 0       # src/audio.cpp:33:5
	callq	free
	.loc	16 34 10 is_stmt 1      # src/audio.cpp:34:10
	movq	24(%r14), %rdi
	.loc	16 34 5 is_stmt 0       # src/audio.cpp:34:5
	callq	free
	.loc	16 35 10 is_stmt 1      # src/audio.cpp:35:10
	movq	32(%r14), %rdi
	.loc	16 35 5 is_stmt 0       # src/audio.cpp:35:5
	callq	free
	.loc	16 36 10 is_stmt 1      # src/audio.cpp:36:10
	movq	40(%r14), %rdi
	.loc	16 36 5 is_stmt 0       # src/audio.cpp:36:5
	popq	%rbx
	popq	%r14
.Ltmp127:
	popq	%rbp
	jmp	free                    # TAILCALL
.Ltmp128:
.Lfunc_end33:
	.size	_ZN12ILLIXR_AUDIO7ABAudioD2Ev, .Lfunc_end33-_ZN12ILLIXR_AUDIO7ABAudioD2Ev
	.cfi_endproc
                                        # -- End function
	.section	.text._ZNKSt6vectorIPN12ILLIXR_AUDIO5SoundESaIS2_EE4sizeEv,"axG",@progbits,_ZNKSt6vectorIPN12ILLIXR_AUDIO5SoundESaIS2_EE4sizeEv,comdat
	.weak	_ZNKSt6vectorIPN12ILLIXR_AUDIO5SoundESaIS2_EE4sizeEv # -- Begin function _ZNKSt6vectorIPN12ILLIXR_AUDIO5SoundESaIS2_EE4sizeEv
	.p2align	4, 0x90
	.type	_ZNKSt6vectorIPN12ILLIXR_AUDIO5SoundESaIS2_EE4sizeEv,@function
_ZNKSt6vectorIPN12ILLIXR_AUDIO5SoundESaIS2_EE4sizeEv: # @_ZNKSt6vectorIPN12ILLIXR_AUDIO5SoundESaIS2_EE4sizeEv
.Lfunc_begin34:
	.loc	12 916 0 is_stmt 1      # /usr/lib/gcc/x86_64-linux-gnu/9/../../../../include/c++/9/bits/stl_vector.h:916:0
	.cfi_startproc
# %bb.0:
	#DEBUG_VALUE: size:this <- %rdi
	#DEBUG_VALUE: size:this <- %rdi
	.loc	12 916 40 prologue_end  # /usr/lib/gcc/x86_64-linux-gnu/9/../../../../include/c++/9/bits/stl_vector.h:916:40
	movq	8(%rdi), %rax
	.loc	12 916 50 is_stmt 0     # /usr/lib/gcc/x86_64-linux-gnu/9/../../../../include/c++/9/bits/stl_vector.h:916:50
	subq	(%rdi), %rax
	sarq	$3, %rax
	.loc	12 916 9                # /usr/lib/gcc/x86_64-linux-gnu/9/../../../../include/c++/9/bits/stl_vector.h:916:9
	retq
.Ltmp129:
.Lfunc_end34:
	.size	_ZNKSt6vectorIPN12ILLIXR_AUDIO5SoundESaIS2_EE4sizeEv, .Lfunc_end34-_ZNKSt6vectorIPN12ILLIXR_AUDIO5SoundESaIS2_EE4sizeEv
	.cfi_endproc
                                        # -- End function
	.section	.text._ZNSt6vectorIPN12ILLIXR_AUDIO5SoundESaIS2_EEixEm,"axG",@progbits,_ZNSt6vectorIPN12ILLIXR_AUDIO5SoundESaIS2_EEixEm,comdat
	.weak	_ZNSt6vectorIPN12ILLIXR_AUDIO5SoundESaIS2_EEixEm # -- Begin function _ZNSt6vectorIPN12ILLIXR_AUDIO5SoundESaIS2_EEixEm
	.p2align	4, 0x90
	.type	_ZNSt6vectorIPN12ILLIXR_AUDIO5SoundESaIS2_EEixEm,@function
_ZNSt6vectorIPN12ILLIXR_AUDIO5SoundESaIS2_EEixEm: # @_ZNSt6vectorIPN12ILLIXR_AUDIO5SoundESaIS2_EEixEm
.Lfunc_begin35:
	.loc	12 1041 0 is_stmt 1     # /usr/lib/gcc/x86_64-linux-gnu/9/../../../../include/c++/9/bits/stl_vector.h:1041:0
	.cfi_startproc
# %bb.0:
	#DEBUG_VALUE: operator[]:this <- %rdi
	#DEBUG_VALUE: operator[]:this <- %rdi
	#DEBUG_VALUE: operator[]:__n <- %rsi
	#DEBUG_VALUE: operator[]:__n <- %rsi
	.loc	12 1043 34 prologue_end # /usr/lib/gcc/x86_64-linux-gnu/9/../../../../include/c++/9/bits/stl_vector.h:1043:34
	leaq	(,%rsi,8), %rax
	addq	(%rdi), %rax
	.loc	12 1043 2 is_stmt 0     # /usr/lib/gcc/x86_64-linux-gnu/9/../../../../include/c++/9/bits/stl_vector.h:1043:2
	retq
.Ltmp130:
.Lfunc_end35:
	.size	_ZNSt6vectorIPN12ILLIXR_AUDIO5SoundESaIS2_EEixEm, .Lfunc_end35-_ZNSt6vectorIPN12ILLIXR_AUDIO5SoundESaIS2_EEixEm
	.cfi_endproc
                                        # -- End function
	.section	.rodata.cst8,"aM",@progbits,8
	.p2align	3               # -- Begin function _ZN12ILLIXR_AUDIO7ABAudio10loadSourceEv
.LCPI36_0:
	.quad	-4631501856787818086    # double -0.10000000000000001
.LCPI36_1:
	.quad	4609749470587618591     # double 1.5700000000000001
	.text
	.globl	_ZN12ILLIXR_AUDIO7ABAudio10loadSourceEv
	.p2align	4, 0x90
	.type	_ZN12ILLIXR_AUDIO7ABAudio10loadSourceEv,@function
_ZN12ILLIXR_AUDIO7ABAudio10loadSourceEv: # @_ZN12ILLIXR_AUDIO7ABAudio10loadSourceEv
.Lfunc_begin36:
	.loc	16 39 0 is_stmt 1       # src/audio.cpp:39:0
	.cfi_startproc
	.cfi_personality 3, __gxx_personality_v0
	.cfi_lsda 3, .Lexception1
# %bb.0:
	pushq	%rbp
	.cfi_def_cfa_offset 16
	pushq	%r15
	.cfi_def_cfa_offset 24
	pushq	%r14
	.cfi_def_cfa_offset 32
	pushq	%r13
	.cfi_def_cfa_offset 40
	pushq	%r12
	.cfi_def_cfa_offset 48
	pushq	%rbx
	.cfi_def_cfa_offset 56
	subq	$136, %rsp
	.cfi_def_cfa_offset 192
	.cfi_offset %rbx, -56
	.cfi_offset %r12, -48
	.cfi_offset %r13, -40
	.cfi_offset %r14, -32
	.cfi_offset %r15, -24
	.cfi_offset %rbp, -16
	#DEBUG_VALUE: loadSource:this <- %rdi
	movq	%rdi, %r14
.Ltmp149:
	#DEBUG_VALUE: loadSource:this <- %r14
	.loc	16 44 21 prologue_end   # src/audio.cpp:44:21
	cmpl	$0, (%r14)
.Ltmp150:
	.loc	16 44 9 is_stmt 0       # src/audio.cpp:44:9
	je	.LBB36_5
.Ltmp151:
# %bb.1:
	#DEBUG_VALUE: loadSource:this <- %r14
	.loc	16 0 9                  # src/audio.cpp:0:9
	xorl	%r12d, %r12d
.Ltmp152:
	#DEBUG_VALUE: i <- 0
	leaq	8(%rsp), %r15
	leaq	104(%rsp), %rbx
	leaq	16(%rsp), %r13
.Ltmp153:
	.p2align	4, 0x90
.LBB36_2:                               # =>This Inner Loop Header: Depth=1
	#DEBUG_VALUE: loadSource:this <- %r14
	.loc	16 59 23 is_stmt 1      # src/audio.cpp:59:23
	movl	$4136, %edi             # imm = 0x1028
	callq	_Znwm
	movq	%rax, %rbp
	.loc	16 59 33 is_stmt 0      # src/audio.cpp:59:33
	movq	%r15, %rdi
	callq	_ZNSaIcEC2Ev
.Ltmp131:
	movl	$.L.str.2, %esi
	movq	%rbx, %rdi
	movq	%r15, %rdx
	callq	_ZNSt7__cxx1112basic_stringIcSt11char_traitsIcESaIcEEC2EPKcRKS3_
.Ltmp132:
.Ltmp154:
# %bb.3:                                #   in Loop: Header=BB36_2 Depth=1
	#DEBUG_VALUE: loadSource:this <- %r14
.Ltmp134:
	#DEBUG_VALUE: loadSource:inSound <- %rbp
	.loc	16 59 27                # src/audio.cpp:59:27
	movl	$3, %edx
	movl	$1, %ecx
	movq	%rbp, %rdi
	movq	%rbx, %rsi
	callq	_ZN12ILLIXR_AUDIO5SoundC1ENSt7__cxx1112basic_stringIcSt11char_traitsIcESaIcEEEjb
.Ltmp135:
.Ltmp155:
# %bb.4:                                #   in Loop: Header=BB36_2 Depth=1
	#DEBUG_VALUE: loadSource:inSound <- %rbp
	#DEBUG_VALUE: loadSource:this <- %r14
	#DEBUG_VALUE: i <- %r12d
	.loc	16 59 21                # src/audio.cpp:59:21
	movq	%rbp, 16(%rsp)
	.loc	16 59 13                # src/audio.cpp:59:13
	movq	%rbx, %rdi
	callq	_ZNSt7__cxx1112basic_stringIcSt11char_traitsIcESaIcEED2Ev
	movq	%r15, %rdi
	callq	_ZNSaIcED2Ev
	.loc	16 60 40 is_stmt 1      # src/audio.cpp:60:40
	movl	%r12d, %eax
	xorps	%xmm0, %xmm0
	cvtsi2sdq	%rax, %xmm0
	.loc	16 60 38 is_stmt 0      # src/audio.cpp:60:38
	movapd	%xmm0, %xmm1
	mulsd	.LCPI36_0(%rip), %xmm1
	.loc	16 60 33                # src/audio.cpp:60:33
	cvtsd2ss	%xmm1, %xmm1
	.loc	16 60 31                # src/audio.cpp:60:31
	movss	%xmm1, 24(%rsp)
	.loc	16 61 42 is_stmt 1      # src/audio.cpp:61:42
	mulsd	.LCPI36_1(%rip), %xmm0
	.loc	16 61 35 is_stmt 0      # src/audio.cpp:61:35
	cvtsd2ss	%xmm0, %xmm0
	.loc	16 61 33                # src/audio.cpp:61:33
	movss	%xmm0, 28(%rsp)
	.loc	16 62 34 is_stmt 1      # src/audio.cpp:62:34
	xorps	%xmm0, %xmm0
	cvtsi2ssq	%rax, %xmm0
	.loc	16 62 32 is_stmt 0      # src/audio.cpp:62:32
	movss	%xmm0, 32(%rsp)
	.loc	16 63 13 is_stmt 1      # src/audio.cpp:63:13
	movq	16(%rsp), %rdi
.Ltmp156:
	#DEBUG_VALUE: loadSource:inSound <- %rdi
	#DEBUG_VALUE: loadSource:position <- [DW_OP_plus_uconst 24] [%rsp+0]
	.loc	16 63 22 is_stmt 0      # src/audio.cpp:63:22
	leaq	24(%rsp), %rsi
	callq	_ZN12ILLIXR_AUDIO5Sound9setSrcPosER10PolarPoint
.Ltmp157:
	.loc	16 64 13 is_stmt 1      # src/audio.cpp:64:13
	movq	8(%r14), %rdi
.Ltmp158:
	#DEBUG_VALUE: loadSource:inSound <- [DW_OP_plus_uconst 16] [%rsp+0]
	.loc	16 64 24 is_stmt 0      # src/audio.cpp:64:24
	movq	%r13, %rsi
	callq	_ZNSt6vectorIPN12ILLIXR_AUDIO5SoundESaIS2_EE9push_backERKS2_
.Ltmp159:
	.loc	16 58 45 is_stmt 1      # src/audio.cpp:58:45
	addl	$1, %r12d
.Ltmp160:
	#DEBUG_VALUE: i <- %r12d
	.loc	16 58 32 is_stmt 0      # src/audio.cpp:58:32
	cmpl	$16, %r12d
.Ltmp161:
	.loc	16 58 9                 # src/audio.cpp:58:9
	jb	.LBB36_2
	jmp	.LBB36_10
.Ltmp162:
.LBB36_5:
	#DEBUG_VALUE: loadSource:this <- %r14
	.loc	16 45 19 is_stmt 1      # src/audio.cpp:45:19
	movl	$4136, %edi             # imm = 0x1028
	callq	_Znwm
	movq	%rax, %rbx
	leaq	8(%rsp), %rbp
	.loc	16 45 29 is_stmt 0      # src/audio.cpp:45:29
	movq	%rbp, %rdi
	callq	_ZNSaIcEC2Ev
.Ltmp137:
	leaq	72(%rsp), %rdi
	movl	$.L.str.2, %esi
	movq	%rbp, %rdx
	callq	_ZNSt7__cxx1112basic_stringIcSt11char_traitsIcESaIcEEC2EPKcRKS3_
.Ltmp138:
.Ltmp163:
# %bb.6:
	#DEBUG_VALUE: loadSource:this <- %r14
.Ltmp140:
	#DEBUG_VALUE: loadSource:inSound <- %rbx
	.loc	16 0 29                 # src/audio.cpp:0:29
	leaq	72(%rsp), %rsi
	.loc	16 45 23                # src/audio.cpp:45:23
	movl	$3, %edx
	movl	$1, %ecx
	movq	%rbx, %rdi
	callq	_ZN12ILLIXR_AUDIO5SoundC1ENSt7__cxx1112basic_stringIcSt11char_traitsIcESaIcEEEjb
.Ltmp141:
.Ltmp164:
# %bb.7:
	#DEBUG_VALUE: loadSource:inSound <- %rbx
	#DEBUG_VALUE: loadSource:this <- %r14
	.loc	16 45 17                # src/audio.cpp:45:17
	movq	%rbx, 16(%rsp)
	leaq	72(%rsp), %rdi
	.loc	16 45 9                 # src/audio.cpp:45:9
	callq	_ZNSt7__cxx1112basic_stringIcSt11char_traitsIcESaIcEED2Ev
	leaq	8(%rsp), %rdi
	callq	_ZNSaIcED2Ev
	.loc	16 46 27 is_stmt 1      # src/audio.cpp:46:27
	movabsq	$4596193640783334605, %rax # imm = 0x3FC8F5C3BDCCCCCD
	movq	%rax, 24(%rsp)
	.loc	16 48 28                # src/audio.cpp:48:28
	movl	$1065353216, 32(%rsp)   # imm = 0x3F800000
	.loc	16 49 9                 # src/audio.cpp:49:9
	movq	16(%rsp), %rdi
.Ltmp165:
	#DEBUG_VALUE: loadSource:inSound <- %rdi
	.loc	16 0 9 is_stmt 0        # src/audio.cpp:0:9
	leaq	24(%rsp), %rsi
.Ltmp166:
	#DEBUG_VALUE: loadSource:position <- [DW_OP_plus_uconst 24] [%rsp+0]
	.loc	16 49 18                # src/audio.cpp:49:18
	callq	_ZN12ILLIXR_AUDIO5Sound9setSrcPosER10PolarPoint
.Ltmp167:
	.loc	16 50 9 is_stmt 1       # src/audio.cpp:50:9
	movq	8(%r14), %rdi
	leaq	16(%rsp), %rsi
.Ltmp168:
	#DEBUG_VALUE: loadSource:inSound <- [DW_OP_plus_uconst 16] [%rsp+0]
	.loc	16 50 20 is_stmt 0      # src/audio.cpp:50:20
	callq	_ZNSt6vectorIPN12ILLIXR_AUDIO5SoundESaIS2_EE9push_backERKS2_
	.loc	16 51 19 is_stmt 1      # src/audio.cpp:51:19
	movl	$4136, %edi             # imm = 0x1028
	callq	_Znwm
	movq	%rax, %rbx
	leaq	8(%rsp), %rbp
	.loc	16 51 29 is_stmt 0      # src/audio.cpp:51:29
	movq	%rbp, %rdi
	callq	_ZNSaIcEC2Ev
.Ltmp143:
	leaq	40(%rsp), %rdi
	movl	$.L.str.3, %esi
	movq	%rbp, %rdx
	callq	_ZNSt7__cxx1112basic_stringIcSt11char_traitsIcESaIcEEC2EPKcRKS3_
.Ltmp144:
.Ltmp169:
# %bb.8:
	#DEBUG_VALUE: loadSource:inSound <- [DW_OP_plus_uconst 16] [%rsp+0]
	#DEBUG_VALUE: loadSource:position <- [DW_OP_plus_uconst 24] [%rsp+0]
	#DEBUG_VALUE: loadSource:this <- %r14
.Ltmp146:
	#DEBUG_VALUE: loadSource:inSound <- %rbx
	.loc	16 0 29                 # src/audio.cpp:0:29
	leaq	40(%rsp), %rsi
	.loc	16 51 23                # src/audio.cpp:51:23
	movl	$3, %edx
	movl	$1, %ecx
	movq	%rbx, %rdi
	callq	_ZN12ILLIXR_AUDIO5SoundC1ENSt7__cxx1112basic_stringIcSt11char_traitsIcESaIcEEEjb
.Ltmp147:
.Ltmp170:
# %bb.9:
	#DEBUG_VALUE: loadSource:inSound <- %rbx
	#DEBUG_VALUE: loadSource:position <- [DW_OP_plus_uconst 24] [%rsp+0]
	#DEBUG_VALUE: loadSource:this <- %r14
	.loc	16 51 17                # src/audio.cpp:51:17
	movq	%rbx, 16(%rsp)
	leaq	40(%rsp), %rdi
	.loc	16 51 9                 # src/audio.cpp:51:9
	callq	_ZNSt7__cxx1112basic_stringIcSt11char_traitsIcESaIcEED2Ev
	leaq	8(%rsp), %rdi
	callq	_ZNSaIcED2Ev
	.loc	16 52 27 is_stmt 1      # src/audio.cpp:52:27
	movq	$1065353216, 24(%rsp)   # imm = 0x3F800000
	.loc	16 54 28                # src/audio.cpp:54:28
	movl	$1084227584, 32(%rsp)   # imm = 0x40A00000
	.loc	16 55 9                 # src/audio.cpp:55:9
	movq	16(%rsp), %rdi
.Ltmp171:
	#DEBUG_VALUE: loadSource:inSound <- %rdi
	.loc	16 0 9 is_stmt 0        # src/audio.cpp:0:9
	leaq	24(%rsp), %rsi
	#DEBUG_VALUE: loadSource:position <- [DW_OP_plus_uconst 24] [%rsp+0]
	.loc	16 55 18                # src/audio.cpp:55:18
	callq	_ZN12ILLIXR_AUDIO5Sound9setSrcPosER10PolarPoint
.Ltmp172:
	.loc	16 56 9 is_stmt 1       # src/audio.cpp:56:9
	movq	8(%r14), %rdi
	leaq	16(%rsp), %rsi
.Ltmp173:
	#DEBUG_VALUE: loadSource:inSound <- [DW_OP_plus_uconst 16] [%rsp+0]
	.loc	16 56 20 is_stmt 0      # src/audio.cpp:56:20
	callq	_ZNSt6vectorIPN12ILLIXR_AUDIO5SoundESaIS2_EE9push_backERKS2_
.Ltmp174:
.LBB36_10:
	#DEBUG_VALUE: loadSource:inSound <- [DW_OP_plus_uconst 16] [%rsp+0]
	#DEBUG_VALUE: loadSource:position <- [DW_OP_plus_uconst 24] [%rsp+0]
	#DEBUG_VALUE: loadSource:this <- %r14
	.loc	16 67 1 is_stmt 1       # src/audio.cpp:67:1
	addq	$136, %rsp
.Ltmp175:
	popq	%rbx
	popq	%r12
	popq	%r13
	popq	%r14
.Ltmp176:
	popq	%r15
	popq	%rbp
	retq
.LBB36_11:
.Ltmp177:
	#DEBUG_VALUE: loadSource:inSound <- %rbx
	#DEBUG_VALUE: loadSource:position <- [DW_OP_plus_uconst 24] [%rsp+0]
	#DEBUG_VALUE: loadSource:this <- %r14
.Ltmp148:
	.loc	16 0 1 is_stmt 0        # src/audio.cpp:0:1
	movq	%rax, %r14
.Ltmp178:
	leaq	40(%rsp), %rdi
	jmp	.LBB36_14
.Ltmp179:
.LBB36_12:
	#DEBUG_VALUE: loadSource:inSound <- [DW_OP_plus_uconst 16] [%rsp+0]
	#DEBUG_VALUE: loadSource:position <- [DW_OP_plus_uconst 24] [%rsp+0]
	#DEBUG_VALUE: loadSource:this <- %r14
.Ltmp145:
	jmp	.LBB36_16
.Ltmp180:
.LBB36_13:
	#DEBUG_VALUE: loadSource:inSound <- %rbx
	#DEBUG_VALUE: loadSource:this <- %r14
.Ltmp142:
	movq	%rax, %r14
.Ltmp181:
	leaq	72(%rsp), %rdi
.Ltmp182:
.LBB36_14:
	#DEBUG_VALUE: loadSource:inSound <- %rbx
	callq	_ZNSt7__cxx1112basic_stringIcSt11char_traitsIcESaIcEED2Ev
	jmp	.LBB36_17
.Ltmp183:
.LBB36_15:
	#DEBUG_VALUE: loadSource:this <- %r14
.Ltmp139:
.LBB36_16:
	#DEBUG_VALUE: loadSource:this <- %r14
	movq	%rax, %r14
.Ltmp184:
.LBB36_17:
	leaq	8(%rsp), %rdi
	callq	_ZNSaIcED2Ev
	movq	%rbx, %rdi
	jmp	.LBB36_21
.LBB36_18:
.Ltmp185:
	#DEBUG_VALUE: loadSource:inSound <- %rbp
	#DEBUG_VALUE: loadSource:this <- %r14
.Ltmp136:
	movq	%rax, %r14
.Ltmp186:
	leaq	104(%rsp), %rdi
.Ltmp187:
	.loc	16 59 13 is_stmt 1      # src/audio.cpp:59:13
	callq	_ZNSt7__cxx1112basic_stringIcSt11char_traitsIcESaIcEED2Ev
	jmp	.LBB36_20
.Ltmp188:
.LBB36_19:
	#DEBUG_VALUE: loadSource:this <- %r14
.Ltmp133:
	.loc	16 0 13 is_stmt 0       # src/audio.cpp:0:13
	movq	%rax, %r14
.Ltmp189:
.LBB36_20:
	leaq	8(%rsp), %rdi
	.loc	16 59 13                # src/audio.cpp:59:13
	callq	_ZNSaIcED2Ev
	movq	%rbp, %rdi
.Ltmp190:
.LBB36_21:
	.loc	16 0 13                 # src/audio.cpp:0:13
	callq	_ZdlPv
	movq	%r14, %rdi
	callq	_Unwind_Resume
.Lfunc_end36:
	.size	_ZN12ILLIXR_AUDIO7ABAudio10loadSourceEv, .Lfunc_end36-_ZN12ILLIXR_AUDIO7ABAudio10loadSourceEv
	.cfi_endproc
	.section	.gcc_except_table,"a",@progbits
	.p2align	2
GCC_except_table36:
.Lexception1:
	.byte	255                     # @LPStart Encoding = omit
	.byte	3                       # @TType Encoding = udata4
	.asciz	"\205\201\200\200"      # @TType base offset
	.byte	3                       # Call site Encoding = udata4
	.ascii	"\202\001"              # Call site table length
	.long	.Lfunc_begin36-.Lfunc_begin36 # >> Call Site 1 <<
	.long	.Ltmp131-.Lfunc_begin36 #   Call between .Lfunc_begin36 and .Ltmp131
	.long	0                       #     has no landing pad
	.byte	0                       #   On action: cleanup
	.long	.Ltmp131-.Lfunc_begin36 # >> Call Site 2 <<
	.long	.Ltmp132-.Ltmp131       #   Call between .Ltmp131 and .Ltmp132
	.long	.Ltmp133-.Lfunc_begin36 #     jumps to .Ltmp133
	.byte	0                       #   On action: cleanup
	.long	.Ltmp134-.Lfunc_begin36 # >> Call Site 3 <<
	.long	.Ltmp135-.Ltmp134       #   Call between .Ltmp134 and .Ltmp135
	.long	.Ltmp136-.Lfunc_begin36 #     jumps to .Ltmp136
	.byte	0                       #   On action: cleanup
	.long	.Ltmp135-.Lfunc_begin36 # >> Call Site 4 <<
	.long	.Ltmp137-.Ltmp135       #   Call between .Ltmp135 and .Ltmp137
	.long	0                       #     has no landing pad
	.byte	0                       #   On action: cleanup
	.long	.Ltmp137-.Lfunc_begin36 # >> Call Site 5 <<
	.long	.Ltmp138-.Ltmp137       #   Call between .Ltmp137 and .Ltmp138
	.long	.Ltmp139-.Lfunc_begin36 #     jumps to .Ltmp139
	.byte	0                       #   On action: cleanup
	.long	.Ltmp140-.Lfunc_begin36 # >> Call Site 6 <<
	.long	.Ltmp141-.Ltmp140       #   Call between .Ltmp140 and .Ltmp141
	.long	.Ltmp142-.Lfunc_begin36 #     jumps to .Ltmp142
	.byte	0                       #   On action: cleanup
	.long	.Ltmp141-.Lfunc_begin36 # >> Call Site 7 <<
	.long	.Ltmp143-.Ltmp141       #   Call between .Ltmp141 and .Ltmp143
	.long	0                       #     has no landing pad
	.byte	0                       #   On action: cleanup
	.long	.Ltmp143-.Lfunc_begin36 # >> Call Site 8 <<
	.long	.Ltmp144-.Ltmp143       #   Call between .Ltmp143 and .Ltmp144
	.long	.Ltmp145-.Lfunc_begin36 #     jumps to .Ltmp145
	.byte	0                       #   On action: cleanup
	.long	.Ltmp146-.Lfunc_begin36 # >> Call Site 9 <<
	.long	.Ltmp147-.Ltmp146       #   Call between .Ltmp146 and .Ltmp147
	.long	.Ltmp148-.Lfunc_begin36 #     jumps to .Ltmp148
	.byte	0                       #   On action: cleanup
	.long	.Ltmp147-.Lfunc_begin36 # >> Call Site 10 <<
	.long	.Lfunc_end36-.Ltmp147   #   Call between .Ltmp147 and .Lfunc_end36
	.long	0                       #     has no landing pad
	.byte	0                       #   On action: cleanup
	.p2align	2
                                        # -- End function
	.section	.text._ZNSt6vectorIPN12ILLIXR_AUDIO5SoundESaIS2_EE9push_backERKS2_,"axG",@progbits,_ZNSt6vectorIPN12ILLIXR_AUDIO5SoundESaIS2_EE9push_backERKS2_,comdat
	.weak	_ZNSt6vectorIPN12ILLIXR_AUDIO5SoundESaIS2_EE9push_backERKS2_ # -- Begin function _ZNSt6vectorIPN12ILLIXR_AUDIO5SoundESaIS2_EE9push_backERKS2_
	.p2align	4, 0x90
	.type	_ZNSt6vectorIPN12ILLIXR_AUDIO5SoundESaIS2_EE9push_backERKS2_,@function
_ZNSt6vectorIPN12ILLIXR_AUDIO5SoundESaIS2_EE9push_backERKS2_: # @_ZNSt6vectorIPN12ILLIXR_AUDIO5SoundESaIS2_EE9push_backERKS2_
.Lfunc_begin37:
	.loc	12 1185 0 is_stmt 1     # /usr/lib/gcc/x86_64-linux-gnu/9/../../../../include/c++/9/bits/stl_vector.h:1185:0
	.cfi_startproc
# %bb.0:
	pushq	%r14
	.cfi_def_cfa_offset 16
	pushq	%rbx
	.cfi_def_cfa_offset 24
	pushq	%rax
	.cfi_def_cfa_offset 32
	.cfi_offset %rbx, -24
	.cfi_offset %r14, -16
	#DEBUG_VALUE: push_back:this <- %rdi
	#DEBUG_VALUE: push_back:__x <- %rsi
	movq	%rsi, %r14
	movq	%rdi, %rbx
.Ltmp191:
	#DEBUG_VALUE: push_back:__x <- %r14
	#DEBUG_VALUE: push_back:this <- %rbx
	.loc	12 1186 20 prologue_end # /usr/lib/gcc/x86_64-linux-gnu/9/../../../../include/c++/9/bits/stl_vector.h:1186:20
	movq	8(%rbx), %rsi
	.loc	12 1186 30 is_stmt 0    # /usr/lib/gcc/x86_64-linux-gnu/9/../../../../include/c++/9/bits/stl_vector.h:1186:30
	cmpq	16(%rbx), %rsi
.Ltmp192:
	.loc	12 1186 6               # /usr/lib/gcc/x86_64-linux-gnu/9/../../../../include/c++/9/bits/stl_vector.h:1186:6
	je	.LBB37_2
.Ltmp193:
# %bb.1:
	#DEBUG_VALUE: push_back:this <- %rbx
	#DEBUG_VALUE: push_back:__x <- %r14
	.loc	12 1189 6 is_stmt 1     # /usr/lib/gcc/x86_64-linux-gnu/9/../../../../include/c++/9/bits/stl_vector.h:1189:6
	movq	%rbx, %rdi
	movq	%r14, %rdx
	callq	_ZNSt16allocator_traitsISaIPN12ILLIXR_AUDIO5SoundEEE9constructIS2_JRKS2_EEEvRS3_PT_DpOT0_
	.loc	12 1191 6               # /usr/lib/gcc/x86_64-linux-gnu/9/../../../../include/c++/9/bits/stl_vector.h:1191:6
	addq	$8, 8(%rbx)
.Ltmp194:
	.loc	12 1196 7               # /usr/lib/gcc/x86_64-linux-gnu/9/../../../../include/c++/9/bits/stl_vector.h:1196:7
	addq	$8, %rsp
	popq	%rbx
.Ltmp195:
	popq	%r14
.Ltmp196:
	retq
.LBB37_2:
.Ltmp197:
	#DEBUG_VALUE: push_back:this <- %rbx
	#DEBUG_VALUE: push_back:__x <- %r14
	.loc	12 1195 22              # /usr/lib/gcc/x86_64-linux-gnu/9/../../../../include/c++/9/bits/stl_vector.h:1195:22
	movq	%rbx, %rdi
	callq	_ZNSt6vectorIPN12ILLIXR_AUDIO5SoundESaIS2_EE3endEv
	.loc	12 1195 4 is_stmt 0     # /usr/lib/gcc/x86_64-linux-gnu/9/../../../../include/c++/9/bits/stl_vector.h:1195:4
	movq	%rbx, %rdi
	movq	%rax, %rsi
	movq	%r14, %rdx
	addq	$8, %rsp
	popq	%rbx
.Ltmp198:
	popq	%r14
.Ltmp199:
	jmp	_ZNSt6vectorIPN12ILLIXR_AUDIO5SoundESaIS2_EE17_M_realloc_insertIJRKS2_EEEvN9__gnu_cxx17__normal_iteratorIPS2_S4_EEDpOT_ # TAILCALL
.Ltmp200:
.Lfunc_end37:
	.size	_ZNSt6vectorIPN12ILLIXR_AUDIO5SoundESaIS2_EE9push_backERKS2_, .Lfunc_end37-_ZNSt6vectorIPN12ILLIXR_AUDIO5SoundESaIS2_EE9push_backERKS2_
	.cfi_endproc
                                        # -- End function
	.section	.text._ZNSt16allocator_traitsISaIPN12ILLIXR_AUDIO5SoundEEE9constructIS2_JRKS2_EEEvRS3_PT_DpOT0_,"axG",@progbits,_ZNSt16allocator_traitsISaIPN12ILLIXR_AUDIO5SoundEEE9constructIS2_JRKS2_EEEvRS3_PT_DpOT0_,comdat
	.weak	_ZNSt16allocator_traitsISaIPN12ILLIXR_AUDIO5SoundEEE9constructIS2_JRKS2_EEEvRS3_PT_DpOT0_ # -- Begin function _ZNSt16allocator_traitsISaIPN12ILLIXR_AUDIO5SoundEEE9constructIS2_JRKS2_EEEvRS3_PT_DpOT0_
	.p2align	4, 0x90
	.type	_ZNSt16allocator_traitsISaIPN12ILLIXR_AUDIO5SoundEEE9constructIS2_JRKS2_EEEvRS3_PT_DpOT0_,@function
_ZNSt16allocator_traitsISaIPN12ILLIXR_AUDIO5SoundEEE9constructIS2_JRKS2_EEEvRS3_PT_DpOT0_: # @_ZNSt16allocator_traitsISaIPN12ILLIXR_AUDIO5SoundEEE9constructIS2_JRKS2_EEEvRS3_PT_DpOT0_
.Lfunc_begin38:
	.loc	2 484 0 is_stmt 1       # /usr/lib/gcc/x86_64-linux-gnu/9/../../../../include/c++/9/bits/alloc_traits.h:484:0
	.cfi_startproc
# %bb.0:
	pushq	%r14
	.cfi_def_cfa_offset 16
	pushq	%rbx
	.cfi_def_cfa_offset 24
	pushq	%rax
	.cfi_def_cfa_offset 32
	.cfi_offset %rbx, -24
	.cfi_offset %r14, -16
	#DEBUG_VALUE: construct<ILLIXR_AUDIO::Sound *, ILLIXR_AUDIO::Sound *const &>:__a <- %rdi
	#DEBUG_VALUE: construct<ILLIXR_AUDIO::Sound *, ILLIXR_AUDIO::Sound *const &>:__p <- %rsi
	#DEBUG_VALUE: construct<ILLIXR_AUDIO::Sound *, ILLIXR_AUDIO::Sound *const &>:__args <- %rdx
	movq	%rsi, %r14
	movq	%rdi, %rbx
	#DEBUG_VALUE: construct<ILLIXR_AUDIO::Sound *, ILLIXR_AUDIO::Sound *const &>:__args <- %rdx
.Ltmp201:
	#DEBUG_VALUE: construct<ILLIXR_AUDIO::Sound *, ILLIXR_AUDIO::Sound *const &>:__p <- %r14
	#DEBUG_VALUE: construct<ILLIXR_AUDIO::Sound *, ILLIXR_AUDIO::Sound *const &>:__a <- %rbx
	.loc	2 484 23 prologue_end   # /usr/lib/gcc/x86_64-linux-gnu/9/../../../../include/c++/9/bits/alloc_traits.h:484:23
	movq	%rdx, %rdi
.Ltmp202:
	#DEBUG_VALUE: construct<ILLIXR_AUDIO::Sound *, ILLIXR_AUDIO::Sound *const &>:__args <- %rdi
	callq	_ZSt7forwardIRKPN12ILLIXR_AUDIO5SoundEEOT_RNSt16remove_referenceIS5_E4typeE
.Ltmp203:
	.loc	2 484 8 is_stmt 0       # /usr/lib/gcc/x86_64-linux-gnu/9/../../../../include/c++/9/bits/alloc_traits.h:484:8
	movq	%rbx, %rdi
.Ltmp204:
	#DEBUG_VALUE: construct<ILLIXR_AUDIO::Sound *, ILLIXR_AUDIO::Sound *const &>:__a <- %rdi
	movq	%r14, %rsi
.Ltmp205:
	#DEBUG_VALUE: construct<ILLIXR_AUDIO::Sound *, ILLIXR_AUDIO::Sound *const &>:__p <- %rsi
	movq	%rax, %rdx
	addq	$8, %rsp
	popq	%rbx
	popq	%r14
	jmp	_ZN9__gnu_cxx13new_allocatorIPN12ILLIXR_AUDIO5SoundEE9constructIS3_JRKS3_EEEvPT_DpOT0_ # TAILCALL
.Ltmp206:
.Lfunc_end38:
	.size	_ZNSt16allocator_traitsISaIPN12ILLIXR_AUDIO5SoundEEE9constructIS2_JRKS2_EEEvRS3_PT_DpOT0_, .Lfunc_end38-_ZNSt16allocator_traitsISaIPN12ILLIXR_AUDIO5SoundEEE9constructIS2_JRKS2_EEEvRS3_PT_DpOT0_
	.cfi_endproc
                                        # -- End function
	.section	.text._ZNSt6vectorIPN12ILLIXR_AUDIO5SoundESaIS2_EE3endEv,"axG",@progbits,_ZNSt6vectorIPN12ILLIXR_AUDIO5SoundESaIS2_EE3endEv,comdat
	.weak	_ZNSt6vectorIPN12ILLIXR_AUDIO5SoundESaIS2_EE3endEv # -- Begin function _ZNSt6vectorIPN12ILLIXR_AUDIO5SoundESaIS2_EE3endEv
	.p2align	4, 0x90
	.type	_ZNSt6vectorIPN12ILLIXR_AUDIO5SoundESaIS2_EE3endEv,@function
_ZNSt6vectorIPN12ILLIXR_AUDIO5SoundESaIS2_EE3endEv: # @_ZNSt6vectorIPN12ILLIXR_AUDIO5SoundESaIS2_EE3endEv
.Lfunc_begin39:
	.loc	12 827 0 is_stmt 1      # /usr/lib/gcc/x86_64-linux-gnu/9/../../../../include/c++/9/bits/stl_vector.h:827:0
	.cfi_startproc
# %bb.0:
	.loc	12 827 39 prologue_end  # /usr/lib/gcc/x86_64-linux-gnu/9/../../../../include/c++/9/bits/stl_vector.h:827:39
	pushq	%rax
	.cfi_def_cfa_offset 16
	#DEBUG_VALUE: end:this <- %rdi
	#DEBUG_VALUE: end:this <- %rdi
	leaq	8(%rdi), %rsi
	movq	%rsp, %rdi
.Ltmp207:
	.loc	12 827 16 is_stmt 0     # /usr/lib/gcc/x86_64-linux-gnu/9/../../../../include/c++/9/bits/stl_vector.h:827:16
	callq	_ZN9__gnu_cxx17__normal_iteratorIPPN12ILLIXR_AUDIO5SoundESt6vectorIS3_SaIS3_EEEC2ERKS4_
	.loc	12 827 9                # /usr/lib/gcc/x86_64-linux-gnu/9/../../../../include/c++/9/bits/stl_vector.h:827:9
	movq	(%rsp), %rax
	popq	%rcx
	retq
.Ltmp208:
.Lfunc_end39:
	.size	_ZNSt6vectorIPN12ILLIXR_AUDIO5SoundESaIS2_EE3endEv, .Lfunc_end39-_ZNSt6vectorIPN12ILLIXR_AUDIO5SoundESaIS2_EE3endEv
	.cfi_endproc
                                        # -- End function
	.section	.text._ZNSt6vectorIPN12ILLIXR_AUDIO5SoundESaIS2_EE17_M_realloc_insertIJRKS2_EEEvN9__gnu_cxx17__normal_iteratorIPS2_S4_EEDpOT_,"axG",@progbits,_ZNSt6vectorIPN12ILLIXR_AUDIO5SoundESaIS2_EE17_M_realloc_insertIJRKS2_EEEvN9__gnu_cxx17__normal_iteratorIPS2_S4_EEDpOT_,comdat
	.weak	_ZNSt6vectorIPN12ILLIXR_AUDIO5SoundESaIS2_EE17_M_realloc_insertIJRKS2_EEEvN9__gnu_cxx17__normal_iteratorIPS2_S4_EEDpOT_ # -- Begin function _ZNSt6vectorIPN12ILLIXR_AUDIO5SoundESaIS2_EE17_M_realloc_insertIJRKS2_EEEvN9__gnu_cxx17__normal_iteratorIPS2_S4_EEDpOT_
	.p2align	4, 0x90
	.type	_ZNSt6vectorIPN12ILLIXR_AUDIO5SoundESaIS2_EE17_M_realloc_insertIJRKS2_EEEvN9__gnu_cxx17__normal_iteratorIPS2_S4_EEDpOT_,@function
_ZNSt6vectorIPN12ILLIXR_AUDIO5SoundESaIS2_EE17_M_realloc_insertIJRKS2_EEEvN9__gnu_cxx17__normal_iteratorIPS2_S4_EEDpOT_: # @_ZNSt6vectorIPN12ILLIXR_AUDIO5SoundESaIS2_EE17_M_realloc_insertIJRKS2_EEEvN9__gnu_cxx17__normal_iteratorIPS2_S4_EEDpOT_
.Lfunc_begin40:
	.file	63 "/usr/lib/gcc/x86_64-linux-gnu/9/../../../../include/c++/9/bits/vector.tcc"
	.loc	63 434 0 is_stmt 1      # /usr/lib/gcc/x86_64-linux-gnu/9/../../../../include/c++/9/bits/vector.tcc:434:0
	.cfi_startproc
# %bb.0:
	pushq	%rbp
	.cfi_def_cfa_offset 16
	pushq	%r15
	.cfi_def_cfa_offset 24
	pushq	%r14
	.cfi_def_cfa_offset 32
	pushq	%r13
	.cfi_def_cfa_offset 40
	pushq	%r12
	.cfi_def_cfa_offset 48
	pushq	%rbx
	.cfi_def_cfa_offset 56
	subq	$40, %rsp
	.cfi_def_cfa_offset 96
	.cfi_offset %rbx, -56
	.cfi_offset %r12, -48
	.cfi_offset %r13, -40
	.cfi_offset %r14, -32
	.cfi_offset %r15, -24
	.cfi_offset %rbp, -16
	#DEBUG_VALUE: _M_realloc_insert<ILLIXR_AUDIO::Sound *const &>:this <- %rdi
	#DEBUG_VALUE: _M_realloc_insert<ILLIXR_AUDIO::Sound *const &>:__args <- %rdx
	movq	%rdx, %r12
	movq	%rdi, %rbx
	movq	%rsi, 8(%rsp)
.Ltmp209:
	#DEBUG_VALUE: _M_realloc_insert<ILLIXR_AUDIO::Sound *const &>:__args <- %r12
	#DEBUG_VALUE: _M_realloc_insert<ILLIXR_AUDIO::Sound *const &>:this <- %rbx
	.loc	63 436 2 prologue_end   # /usr/lib/gcc/x86_64-linux-gnu/9/../../../../include/c++/9/bits/vector.tcc:436:2
	movl	$1, %esi
	movl	$.L.str.5, %edx
	callq	_ZNKSt6vectorIPN12ILLIXR_AUDIO5SoundESaIS2_EE12_M_check_lenEmPKc
	movq	%rax, %rbp
.Ltmp210:
	#DEBUG_VALUE: _M_realloc_insert<ILLIXR_AUDIO::Sound *const &>:__len <- %rbp
	.loc	63 437 43               # /usr/lib/gcc/x86_64-linux-gnu/9/../../../../include/c++/9/bits/vector.tcc:437:43
	movq	%rbp, 24(%rsp)          # 8-byte Spill
	movq	(%rbx), %r15
.Ltmp211:
	#DEBUG_VALUE: _M_realloc_insert<ILLIXR_AUDIO::Sound *const &>:__old_start <- %r15
	.loc	63 438 44               # /usr/lib/gcc/x86_64-linux-gnu/9/../../../../include/c++/9/bits/vector.tcc:438:44
	movq	8(%rbx), %rax
.Ltmp212:
	#DEBUG_VALUE: _M_realloc_insert<ILLIXR_AUDIO::Sound *const &>:__old_finish <- [DW_OP_plus_uconst 16] [%rsp+0]
	.loc	63 439 53               # /usr/lib/gcc/x86_64-linux-gnu/9/../../../../include/c++/9/bits/vector.tcc:439:53
	movq	%rax, 16(%rsp)          # 8-byte Spill
	movq	%rbx, %rdi
	callq	_ZNSt6vectorIPN12ILLIXR_AUDIO5SoundESaIS2_EE5beginEv
	movq	%rax, 32(%rsp)
	leaq	8(%rsp), %rdi
	#DEBUG_VALUE: _M_realloc_insert<ILLIXR_AUDIO::Sound *const &>:__position <- [DW_OP_plus_uconst 8] [%rsp+0]
	leaq	32(%rsp), %rsi
	.loc	63 439 51 is_stmt 0     # /usr/lib/gcc/x86_64-linux-gnu/9/../../../../include/c++/9/bits/vector.tcc:439:51
	callq	_ZN9__gnu_cxxmiIPPN12ILLIXR_AUDIO5SoundESt6vectorIS3_SaIS3_EEEENS_17__normal_iteratorIT_T0_E15difference_typeERKSB_SE_
	movq	%rax, %r14
.Ltmp213:
	#DEBUG_VALUE: _M_realloc_insert<ILLIXR_AUDIO::Sound *const &>:__elems_before <- %r14
	.loc	63 440 33 is_stmt 1     # /usr/lib/gcc/x86_64-linux-gnu/9/../../../../include/c++/9/bits/vector.tcc:440:33
	movq	%rbx, %rdi
	movq	%rbp, %rsi
.Ltmp214:
	#DEBUG_VALUE: _M_realloc_insert<ILLIXR_AUDIO::Sound *const &>:__len <- [DW_OP_plus_uconst 24] [%rsp+0]
	callq	_ZNSt12_Vector_baseIPN12ILLIXR_AUDIO5SoundESaIS2_EE11_M_allocateEm
	movq	%rax, %r13
.Ltmp215:
	#DEBUG_VALUE: _M_realloc_insert<ILLIXR_AUDIO::Sound *const &>:__new_finish <- %r13
	#DEBUG_VALUE: _M_realloc_insert<ILLIXR_AUDIO::Sound *const &>:__new_start <- %r13
	.loc	63 450 20               # /usr/lib/gcc/x86_64-linux-gnu/9/../../../../include/c++/9/bits/vector.tcc:450:20
	leaq	(,%r14,8), %rbp
	addq	%r13, %rbp
	.loc	63 452 8                # /usr/lib/gcc/x86_64-linux-gnu/9/../../../../include/c++/9/bits/vector.tcc:452:8
	movq	%r12, %rdi
.Ltmp216:
	#DEBUG_VALUE: _M_realloc_insert<ILLIXR_AUDIO::Sound *const &>:__args <- %rdi
	callq	_ZSt7forwardIRKPN12ILLIXR_AUDIO5SoundEEOT_RNSt16remove_referenceIS5_E4typeE
.Ltmp217:
	.loc	63 449 4                # /usr/lib/gcc/x86_64-linux-gnu/9/../../../../include/c++/9/bits/vector.tcc:449:4
	movq	%rbx, %rdi
	movq	%rbp, %rsi
	movq	%rax, %rdx
	callq	_ZNSt16allocator_traitsISaIPN12ILLIXR_AUDIO5SoundEEE9constructIS2_JRKS2_EEEvRS3_PT_DpOT0_
.Ltmp218:
	.loc	63 461 59               # /usr/lib/gcc/x86_64-linux-gnu/9/../../../../include/c++/9/bits/vector.tcc:461:59
	leaq	8(%rsp), %rdi
	callq	_ZNK9__gnu_cxx17__normal_iteratorIPPN12ILLIXR_AUDIO5SoundESt6vectorIS3_SaIS3_EEE4baseEv
	movq	(%rax), %rbp
	.loc	63 462 20               # /usr/lib/gcc/x86_64-linux-gnu/9/../../../../include/c++/9/bits/vector.tcc:462:20
	movq	%rbx, %rdi
	callq	_ZNSt12_Vector_baseIPN12ILLIXR_AUDIO5SoundESaIS2_EE19_M_get_Tp_allocatorEv
	.loc	63 461 23               # /usr/lib/gcc/x86_64-linux-gnu/9/../../../../include/c++/9/bits/vector.tcc:461:23
	movq	%r15, %rdi
	movq	%rbp, %rsi
	movq	%r13, %rdx
	movq	%rax, %rcx
	callq	_ZNSt6vectorIPN12ILLIXR_AUDIO5SoundESaIS2_EE11_S_relocateEPS2_S5_S5_RS3_
.Ltmp219:
	#DEBUG_VALUE: _M_realloc_insert<ILLIXR_AUDIO::Sound *const &>:__new_finish <- %rax
	.loc	63 464 8                # /usr/lib/gcc/x86_64-linux-gnu/9/../../../../include/c++/9/bits/vector.tcc:464:8
	leaq	8(%rax), %r14
.Ltmp220:
	#DEBUG_VALUE: _M_realloc_insert<ILLIXR_AUDIO::Sound *const &>:__new_finish <- %r14
	.loc	63 466 46               # /usr/lib/gcc/x86_64-linux-gnu/9/../../../../include/c++/9/bits/vector.tcc:466:46
	leaq	8(%rsp), %rdi
	callq	_ZNK9__gnu_cxx17__normal_iteratorIPPN12ILLIXR_AUDIO5SoundESt6vectorIS3_SaIS3_EEE4baseEv
	movq	(%rax), %rbp
	.loc	63 467 21               # /usr/lib/gcc/x86_64-linux-gnu/9/../../../../include/c++/9/bits/vector.tcc:467:21
	movq	%rbx, %rdi
	callq	_ZNSt12_Vector_baseIPN12ILLIXR_AUDIO5SoundESaIS2_EE19_M_get_Tp_allocatorEv
	.loc	63 466 23               # /usr/lib/gcc/x86_64-linux-gnu/9/../../../../include/c++/9/bits/vector.tcc:466:23
	movq	%rbp, %rdi
	movq	16(%rsp), %rsi          # 8-byte Reload
	movq	%r14, %rdx
	movq	%rax, %rcx
	callq	_ZNSt6vectorIPN12ILLIXR_AUDIO5SoundESaIS2_EE11_S_relocateEPS2_S5_S5_RS3_
	movq	%rax, %rbp
.Ltmp221:
	#DEBUG_VALUE: _M_realloc_insert<ILLIXR_AUDIO::Sound *const &>:__new_finish <- %rbp
	.loc	63 501 21               # /usr/lib/gcc/x86_64-linux-gnu/9/../../../../include/c++/9/bits/vector.tcc:501:21
	movq	16(%rbx), %rdx
	.loc	63 501 39 is_stmt 0     # /usr/lib/gcc/x86_64-linux-gnu/9/../../../../include/c++/9/bits/vector.tcc:501:39
	subq	%r15, %rdx
	sarq	$3, %rdx
	.loc	63 500 7 is_stmt 1      # /usr/lib/gcc/x86_64-linux-gnu/9/../../../../include/c++/9/bits/vector.tcc:500:7
	movq	%rbx, %rdi
	movq	%r15, %rsi
	callq	_ZNSt12_Vector_baseIPN12ILLIXR_AUDIO5SoundESaIS2_EE13_M_deallocateEPS2_m
	.loc	63 502 30               # /usr/lib/gcc/x86_64-linux-gnu/9/../../../../include/c++/9/bits/vector.tcc:502:30
	movq	%r13, (%rbx)
	.loc	63 503 31               # /usr/lib/gcc/x86_64-linux-gnu/9/../../../../include/c++/9/bits/vector.tcc:503:31
	movq	%rbp, 8(%rbx)
	.loc	63 504 53               # /usr/lib/gcc/x86_64-linux-gnu/9/../../../../include/c++/9/bits/vector.tcc:504:53
	movq	24(%rsp), %rax          # 8-byte Reload
	leaq	(,%rax,8), %rax
	addq	%r13, %rax
	.loc	63 504 39 is_stmt 0     # /usr/lib/gcc/x86_64-linux-gnu/9/../../../../include/c++/9/bits/vector.tcc:504:39
	movq	%rax, 16(%rbx)
	.loc	63 505 5 is_stmt 1      # /usr/lib/gcc/x86_64-linux-gnu/9/../../../../include/c++/9/bits/vector.tcc:505:5
	addq	$40, %rsp
.Ltmp222:
	popq	%rbx
.Ltmp223:
	popq	%r12
	popq	%r13
.Ltmp224:
	popq	%r14
	popq	%r15
.Ltmp225:
	popq	%rbp
.Ltmp226:
	retq
.Ltmp227:
.Lfunc_end40:
	.size	_ZNSt6vectorIPN12ILLIXR_AUDIO5SoundESaIS2_EE17_M_realloc_insertIJRKS2_EEEvN9__gnu_cxx17__normal_iteratorIPS2_S4_EEDpOT_, .Lfunc_end40-_ZNSt6vectorIPN12ILLIXR_AUDIO5SoundESaIS2_EE17_M_realloc_insertIJRKS2_EEEvN9__gnu_cxx17__normal_iteratorIPS2_S4_EEDpOT_
	.cfi_endproc
                                        # -- End function
	.section	.text._ZNKSt6vectorIPN12ILLIXR_AUDIO5SoundESaIS2_EE12_M_check_lenEmPKc,"axG",@progbits,_ZNKSt6vectorIPN12ILLIXR_AUDIO5SoundESaIS2_EE12_M_check_lenEmPKc,comdat
	.weak	_ZNKSt6vectorIPN12ILLIXR_AUDIO5SoundESaIS2_EE12_M_check_lenEmPKc # -- Begin function _ZNKSt6vectorIPN12ILLIXR_AUDIO5SoundESaIS2_EE12_M_check_lenEmPKc
	.p2align	4, 0x90
	.type	_ZNKSt6vectorIPN12ILLIXR_AUDIO5SoundESaIS2_EE12_M_check_lenEmPKc,@function
_ZNKSt6vectorIPN12ILLIXR_AUDIO5SoundESaIS2_EE12_M_check_lenEmPKc: # @_ZNKSt6vectorIPN12ILLIXR_AUDIO5SoundESaIS2_EE12_M_check_lenEmPKc
.Lfunc_begin41:
	.loc	12 1754 0               # /usr/lib/gcc/x86_64-linux-gnu/9/../../../../include/c++/9/bits/stl_vector.h:1754:0
	.cfi_startproc
# %bb.0:
	pushq	%r15
	.cfi_def_cfa_offset 16
	pushq	%r14
	.cfi_def_cfa_offset 24
	pushq	%r12
	.cfi_def_cfa_offset 32
	pushq	%rbx
	.cfi_def_cfa_offset 40
	subq	$24, %rsp
	.cfi_def_cfa_offset 64
	.cfi_offset %rbx, -40
	.cfi_offset %r12, -32
	.cfi_offset %r14, -24
	.cfi_offset %r15, -16
	#DEBUG_VALUE: _M_check_len:this <- %rdi
	#DEBUG_VALUE: _M_check_len:__n <- %rsi
	#DEBUG_VALUE: _M_check_len:__s <- %rdx
	movq	%rdx, %r15
	movq	%rsi, %r12
	movq	%rdi, %r14
	movq	%r12, 16(%rsp)
.Ltmp228:
	#DEBUG_VALUE: _M_check_len:__s <- %r15
	#DEBUG_VALUE: _M_check_len:__n <- %r12
	#DEBUG_VALUE: _M_check_len:this <- %r14
	.loc	12 1755 6 prologue_end  # /usr/lib/gcc/x86_64-linux-gnu/9/../../../../include/c++/9/bits/stl_vector.h:1755:6
	callq	_ZNKSt6vectorIPN12ILLIXR_AUDIO5SoundESaIS2_EE8max_sizeEv
	movq	%rax, %rbx
	.loc	12 1755 19 is_stmt 0    # /usr/lib/gcc/x86_64-linux-gnu/9/../../../../include/c++/9/bits/stl_vector.h:1755:19
	movq	%r14, %rdi
	callq	_ZNKSt6vectorIPN12ILLIXR_AUDIO5SoundESaIS2_EE4sizeEv
	.loc	12 1755 17              # /usr/lib/gcc/x86_64-linux-gnu/9/../../../../include/c++/9/bits/stl_vector.h:1755:17
	subq	%rax, %rbx
	.loc	12 1755 26              # /usr/lib/gcc/x86_64-linux-gnu/9/../../../../include/c++/9/bits/stl_vector.h:1755:26
	cmpq	%r12, %rbx
.Ltmp229:
	.loc	12 1755 6               # /usr/lib/gcc/x86_64-linux-gnu/9/../../../../include/c++/9/bits/stl_vector.h:1755:6
	jb	.LBB41_5
.Ltmp230:
# %bb.1:
	#DEBUG_VALUE: _M_check_len:this <- %r14
	#DEBUG_VALUE: _M_check_len:__n <- %r12
	#DEBUG_VALUE: _M_check_len:__s <- %r15
	.loc	12 1758 26 is_stmt 1    # /usr/lib/gcc/x86_64-linux-gnu/9/../../../../include/c++/9/bits/stl_vector.h:1758:26
	movq	%r14, %rdi
	callq	_ZNKSt6vectorIPN12ILLIXR_AUDIO5SoundESaIS2_EE4sizeEv
	movq	%rax, %rbx
	.loc	12 1758 46 is_stmt 0    # /usr/lib/gcc/x86_64-linux-gnu/9/../../../../include/c++/9/bits/stl_vector.h:1758:46
	movq	%r14, %rdi
	callq	_ZNKSt6vectorIPN12ILLIXR_AUDIO5SoundESaIS2_EE4sizeEv
	movq	%rax, 8(%rsp)
	leaq	8(%rsp), %rdi
	leaq	16(%rsp), %rsi
.Ltmp231:
	#DEBUG_VALUE: _M_check_len:__n <- [DW_OP_plus_uconst 16] [%rsp+0]
	.loc	12 1758 35              # /usr/lib/gcc/x86_64-linux-gnu/9/../../../../include/c++/9/bits/stl_vector.h:1758:35
	callq	_ZSt3maxImERKT_S2_S2_
	.loc	12 1758 33              # /usr/lib/gcc/x86_64-linux-gnu/9/../../../../include/c++/9/bits/stl_vector.h:1758:33
	addq	(%rax), %rbx
.Ltmp232:
	#DEBUG_VALUE: _M_check_len:__len <- %rbx
	.loc	12 1759 18 is_stmt 1    # /usr/lib/gcc/x86_64-linux-gnu/9/../../../../include/c++/9/bits/stl_vector.h:1759:18
	movq	%r14, %rdi
	callq	_ZNKSt6vectorIPN12ILLIXR_AUDIO5SoundESaIS2_EE4sizeEv
	.loc	12 1759 16 is_stmt 0    # /usr/lib/gcc/x86_64-linux-gnu/9/../../../../include/c++/9/bits/stl_vector.h:1759:16
	cmpq	%rax, %rbx
	.loc	12 1759 25              # /usr/lib/gcc/x86_64-linux-gnu/9/../../../../include/c++/9/bits/stl_vector.h:1759:25
	jb	.LBB41_3
.Ltmp233:
# %bb.2:
	#DEBUG_VALUE: _M_check_len:__len <- %rbx
	#DEBUG_VALUE: _M_check_len:__n <- [DW_OP_plus_uconst 16] [%rsp+0]
	#DEBUG_VALUE: _M_check_len:this <- %r14
	#DEBUG_VALUE: _M_check_len:__s <- %r15
	.loc	12 1759 36              # /usr/lib/gcc/x86_64-linux-gnu/9/../../../../include/c++/9/bits/stl_vector.h:1759:36
	movq	%r14, %rdi
	callq	_ZNKSt6vectorIPN12ILLIXR_AUDIO5SoundESaIS2_EE8max_sizeEv
	.loc	12 1759 34              # /usr/lib/gcc/x86_64-linux-gnu/9/../../../../include/c++/9/bits/stl_vector.h:1759:34
	cmpq	%rax, %rbx
	.loc	12 1759 9               # /usr/lib/gcc/x86_64-linux-gnu/9/../../../../include/c++/9/bits/stl_vector.h:1759:9
	jbe	.LBB41_4
.Ltmp234:
.LBB41_3:
	#DEBUG_VALUE: _M_check_len:__len <- %rbx
	#DEBUG_VALUE: _M_check_len:__n <- [DW_OP_plus_uconst 16] [%rsp+0]
	#DEBUG_VALUE: _M_check_len:this <- %r14
	#DEBUG_VALUE: _M_check_len:__s <- %r15
	.loc	12 1759 50              # /usr/lib/gcc/x86_64-linux-gnu/9/../../../../include/c++/9/bits/stl_vector.h:1759:50
	movq	%r14, %rdi
	callq	_ZNKSt6vectorIPN12ILLIXR_AUDIO5SoundESaIS2_EE8max_sizeEv
	movq	%rax, %rbx
.Ltmp235:
.LBB41_4:
	#DEBUG_VALUE: _M_check_len:__n <- [DW_OP_plus_uconst 16] [%rsp+0]
	#DEBUG_VALUE: _M_check_len:this <- %r14
	#DEBUG_VALUE: _M_check_len:__s <- %r15
	.loc	12 1759 2               # /usr/lib/gcc/x86_64-linux-gnu/9/../../../../include/c++/9/bits/stl_vector.h:1759:2
	movq	%rbx, %rax
	addq	$24, %rsp
.Ltmp236:
	popq	%rbx
	popq	%r12
	popq	%r14
.Ltmp237:
	popq	%r15
.Ltmp238:
	retq
.LBB41_5:
.Ltmp239:
	#DEBUG_VALUE: _M_check_len:this <- %r14
	#DEBUG_VALUE: _M_check_len:__n <- %r12
	#DEBUG_VALUE: _M_check_len:__s <- %r15
	.loc	12 1756 4 is_stmt 1     # /usr/lib/gcc/x86_64-linux-gnu/9/../../../../include/c++/9/bits/stl_vector.h:1756:4
	movq	%r15, %rdi
	callq	_ZSt20__throw_length_errorPKc
.Ltmp240:
.Lfunc_end41:
	.size	_ZNKSt6vectorIPN12ILLIXR_AUDIO5SoundESaIS2_EE12_M_check_lenEmPKc, .Lfunc_end41-_ZNKSt6vectorIPN12ILLIXR_AUDIO5SoundESaIS2_EE12_M_check_lenEmPKc
	.cfi_endproc
                                        # -- End function
	.section	.text._ZNSt6vectorIPN12ILLIXR_AUDIO5SoundESaIS2_EE5beginEv,"axG",@progbits,_ZNSt6vectorIPN12ILLIXR_AUDIO5SoundESaIS2_EE5beginEv,comdat
	.weak	_ZNSt6vectorIPN12ILLIXR_AUDIO5SoundESaIS2_EE5beginEv # -- Begin function _ZNSt6vectorIPN12ILLIXR_AUDIO5SoundESaIS2_EE5beginEv
	.p2align	4, 0x90
	.type	_ZNSt6vectorIPN12ILLIXR_AUDIO5SoundESaIS2_EE5beginEv,@function
_ZNSt6vectorIPN12ILLIXR_AUDIO5SoundESaIS2_EE5beginEv: # @_ZNSt6vectorIPN12ILLIXR_AUDIO5SoundESaIS2_EE5beginEv
.Lfunc_begin42:
	.loc	12 809 0                # /usr/lib/gcc/x86_64-linux-gnu/9/../../../../include/c++/9/bits/stl_vector.h:809:0
	.cfi_startproc
# %bb.0:
	pushq	%rax
	.cfi_def_cfa_offset 16
	#DEBUG_VALUE: begin:this <- %rdi
	movq	%rdi, %rax
.Ltmp241:
	#DEBUG_VALUE: begin:this <- %rax
	movq	%rsp, %rdi
.Ltmp242:
	.loc	12 809 16 prologue_end  # /usr/lib/gcc/x86_64-linux-gnu/9/../../../../include/c++/9/bits/stl_vector.h:809:16
	movq	%rax, %rsi
.Ltmp243:
	#DEBUG_VALUE: begin:this <- %rsi
	callq	_ZN9__gnu_cxx17__normal_iteratorIPPN12ILLIXR_AUDIO5SoundESt6vectorIS3_SaIS3_EEEC2ERKS4_
.Ltmp244:
	.loc	12 809 9 is_stmt 0      # /usr/lib/gcc/x86_64-linux-gnu/9/../../../../include/c++/9/bits/stl_vector.h:809:9
	movq	(%rsp), %rax
	popq	%rcx
	retq
.Ltmp245:
.Lfunc_end42:
	.size	_ZNSt6vectorIPN12ILLIXR_AUDIO5SoundESaIS2_EE5beginEv, .Lfunc_end42-_ZNSt6vectorIPN12ILLIXR_AUDIO5SoundESaIS2_EE5beginEv
	.cfi_endproc
                                        # -- End function
	.section	.text._ZN9__gnu_cxxmiIPPN12ILLIXR_AUDIO5SoundESt6vectorIS3_SaIS3_EEEENS_17__normal_iteratorIT_T0_E15difference_typeERKSB_SE_,"axG",@progbits,_ZN9__gnu_cxxmiIPPN12ILLIXR_AUDIO5SoundESt6vectorIS3_SaIS3_EEEENS_17__normal_iteratorIT_T0_E15difference_typeERKSB_SE_,comdat
	.weak	_ZN9__gnu_cxxmiIPPN12ILLIXR_AUDIO5SoundESt6vectorIS3_SaIS3_EEEENS_17__normal_iteratorIT_T0_E15difference_typeERKSB_SE_ # -- Begin function _ZN9__gnu_cxxmiIPPN12ILLIXR_AUDIO5SoundESt6vectorIS3_SaIS3_EEEENS_17__normal_iteratorIT_T0_E15difference_typeERKSB_SE_
	.p2align	4, 0x90
	.type	_ZN9__gnu_cxxmiIPPN12ILLIXR_AUDIO5SoundESt6vectorIS3_SaIS3_EEEENS_17__normal_iteratorIT_T0_E15difference_typeERKSB_SE_,@function
_ZN9__gnu_cxxmiIPPN12ILLIXR_AUDIO5SoundESt6vectorIS3_SaIS3_EEEENS_17__normal_iteratorIT_T0_E15difference_typeERKSB_SE_: # @_ZN9__gnu_cxxmiIPPN12ILLIXR_AUDIO5SoundESt6vectorIS3_SaIS3_EEEENS_17__normal_iteratorIT_T0_E15difference_typeERKSB_SE_
.Lfunc_begin43:
	.loc	14 992 0 is_stmt 1      # /usr/lib/gcc/x86_64-linux-gnu/9/../../../../include/c++/9/bits/stl_iterator.h:992:0
	.cfi_startproc
# %bb.0:
	pushq	%r14
	.cfi_def_cfa_offset 16
	pushq	%rbx
	.cfi_def_cfa_offset 24
	pushq	%rax
	.cfi_def_cfa_offset 32
	.cfi_offset %rbx, -24
	.cfi_offset %r14, -16
	#DEBUG_VALUE: operator-<ILLIXR_AUDIO::Sound **, std::vector<ILLIXR_AUDIO::Sound *, std::allocator<ILLIXR_AUDIO::Sound *> > >:__lhs <- %rdi
	#DEBUG_VALUE: operator-<ILLIXR_AUDIO::Sound **, std::vector<ILLIXR_AUDIO::Sound *, std::allocator<ILLIXR_AUDIO::Sound *> > >:__rhs <- %rsi
	movq	%rsi, %r14
.Ltmp246:
	#DEBUG_VALUE: operator-<ILLIXR_AUDIO::Sound **, std::vector<ILLIXR_AUDIO::Sound *, std::allocator<ILLIXR_AUDIO::Sound *> > >:__rhs <- %r14
	#DEBUG_VALUE: operator-<ILLIXR_AUDIO::Sound **, std::vector<ILLIXR_AUDIO::Sound *, std::allocator<ILLIXR_AUDIO::Sound *> > >:__lhs <- %rdi
	#DEBUG_VALUE: operator-<ILLIXR_AUDIO::Sound **, std::vector<ILLIXR_AUDIO::Sound *, std::allocator<ILLIXR_AUDIO::Sound *> > >:__lhs <- %rdi
	.loc	14 992 20 prologue_end  # /usr/lib/gcc/x86_64-linux-gnu/9/../../../../include/c++/9/bits/stl_iterator.h:992:20
	callq	_ZNK9__gnu_cxx17__normal_iteratorIPPN12ILLIXR_AUDIO5SoundESt6vectorIS3_SaIS3_EEE4baseEv
.Ltmp247:
	movq	(%rax), %rbx
	.loc	14 992 35 is_stmt 0     # /usr/lib/gcc/x86_64-linux-gnu/9/../../../../include/c++/9/bits/stl_iterator.h:992:35
	movq	%r14, %rdi
.Ltmp248:
	#DEBUG_VALUE: operator-<ILLIXR_AUDIO::Sound **, std::vector<ILLIXR_AUDIO::Sound *, std::allocator<ILLIXR_AUDIO::Sound *> > >:__rhs <- %rdi
	callq	_ZNK9__gnu_cxx17__normal_iteratorIPPN12ILLIXR_AUDIO5SoundESt6vectorIS3_SaIS3_EEE4baseEv
.Ltmp249:
	.loc	14 992 27               # /usr/lib/gcc/x86_64-linux-gnu/9/../../../../include/c++/9/bits/stl_iterator.h:992:27
	subq	(%rax), %rbx
	sarq	$3, %rbx
	.loc	14 992 7                # /usr/lib/gcc/x86_64-linux-gnu/9/../../../../include/c++/9/bits/stl_iterator.h:992:7
	movq	%rbx, %rax
	addq	$8, %rsp
	popq	%rbx
	popq	%r14
	retq
.Ltmp250:
.Lfunc_end43:
	.size	_ZN9__gnu_cxxmiIPPN12ILLIXR_AUDIO5SoundESt6vectorIS3_SaIS3_EEEENS_17__normal_iteratorIT_T0_E15difference_typeERKSB_SE_, .Lfunc_end43-_ZN9__gnu_cxxmiIPPN12ILLIXR_AUDIO5SoundESt6vectorIS3_SaIS3_EEEENS_17__normal_iteratorIT_T0_E15difference_typeERKSB_SE_
	.cfi_endproc
                                        # -- End function
	.section	.text._ZNSt12_Vector_baseIPN12ILLIXR_AUDIO5SoundESaIS2_EE11_M_allocateEm,"axG",@progbits,_ZNSt12_Vector_baseIPN12ILLIXR_AUDIO5SoundESaIS2_EE11_M_allocateEm,comdat
	.weak	_ZNSt12_Vector_baseIPN12ILLIXR_AUDIO5SoundESaIS2_EE11_M_allocateEm # -- Begin function _ZNSt12_Vector_baseIPN12ILLIXR_AUDIO5SoundESaIS2_EE11_M_allocateEm
	.p2align	4, 0x90
	.type	_ZNSt12_Vector_baseIPN12ILLIXR_AUDIO5SoundESaIS2_EE11_M_allocateEm,@function
_ZNSt12_Vector_baseIPN12ILLIXR_AUDIO5SoundESaIS2_EE11_M_allocateEm: # @_ZNSt12_Vector_baseIPN12ILLIXR_AUDIO5SoundESaIS2_EE11_M_allocateEm
.Lfunc_begin44:
	.loc	12 341 0 is_stmt 1      # /usr/lib/gcc/x86_64-linux-gnu/9/../../../../include/c++/9/bits/stl_vector.h:341:0
	.cfi_startproc
# %bb.0:
	#DEBUG_VALUE: _M_allocate:this <- %rdi
	#DEBUG_VALUE: _M_allocate:this <- %rdi
	#DEBUG_VALUE: _M_allocate:__n <- %rsi
	#DEBUG_VALUE: _M_allocate:__n <- %rsi
	.loc	12 343 13 prologue_end  # /usr/lib/gcc/x86_64-linux-gnu/9/../../../../include/c++/9/bits/stl_vector.h:343:13
	testq	%rsi, %rsi
	.loc	12 343 9 is_stmt 0      # /usr/lib/gcc/x86_64-linux-gnu/9/../../../../include/c++/9/bits/stl_vector.h:343:9
	je	.LBB44_1
# %bb.2:
	#DEBUG_VALUE: _M_allocate:__n <- %rsi
	#DEBUG_VALUE: _M_allocate:this <- %rdi
	.loc	12 343 20               # /usr/lib/gcc/x86_64-linux-gnu/9/../../../../include/c++/9/bits/stl_vector.h:343:20
	jmp	_ZNSt16allocator_traitsISaIPN12ILLIXR_AUDIO5SoundEEE8allocateERS3_m # TAILCALL
.LBB44_1:
	#DEBUG_VALUE: _M_allocate:__n <- %rsi
	#DEBUG_VALUE: _M_allocate:this <- %rdi
	.loc	12 343 2                # /usr/lib/gcc/x86_64-linux-gnu/9/../../../../include/c++/9/bits/stl_vector.h:343:2
	xorl	%eax, %eax
	retq
.Ltmp251:
.Lfunc_end44:
	.size	_ZNSt12_Vector_baseIPN12ILLIXR_AUDIO5SoundESaIS2_EE11_M_allocateEm, .Lfunc_end44-_ZNSt12_Vector_baseIPN12ILLIXR_AUDIO5SoundESaIS2_EE11_M_allocateEm
	.cfi_endproc
                                        # -- End function
	.section	.text._ZSt7forwardIRKPN12ILLIXR_AUDIO5SoundEEOT_RNSt16remove_referenceIS5_E4typeE,"axG",@progbits,_ZSt7forwardIRKPN12ILLIXR_AUDIO5SoundEEOT_RNSt16remove_referenceIS5_E4typeE,comdat
	.weak	_ZSt7forwardIRKPN12ILLIXR_AUDIO5SoundEEOT_RNSt16remove_referenceIS5_E4typeE # -- Begin function _ZSt7forwardIRKPN12ILLIXR_AUDIO5SoundEEOT_RNSt16remove_referenceIS5_E4typeE
	.p2align	4, 0x90
	.type	_ZSt7forwardIRKPN12ILLIXR_AUDIO5SoundEEOT_RNSt16remove_referenceIS5_E4typeE,@function
_ZSt7forwardIRKPN12ILLIXR_AUDIO5SoundEEOT_RNSt16remove_referenceIS5_E4typeE: # @_ZSt7forwardIRKPN12ILLIXR_AUDIO5SoundEEOT_RNSt16remove_referenceIS5_E4typeE
.Lfunc_begin45:
	.loc	58 75 0 is_stmt 1       # /usr/lib/gcc/x86_64-linux-gnu/9/../../../../include/c++/9/bits/move.h:75:0
	.cfi_startproc
# %bb.0:
	#DEBUG_VALUE: forward<ILLIXR_AUDIO::Sound *const &>:__t <- %rdi
	#DEBUG_VALUE: forward<ILLIXR_AUDIO::Sound *const &>:__t <- %rdi
	.loc	58 75 7 prologue_end    # /usr/lib/gcc/x86_64-linux-gnu/9/../../../../include/c++/9/bits/move.h:75:7
	movq	%rdi, %rax
.Ltmp252:
	#DEBUG_VALUE: forward<ILLIXR_AUDIO::Sound *const &>:__t <- %rax
	retq
.Ltmp253:
.Lfunc_end45:
	.size	_ZSt7forwardIRKPN12ILLIXR_AUDIO5SoundEEOT_RNSt16remove_referenceIS5_E4typeE, .Lfunc_end45-_ZSt7forwardIRKPN12ILLIXR_AUDIO5SoundEEOT_RNSt16remove_referenceIS5_E4typeE
	.cfi_endproc
                                        # -- End function
	.section	.text._ZNK9__gnu_cxx17__normal_iteratorIPPN12ILLIXR_AUDIO5SoundESt6vectorIS3_SaIS3_EEE4baseEv,"axG",@progbits,_ZNK9__gnu_cxx17__normal_iteratorIPPN12ILLIXR_AUDIO5SoundESt6vectorIS3_SaIS3_EEE4baseEv,comdat
	.weak	_ZNK9__gnu_cxx17__normal_iteratorIPPN12ILLIXR_AUDIO5SoundESt6vectorIS3_SaIS3_EEE4baseEv # -- Begin function _ZNK9__gnu_cxx17__normal_iteratorIPPN12ILLIXR_AUDIO5SoundESt6vectorIS3_SaIS3_EEE4baseEv
	.p2align	4, 0x90
	.type	_ZNK9__gnu_cxx17__normal_iteratorIPPN12ILLIXR_AUDIO5SoundESt6vectorIS3_SaIS3_EEE4baseEv,@function
_ZNK9__gnu_cxx17__normal_iteratorIPPN12ILLIXR_AUDIO5SoundESt6vectorIS3_SaIS3_EEE4baseEv: # @_ZNK9__gnu_cxx17__normal_iteratorIPPN12ILLIXR_AUDIO5SoundESt6vectorIS3_SaIS3_EEE4baseEv
.Lfunc_begin46:
	.loc	14 872 0                # /usr/lib/gcc/x86_64-linux-gnu/9/../../../../include/c++/9/bits/stl_iterator.h:872:0
	.cfi_startproc
# %bb.0:
	#DEBUG_VALUE: base:this <- %rdi
	#DEBUG_VALUE: base:this <- %rdi
	.loc	14 872 9 prologue_end   # /usr/lib/gcc/x86_64-linux-gnu/9/../../../../include/c++/9/bits/stl_iterator.h:872:9
	movq	%rdi, %rax
.Ltmp254:
	#DEBUG_VALUE: base:this <- %rax
	retq
.Ltmp255:
.Lfunc_end46:
	.size	_ZNK9__gnu_cxx17__normal_iteratorIPPN12ILLIXR_AUDIO5SoundESt6vectorIS3_SaIS3_EEE4baseEv, .Lfunc_end46-_ZNK9__gnu_cxx17__normal_iteratorIPPN12ILLIXR_AUDIO5SoundESt6vectorIS3_SaIS3_EEE4baseEv
	.cfi_endproc
                                        # -- End function
	.section	.text._ZNSt12_Vector_baseIPN12ILLIXR_AUDIO5SoundESaIS2_EE19_M_get_Tp_allocatorEv,"axG",@progbits,_ZNSt12_Vector_baseIPN12ILLIXR_AUDIO5SoundESaIS2_EE19_M_get_Tp_allocatorEv,comdat
	.weak	_ZNSt12_Vector_baseIPN12ILLIXR_AUDIO5SoundESaIS2_EE19_M_get_Tp_allocatorEv # -- Begin function _ZNSt12_Vector_baseIPN12ILLIXR_AUDIO5SoundESaIS2_EE19_M_get_Tp_allocatorEv
	.p2align	4, 0x90
	.type	_ZNSt12_Vector_baseIPN12ILLIXR_AUDIO5SoundESaIS2_EE19_M_get_Tp_allocatorEv,@function
_ZNSt12_Vector_baseIPN12ILLIXR_AUDIO5SoundESaIS2_EE19_M_get_Tp_allocatorEv: # @_ZNSt12_Vector_baseIPN12ILLIXR_AUDIO5SoundESaIS2_EE19_M_get_Tp_allocatorEv
.Lfunc_begin47:
	.loc	12 274 0                # /usr/lib/gcc/x86_64-linux-gnu/9/../../../../include/c++/9/bits/stl_vector.h:274:0
	.cfi_startproc
# %bb.0:
	#DEBUG_VALUE: _M_get_Tp_allocator:this <- %rdi
	#DEBUG_VALUE: _M_get_Tp_allocator:this <- %rdi
	.loc	12 274 9 prologue_end   # /usr/lib/gcc/x86_64-linux-gnu/9/../../../../include/c++/9/bits/stl_vector.h:274:9
	movq	%rdi, %rax
.Ltmp256:
	#DEBUG_VALUE: _M_get_Tp_allocator:this <- %rax
	retq
.Ltmp257:
.Lfunc_end47:
	.size	_ZNSt12_Vector_baseIPN12ILLIXR_AUDIO5SoundESaIS2_EE19_M_get_Tp_allocatorEv, .Lfunc_end47-_ZNSt12_Vector_baseIPN12ILLIXR_AUDIO5SoundESaIS2_EE19_M_get_Tp_allocatorEv
	.cfi_endproc
                                        # -- End function
	.section	.text._ZNSt6vectorIPN12ILLIXR_AUDIO5SoundESaIS2_EE11_S_relocateEPS2_S5_S5_RS3_,"axG",@progbits,_ZNSt6vectorIPN12ILLIXR_AUDIO5SoundESaIS2_EE11_S_relocateEPS2_S5_S5_RS3_,comdat
	.weak	_ZNSt6vectorIPN12ILLIXR_AUDIO5SoundESaIS2_EE11_S_relocateEPS2_S5_S5_RS3_ # -- Begin function _ZNSt6vectorIPN12ILLIXR_AUDIO5SoundESaIS2_EE11_S_relocateEPS2_S5_S5_RS3_
	.p2align	4, 0x90
	.type	_ZNSt6vectorIPN12ILLIXR_AUDIO5SoundESaIS2_EE11_S_relocateEPS2_S5_S5_RS3_,@function
_ZNSt6vectorIPN12ILLIXR_AUDIO5SoundESaIS2_EE11_S_relocateEPS2_S5_S5_RS3_: # @_ZNSt6vectorIPN12ILLIXR_AUDIO5SoundESaIS2_EE11_S_relocateEPS2_S5_S5_RS3_
.Lfunc_begin48:
	.loc	12 464 0                # /usr/lib/gcc/x86_64-linux-gnu/9/../../../../include/c++/9/bits/stl_vector.h:464:0
	.cfi_startproc
# %bb.0:
	#DEBUG_VALUE: _S_relocate:__first <- %rdi
	#DEBUG_VALUE: _S_relocate:__first <- %rdi
	#DEBUG_VALUE: _S_relocate:__first <- %rdi
	#DEBUG_VALUE: _S_relocate:__last <- %rsi
	#DEBUG_VALUE: _S_relocate:__last <- %rsi
	#DEBUG_VALUE: _S_relocate:__last <- %rsi
	#DEBUG_VALUE: _S_relocate:__result <- %rdx
	#DEBUG_VALUE: _S_relocate:__result <- %rdx
	#DEBUG_VALUE: _S_relocate:__result <- %rdx
	#DEBUG_VALUE: _S_relocate:__alloc <- %rcx
	#DEBUG_VALUE: _S_relocate:__alloc <- %rcx
	#DEBUG_VALUE: _S_relocate:__alloc <- %rcx
	.loc	12 466 9 prologue_end   # /usr/lib/gcc/x86_64-linux-gnu/9/../../../../include/c++/9/bits/stl_vector.h:466:9
	jmp	_ZNSt6vectorIPN12ILLIXR_AUDIO5SoundESaIS2_EE14_S_do_relocateEPS2_S5_S5_RS3_St17integral_constantIbLb1EE # TAILCALL
.Ltmp258:
.Lfunc_end48:
	.size	_ZNSt6vectorIPN12ILLIXR_AUDIO5SoundESaIS2_EE11_S_relocateEPS2_S5_S5_RS3_, .Lfunc_end48-_ZNSt6vectorIPN12ILLIXR_AUDIO5SoundESaIS2_EE11_S_relocateEPS2_S5_S5_RS3_
	.cfi_endproc
                                        # -- End function
	.section	.text._ZNSt12_Vector_baseIPN12ILLIXR_AUDIO5SoundESaIS2_EE13_M_deallocateEPS2_m,"axG",@progbits,_ZNSt12_Vector_baseIPN12ILLIXR_AUDIO5SoundESaIS2_EE13_M_deallocateEPS2_m,comdat
	.weak	_ZNSt12_Vector_baseIPN12ILLIXR_AUDIO5SoundESaIS2_EE13_M_deallocateEPS2_m # -- Begin function _ZNSt12_Vector_baseIPN12ILLIXR_AUDIO5SoundESaIS2_EE13_M_deallocateEPS2_m
	.p2align	4, 0x90
	.type	_ZNSt12_Vector_baseIPN12ILLIXR_AUDIO5SoundESaIS2_EE13_M_deallocateEPS2_m,@function
_ZNSt12_Vector_baseIPN12ILLIXR_AUDIO5SoundESaIS2_EE13_M_deallocateEPS2_m: # @_ZNSt12_Vector_baseIPN12ILLIXR_AUDIO5SoundESaIS2_EE13_M_deallocateEPS2_m
.Lfunc_begin49:
	.loc	12 348 0                # /usr/lib/gcc/x86_64-linux-gnu/9/../../../../include/c++/9/bits/stl_vector.h:348:0
	.cfi_startproc
# %bb.0:
	#DEBUG_VALUE: _M_deallocate:this <- %rdi
	#DEBUG_VALUE: _M_deallocate:this <- %rdi
	#DEBUG_VALUE: _M_deallocate:__p <- %rsi
	#DEBUG_VALUE: _M_deallocate:__p <- %rsi
	#DEBUG_VALUE: _M_deallocate:__n <- %rdx
	#DEBUG_VALUE: _M_deallocate:__n <- %rdx
	.loc	12 350 6 prologue_end   # /usr/lib/gcc/x86_64-linux-gnu/9/../../../../include/c++/9/bits/stl_vector.h:350:6
	testq	%rsi, %rsi
.Ltmp259:
	.loc	12 350 6 is_stmt 0      # /usr/lib/gcc/x86_64-linux-gnu/9/../../../../include/c++/9/bits/stl_vector.h:350:6
	je	.LBB49_1
# %bb.2:
	#DEBUG_VALUE: _M_deallocate:__n <- %rdx
	#DEBUG_VALUE: _M_deallocate:__p <- %rsi
	#DEBUG_VALUE: _M_deallocate:this <- %rdi
.Ltmp260:
	.loc	12 351 4 is_stmt 1      # /usr/lib/gcc/x86_64-linux-gnu/9/../../../../include/c++/9/bits/stl_vector.h:351:4
	jmp	_ZNSt16allocator_traitsISaIPN12ILLIXR_AUDIO5SoundEEE10deallocateERS3_PS2_m # TAILCALL
.Ltmp261:
.LBB49_1:
	#DEBUG_VALUE: _M_deallocate:__n <- %rdx
	#DEBUG_VALUE: _M_deallocate:__p <- %rsi
	#DEBUG_VALUE: _M_deallocate:this <- %rdi
	.loc	12 352 7                # /usr/lib/gcc/x86_64-linux-gnu/9/../../../../include/c++/9/bits/stl_vector.h:352:7
	retq
.Ltmp262:
.Lfunc_end49:
	.size	_ZNSt12_Vector_baseIPN12ILLIXR_AUDIO5SoundESaIS2_EE13_M_deallocateEPS2_m, .Lfunc_end49-_ZNSt12_Vector_baseIPN12ILLIXR_AUDIO5SoundESaIS2_EE13_M_deallocateEPS2_m
	.cfi_endproc
                                        # -- End function
	.section	.text._ZNSt16allocator_traitsISaIPN12ILLIXR_AUDIO5SoundEEE10deallocateERS3_PS2_m,"axG",@progbits,_ZNSt16allocator_traitsISaIPN12ILLIXR_AUDIO5SoundEEE10deallocateERS3_PS2_m,comdat
	.weak	_ZNSt16allocator_traitsISaIPN12ILLIXR_AUDIO5SoundEEE10deallocateERS3_PS2_m # -- Begin function _ZNSt16allocator_traitsISaIPN12ILLIXR_AUDIO5SoundEEE10deallocateERS3_PS2_m
	.p2align	4, 0x90
	.type	_ZNSt16allocator_traitsISaIPN12ILLIXR_AUDIO5SoundEEE10deallocateERS3_PS2_m,@function
_ZNSt16allocator_traitsISaIPN12ILLIXR_AUDIO5SoundEEE10deallocateERS3_PS2_m: # @_ZNSt16allocator_traitsISaIPN12ILLIXR_AUDIO5SoundEEE10deallocateERS3_PS2_m
.Lfunc_begin50:
	.loc	2 470 0                 # /usr/lib/gcc/x86_64-linux-gnu/9/../../../../include/c++/9/bits/alloc_traits.h:470:0
	.cfi_startproc
# %bb.0:
	#DEBUG_VALUE: deallocate:__a <- %rdi
	#DEBUG_VALUE: deallocate:__a <- %rdi
	#DEBUG_VALUE: deallocate:__a <- %rdi
	#DEBUG_VALUE: deallocate:__p <- %rsi
	#DEBUG_VALUE: deallocate:__p <- %rsi
	#DEBUG_VALUE: deallocate:__p <- %rsi
	#DEBUG_VALUE: deallocate:__n <- %rdx
	#DEBUG_VALUE: deallocate:__n <- %rdx
	#DEBUG_VALUE: deallocate:__n <- %rdx
	.loc	2 470 13 prologue_end   # /usr/lib/gcc/x86_64-linux-gnu/9/../../../../include/c++/9/bits/alloc_traits.h:470:13
	jmp	_ZN9__gnu_cxx13new_allocatorIPN12ILLIXR_AUDIO5SoundEE10deallocateEPS3_m # TAILCALL
.Ltmp263:
.Lfunc_end50:
	.size	_ZNSt16allocator_traitsISaIPN12ILLIXR_AUDIO5SoundEEE10deallocateERS3_PS2_m, .Lfunc_end50-_ZNSt16allocator_traitsISaIPN12ILLIXR_AUDIO5SoundEEE10deallocateERS3_PS2_m
	.cfi_endproc
                                        # -- End function
	.section	.text._ZN9__gnu_cxx13new_allocatorIPN12ILLIXR_AUDIO5SoundEE10deallocateEPS3_m,"axG",@progbits,_ZN9__gnu_cxx13new_allocatorIPN12ILLIXR_AUDIO5SoundEE10deallocateEPS3_m,comdat
	.weak	_ZN9__gnu_cxx13new_allocatorIPN12ILLIXR_AUDIO5SoundEE10deallocateEPS3_m # -- Begin function _ZN9__gnu_cxx13new_allocatorIPN12ILLIXR_AUDIO5SoundEE10deallocateEPS3_m
	.p2align	4, 0x90
	.type	_ZN9__gnu_cxx13new_allocatorIPN12ILLIXR_AUDIO5SoundEE10deallocateEPS3_m,@function
_ZN9__gnu_cxx13new_allocatorIPN12ILLIXR_AUDIO5SoundEE10deallocateEPS3_m: # @_ZN9__gnu_cxx13new_allocatorIPN12ILLIXR_AUDIO5SoundEE10deallocateEPS3_m
.Lfunc_begin51:
	.loc	7 120 0                 # /usr/lib/gcc/x86_64-linux-gnu/9/../../../../include/c++/9/ext/new_allocator.h:120:0
	.cfi_startproc
# %bb.0:
	#DEBUG_VALUE: deallocate:this <- %rdi
	#DEBUG_VALUE: deallocate:__p <- %rsi
	#DEBUG_VALUE: deallocate:__p <- %rsi
	#DEBUG_VALUE: deallocate: <- %rdx
	.loc	7 128 2 prologue_end    # /usr/lib/gcc/x86_64-linux-gnu/9/../../../../include/c++/9/ext/new_allocator.h:128:2
	movq	%rsi, %rdi
.Ltmp264:
	#DEBUG_VALUE: deallocate:__p <- %rdi
	jmp	_ZdlPv                  # TAILCALL
.Ltmp265:
.Lfunc_end51:
	.size	_ZN9__gnu_cxx13new_allocatorIPN12ILLIXR_AUDIO5SoundEE10deallocateEPS3_m, .Lfunc_end51-_ZN9__gnu_cxx13new_allocatorIPN12ILLIXR_AUDIO5SoundEE10deallocateEPS3_m
	.cfi_endproc
                                        # -- End function
	.section	.text._ZNSt6vectorIPN12ILLIXR_AUDIO5SoundESaIS2_EE14_S_do_relocateEPS2_S5_S5_RS3_St17integral_constantIbLb1EE,"axG",@progbits,_ZNSt6vectorIPN12ILLIXR_AUDIO5SoundESaIS2_EE14_S_do_relocateEPS2_S5_S5_RS3_St17integral_constantIbLb1EE,comdat
	.weak	_ZNSt6vectorIPN12ILLIXR_AUDIO5SoundESaIS2_EE14_S_do_relocateEPS2_S5_S5_RS3_St17integral_constantIbLb1EE # -- Begin function _ZNSt6vectorIPN12ILLIXR_AUDIO5SoundESaIS2_EE14_S_do_relocateEPS2_S5_S5_RS3_St17integral_constantIbLb1EE
	.p2align	4, 0x90
	.type	_ZNSt6vectorIPN12ILLIXR_AUDIO5SoundESaIS2_EE14_S_do_relocateEPS2_S5_S5_RS3_St17integral_constantIbLb1EE,@function
_ZNSt6vectorIPN12ILLIXR_AUDIO5SoundESaIS2_EE14_S_do_relocateEPS2_S5_S5_RS3_St17integral_constantIbLb1EE: # @_ZNSt6vectorIPN12ILLIXR_AUDIO5SoundESaIS2_EE14_S_do_relocateEPS2_S5_S5_RS3_St17integral_constantIbLb1EE
.Lfunc_begin52:
	.loc	12 452 0                # /usr/lib/gcc/x86_64-linux-gnu/9/../../../../include/c++/9/bits/stl_vector.h:452:0
	.cfi_startproc
# %bb.0:
	#DEBUG_VALUE: _S_do_relocate:__first <- %rdi
	#DEBUG_VALUE: _S_do_relocate:__first <- %rdi
	#DEBUG_VALUE: _S_do_relocate:__first <- %rdi
	#DEBUG_VALUE: _S_do_relocate:__last <- %rsi
	#DEBUG_VALUE: _S_do_relocate:__last <- %rsi
	#DEBUG_VALUE: _S_do_relocate:__last <- %rsi
	#DEBUG_VALUE: _S_do_relocate:__result <- %rdx
	#DEBUG_VALUE: _S_do_relocate:__result <- %rdx
	#DEBUG_VALUE: _S_do_relocate:__result <- %rdx
	#DEBUG_VALUE: _S_do_relocate:__alloc <- %rcx
	#DEBUG_VALUE: _S_do_relocate:__alloc <- %rcx
	#DEBUG_VALUE: _S_do_relocate:__alloc <- %rcx
	.loc	12 453 9 prologue_end   # /usr/lib/gcc/x86_64-linux-gnu/9/../../../../include/c++/9/bits/stl_vector.h:453:9
	jmp	_ZSt12__relocate_aIPPN12ILLIXR_AUDIO5SoundES3_SaIS2_EET0_T_S6_S5_RT1_ # TAILCALL
.Ltmp266:
.Lfunc_end52:
	.size	_ZNSt6vectorIPN12ILLIXR_AUDIO5SoundESaIS2_EE14_S_do_relocateEPS2_S5_S5_RS3_St17integral_constantIbLb1EE, .Lfunc_end52-_ZNSt6vectorIPN12ILLIXR_AUDIO5SoundESaIS2_EE14_S_do_relocateEPS2_S5_S5_RS3_St17integral_constantIbLb1EE
	.cfi_endproc
                                        # -- End function
	.section	.text._ZSt12__relocate_aIPPN12ILLIXR_AUDIO5SoundES3_SaIS2_EET0_T_S6_S5_RT1_,"axG",@progbits,_ZSt12__relocate_aIPPN12ILLIXR_AUDIO5SoundES3_SaIS2_EET0_T_S6_S5_RT1_,comdat
	.weak	_ZSt12__relocate_aIPPN12ILLIXR_AUDIO5SoundES3_SaIS2_EET0_T_S6_S5_RT1_ # -- Begin function _ZSt12__relocate_aIPPN12ILLIXR_AUDIO5SoundES3_SaIS2_EET0_T_S6_S5_RT1_
	.p2align	4, 0x90
	.type	_ZSt12__relocate_aIPPN12ILLIXR_AUDIO5SoundES3_SaIS2_EET0_T_S6_S5_RT1_,@function
_ZSt12__relocate_aIPPN12ILLIXR_AUDIO5SoundES3_SaIS2_EET0_T_S6_S5_RT1_: # @_ZSt12__relocate_aIPPN12ILLIXR_AUDIO5SoundES3_SaIS2_EET0_T_S6_S5_RT1_
.Lfunc_begin53:
	.file	64 "/usr/lib/gcc/x86_64-linux-gnu/9/../../../../include/c++/9/bits/stl_uninitialized.h"
	.loc	64 963 0                # /usr/lib/gcc/x86_64-linux-gnu/9/../../../../include/c++/9/bits/stl_uninitialized.h:963:0
	.cfi_startproc
# %bb.0:
	pushq	%r15
	.cfi_def_cfa_offset 16
	pushq	%r14
	.cfi_def_cfa_offset 24
	pushq	%r12
	.cfi_def_cfa_offset 32
	pushq	%rbx
	.cfi_def_cfa_offset 40
	pushq	%rax
	.cfi_def_cfa_offset 48
	.cfi_offset %rbx, -40
	.cfi_offset %r12, -32
	.cfi_offset %r14, -24
	.cfi_offset %r15, -16
	#DEBUG_VALUE: __relocate_a<ILLIXR_AUDIO::Sound **, ILLIXR_AUDIO::Sound **, std::allocator<ILLIXR_AUDIO::Sound *> >:__first <- %rdi
	#DEBUG_VALUE: __relocate_a<ILLIXR_AUDIO::Sound **, ILLIXR_AUDIO::Sound **, std::allocator<ILLIXR_AUDIO::Sound *> >:__last <- %rsi
	#DEBUG_VALUE: __relocate_a<ILLIXR_AUDIO::Sound **, ILLIXR_AUDIO::Sound **, std::allocator<ILLIXR_AUDIO::Sound *> >:__result <- %rdx
	#DEBUG_VALUE: __relocate_a<ILLIXR_AUDIO::Sound **, ILLIXR_AUDIO::Sound **, std::allocator<ILLIXR_AUDIO::Sound *> >:__alloc <- %rcx
	movq	%rcx, %r14
	movq	%rdx, %r15
	movq	%rsi, %rbx
.Ltmp267:
	#DEBUG_VALUE: __relocate_a<ILLIXR_AUDIO::Sound **, ILLIXR_AUDIO::Sound **, std::allocator<ILLIXR_AUDIO::Sound *> >:__alloc <- %r14
	#DEBUG_VALUE: __relocate_a<ILLIXR_AUDIO::Sound **, ILLIXR_AUDIO::Sound **, std::allocator<ILLIXR_AUDIO::Sound *> >:__result <- %r15
	#DEBUG_VALUE: __relocate_a<ILLIXR_AUDIO::Sound **, ILLIXR_AUDIO::Sound **, std::allocator<ILLIXR_AUDIO::Sound *> >:__last <- %rbx
	#DEBUG_VALUE: __relocate_a<ILLIXR_AUDIO::Sound **, ILLIXR_AUDIO::Sound **, std::allocator<ILLIXR_AUDIO::Sound *> >:__first <- %rdi
	#DEBUG_VALUE: __relocate_a<ILLIXR_AUDIO::Sound **, ILLIXR_AUDIO::Sound **, std::allocator<ILLIXR_AUDIO::Sound *> >:__first <- %rdi
	.loc	64 964 29 prologue_end  # /usr/lib/gcc/x86_64-linux-gnu/9/../../../../include/c++/9/bits/stl_uninitialized.h:964:29
	callq	_ZSt12__niter_baseIPPN12ILLIXR_AUDIO5SoundEET_S4_
.Ltmp268:
	movq	%rax, %r12
	.loc	64 965 8                # /usr/lib/gcc/x86_64-linux-gnu/9/../../../../include/c++/9/bits/stl_uninitialized.h:965:8
	movq	%rbx, %rdi
.Ltmp269:
	#DEBUG_VALUE: __relocate_a<ILLIXR_AUDIO::Sound **, ILLIXR_AUDIO::Sound **, std::allocator<ILLIXR_AUDIO::Sound *> >:__last <- %rdi
	callq	_ZSt12__niter_baseIPPN12ILLIXR_AUDIO5SoundEET_S4_
.Ltmp270:
	movq	%rax, %rbx
	.loc	64 966 8                # /usr/lib/gcc/x86_64-linux-gnu/9/../../../../include/c++/9/bits/stl_uninitialized.h:966:8
	movq	%r15, %rdi
.Ltmp271:
	#DEBUG_VALUE: __relocate_a<ILLIXR_AUDIO::Sound **, ILLIXR_AUDIO::Sound **, std::allocator<ILLIXR_AUDIO::Sound *> >:__result <- %rdi
	callq	_ZSt12__niter_baseIPPN12ILLIXR_AUDIO5SoundEET_S4_
.Ltmp272:
	.loc	64 964 14               # /usr/lib/gcc/x86_64-linux-gnu/9/../../../../include/c++/9/bits/stl_uninitialized.h:964:14
	movq	%r12, %rdi
	movq	%rbx, %rsi
	movq	%rax, %rdx
	movq	%r14, %rcx
.Ltmp273:
	#DEBUG_VALUE: __relocate_a<ILLIXR_AUDIO::Sound **, ILLIXR_AUDIO::Sound **, std::allocator<ILLIXR_AUDIO::Sound *> >:__alloc <- %rcx
	addq	$8, %rsp
	popq	%rbx
	popq	%r12
	popq	%r14
	popq	%r15
	jmp	_ZSt14__relocate_a_1IPN12ILLIXR_AUDIO5SoundES2_ENSt9enable_ifIXsr3std24__is_bitwise_relocatableIT_EE5valueEPS4_E4typeES5_S5_S5_RSaIT0_E # TAILCALL
.Ltmp274:
.Lfunc_end53:
	.size	_ZSt12__relocate_aIPPN12ILLIXR_AUDIO5SoundES3_SaIS2_EET0_T_S6_S5_RT1_, .Lfunc_end53-_ZSt12__relocate_aIPPN12ILLIXR_AUDIO5SoundES3_SaIS2_EET0_T_S6_S5_RT1_
	.cfi_endproc
                                        # -- End function
	.section	.text._ZSt12__niter_baseIPPN12ILLIXR_AUDIO5SoundEET_S4_,"axG",@progbits,_ZSt12__niter_baseIPPN12ILLIXR_AUDIO5SoundEET_S4_,comdat
	.weak	_ZSt12__niter_baseIPPN12ILLIXR_AUDIO5SoundEET_S4_ # -- Begin function _ZSt12__niter_baseIPPN12ILLIXR_AUDIO5SoundEET_S4_
	.p2align	4, 0x90
	.type	_ZSt12__niter_baseIPPN12ILLIXR_AUDIO5SoundEET_S4_,@function
_ZSt12__niter_baseIPPN12ILLIXR_AUDIO5SoundEET_S4_: # @_ZSt12__niter_baseIPPN12ILLIXR_AUDIO5SoundEET_S4_
.Lfunc_begin54:
	.file	65 "/usr/lib/gcc/x86_64-linux-gnu/9/../../../../include/c++/9/bits/stl_algobase.h"
	.loc	65 282 0                # /usr/lib/gcc/x86_64-linux-gnu/9/../../../../include/c++/9/bits/stl_algobase.h:282:0
	.cfi_startproc
# %bb.0:
	#DEBUG_VALUE: __niter_base<ILLIXR_AUDIO::Sound **>:__it <- %rdi
	#DEBUG_VALUE: __niter_base<ILLIXR_AUDIO::Sound **>:__it <- %rdi
	.loc	65 282 7 prologue_end   # /usr/lib/gcc/x86_64-linux-gnu/9/../../../../include/c++/9/bits/stl_algobase.h:282:7
	movq	%rdi, %rax
.Ltmp275:
	#DEBUG_VALUE: __niter_base<ILLIXR_AUDIO::Sound **>:__it <- %rax
	retq
.Ltmp276:
.Lfunc_end54:
	.size	_ZSt12__niter_baseIPPN12ILLIXR_AUDIO5SoundEET_S4_, .Lfunc_end54-_ZSt12__niter_baseIPPN12ILLIXR_AUDIO5SoundEET_S4_
	.cfi_endproc
                                        # -- End function
	.section	.text._ZSt14__relocate_a_1IPN12ILLIXR_AUDIO5SoundES2_ENSt9enable_ifIXsr3std24__is_bitwise_relocatableIT_EE5valueEPS4_E4typeES5_S5_S5_RSaIT0_E,"axG",@progbits,_ZSt14__relocate_a_1IPN12ILLIXR_AUDIO5SoundES2_ENSt9enable_ifIXsr3std24__is_bitwise_relocatableIT_EE5valueEPS4_E4typeES5_S5_S5_RSaIT0_E,comdat
	.weak	_ZSt14__relocate_a_1IPN12ILLIXR_AUDIO5SoundES2_ENSt9enable_ifIXsr3std24__is_bitwise_relocatableIT_EE5valueEPS4_E4typeES5_S5_S5_RSaIT0_E # -- Begin function _ZSt14__relocate_a_1IPN12ILLIXR_AUDIO5SoundES2_ENSt9enable_ifIXsr3std24__is_bitwise_relocatableIT_EE5valueEPS4_E4typeES5_S5_S5_RSaIT0_E
	.p2align	4, 0x90
	.type	_ZSt14__relocate_a_1IPN12ILLIXR_AUDIO5SoundES2_ENSt9enable_ifIXsr3std24__is_bitwise_relocatableIT_EE5valueEPS4_E4typeES5_S5_S5_RSaIT0_E,@function
_ZSt14__relocate_a_1IPN12ILLIXR_AUDIO5SoundES2_ENSt9enable_ifIXsr3std24__is_bitwise_relocatableIT_EE5valueEPS4_E4typeES5_S5_S5_RSaIT0_E: # @_ZSt14__relocate_a_1IPN12ILLIXR_AUDIO5SoundES2_ENSt9enable_ifIXsr3std24__is_bitwise_relocatableIT_EE5valueEPS4_E4typeES5_S5_S5_RSaIT0_E
.Lfunc_begin55:
	.loc	64 926 0                # /usr/lib/gcc/x86_64-linux-gnu/9/../../../../include/c++/9/bits/stl_uninitialized.h:926:0
	.cfi_startproc
# %bb.0:
	pushq	%r14
	.cfi_def_cfa_offset 16
	pushq	%rbx
	.cfi_def_cfa_offset 24
	pushq	%rax
	.cfi_def_cfa_offset 32
	.cfi_offset %rbx, -24
	.cfi_offset %r14, -16
	#DEBUG_VALUE: __relocate_a_1<ILLIXR_AUDIO::Sound *, ILLIXR_AUDIO::Sound *>:__first <- %rdi
	#DEBUG_VALUE: __relocate_a_1<ILLIXR_AUDIO::Sound *, ILLIXR_AUDIO::Sound *>:__last <- %rsi
	#DEBUG_VALUE: __relocate_a_1<ILLIXR_AUDIO::Sound *, ILLIXR_AUDIO::Sound *>:__result <- %rdx
	#DEBUG_VALUE: __relocate_a_1<ILLIXR_AUDIO::Sound *, ILLIXR_AUDIO::Sound *>: <- %rcx
	movq	%rdx, %r14
	movq	%rsi, %rax
	movq	%rdi, %rcx
.Ltmp277:
	#DEBUG_VALUE: __relocate_a_1<ILLIXR_AUDIO::Sound *, ILLIXR_AUDIO::Sound *>:__result <- %r14
	#DEBUG_VALUE: __relocate_a_1<ILLIXR_AUDIO::Sound *, ILLIXR_AUDIO::Sound *>:__last <- %rax
	#DEBUG_VALUE: __relocate_a_1<ILLIXR_AUDIO::Sound *, ILLIXR_AUDIO::Sound *>:__first <- %rcx
	.loc	64 927 34 prologue_end  # /usr/lib/gcc/x86_64-linux-gnu/9/../../../../include/c++/9/bits/stl_uninitialized.h:927:34
	subq	%rcx, %rax
.Ltmp278:
	movq	%rax, %rbx
	sarq	$3, %rbx
.Ltmp279:
	#DEBUG_VALUE: __relocate_a_1<ILLIXR_AUDIO::Sound *, ILLIXR_AUDIO::Sound *>:__count <- %rbx
	.loc	64 928 19               # /usr/lib/gcc/x86_64-linux-gnu/9/../../../../include/c++/9/bits/stl_uninitialized.h:928:19
	testq	%rax, %rax
.Ltmp280:
	.loc	64 928 11 is_stmt 0     # /usr/lib/gcc/x86_64-linux-gnu/9/../../../../include/c++/9/bits/stl_uninitialized.h:928:11
	jle	.LBB55_2
.Ltmp281:
# %bb.1:
	#DEBUG_VALUE: __relocate_a_1<ILLIXR_AUDIO::Sound *, ILLIXR_AUDIO::Sound *>:__count <- %rbx
	#DEBUG_VALUE: __relocate_a_1<ILLIXR_AUDIO::Sound *, ILLIXR_AUDIO::Sound *>:__first <- %rcx
	#DEBUG_VALUE: __relocate_a_1<ILLIXR_AUDIO::Sound *, ILLIXR_AUDIO::Sound *>:__result <- %r14
	.loc	64 929 2 is_stmt 1      # /usr/lib/gcc/x86_64-linux-gnu/9/../../../../include/c++/9/bits/stl_uninitialized.h:929:2
	movq	%r14, %rdi
	movq	%rcx, %rsi
	movq	%rax, %rdx
	callq	memmove
.Ltmp282:
.LBB55_2:
	#DEBUG_VALUE: __relocate_a_1<ILLIXR_AUDIO::Sound *, ILLIXR_AUDIO::Sound *>:__count <- %rbx
	#DEBUG_VALUE: __relocate_a_1<ILLIXR_AUDIO::Sound *, ILLIXR_AUDIO::Sound *>:__result <- %r14
	.loc	64 930 23               # /usr/lib/gcc/x86_64-linux-gnu/9/../../../../include/c++/9/bits/stl_uninitialized.h:930:23
	leaq	(%r14,%rbx,8), %rax
	.loc	64 930 7 is_stmt 0      # /usr/lib/gcc/x86_64-linux-gnu/9/../../../../include/c++/9/bits/stl_uninitialized.h:930:7
	addq	$8, %rsp
	popq	%rbx
.Ltmp283:
	popq	%r14
.Ltmp284:
	retq
.Ltmp285:
.Lfunc_end55:
	.size	_ZSt14__relocate_a_1IPN12ILLIXR_AUDIO5SoundES2_ENSt9enable_ifIXsr3std24__is_bitwise_relocatableIT_EE5valueEPS4_E4typeES5_S5_S5_RSaIT0_E, .Lfunc_end55-_ZSt14__relocate_a_1IPN12ILLIXR_AUDIO5SoundES2_ENSt9enable_ifIXsr3std24__is_bitwise_relocatableIT_EE5valueEPS4_E4typeES5_S5_S5_RSaIT0_E
	.cfi_endproc
                                        # -- End function
	.section	.text._ZNSt16allocator_traitsISaIPN12ILLIXR_AUDIO5SoundEEE8allocateERS3_m,"axG",@progbits,_ZNSt16allocator_traitsISaIPN12ILLIXR_AUDIO5SoundEEE8allocateERS3_m,comdat
	.weak	_ZNSt16allocator_traitsISaIPN12ILLIXR_AUDIO5SoundEEE8allocateERS3_m # -- Begin function _ZNSt16allocator_traitsISaIPN12ILLIXR_AUDIO5SoundEEE8allocateERS3_m
	.p2align	4, 0x90
	.type	_ZNSt16allocator_traitsISaIPN12ILLIXR_AUDIO5SoundEEE8allocateERS3_m,@function
_ZNSt16allocator_traitsISaIPN12ILLIXR_AUDIO5SoundEEE8allocateERS3_m: # @_ZNSt16allocator_traitsISaIPN12ILLIXR_AUDIO5SoundEEE8allocateERS3_m
.Lfunc_begin56:
	.loc	2 444 0 is_stmt 1       # /usr/lib/gcc/x86_64-linux-gnu/9/../../../../include/c++/9/bits/alloc_traits.h:444:0
	.cfi_startproc
# %bb.0:
	#DEBUG_VALUE: allocate:__a <- %rdi
	#DEBUG_VALUE: allocate:__a <- %rdi
	#DEBUG_VALUE: allocate:__n <- %rsi
	#DEBUG_VALUE: allocate:__n <- %rsi
	.loc	2 444 20 prologue_end   # /usr/lib/gcc/x86_64-linux-gnu/9/../../../../include/c++/9/bits/alloc_traits.h:444:20
	xorl	%edx, %edx
	#DEBUG_VALUE: allocate:__n <- %rsi
	#DEBUG_VALUE: allocate:__a <- %rdi
	jmp	_ZN9__gnu_cxx13new_allocatorIPN12ILLIXR_AUDIO5SoundEE8allocateEmPKv # TAILCALL
.Ltmp286:
.Lfunc_end56:
	.size	_ZNSt16allocator_traitsISaIPN12ILLIXR_AUDIO5SoundEEE8allocateERS3_m, .Lfunc_end56-_ZNSt16allocator_traitsISaIPN12ILLIXR_AUDIO5SoundEEE8allocateERS3_m
	.cfi_endproc
                                        # -- End function
	.section	.text._ZN9__gnu_cxx13new_allocatorIPN12ILLIXR_AUDIO5SoundEE8allocateEmPKv,"axG",@progbits,_ZN9__gnu_cxx13new_allocatorIPN12ILLIXR_AUDIO5SoundEE8allocateEmPKv,comdat
	.weak	_ZN9__gnu_cxx13new_allocatorIPN12ILLIXR_AUDIO5SoundEE8allocateEmPKv # -- Begin function _ZN9__gnu_cxx13new_allocatorIPN12ILLIXR_AUDIO5SoundEE8allocateEmPKv
	.p2align	4, 0x90
	.type	_ZN9__gnu_cxx13new_allocatorIPN12ILLIXR_AUDIO5SoundEE8allocateEmPKv,@function
_ZN9__gnu_cxx13new_allocatorIPN12ILLIXR_AUDIO5SoundEE8allocateEmPKv: # @_ZN9__gnu_cxx13new_allocatorIPN12ILLIXR_AUDIO5SoundEE8allocateEmPKv
.Lfunc_begin57:
	.loc	7 103 0                 # /usr/lib/gcc/x86_64-linux-gnu/9/../../../../include/c++/9/ext/new_allocator.h:103:0
	.cfi_startproc
# %bb.0:
	pushq	%rbx
	.cfi_def_cfa_offset 16
	.cfi_offset %rbx, -16
	#DEBUG_VALUE: allocate:this <- %rdi
	#DEBUG_VALUE: allocate:__n <- %rsi
	#DEBUG_VALUE: allocate: <- %rdx
	movq	%rsi, %rbx
.Ltmp287:
	#DEBUG_VALUE: allocate:__n <- %rbx
	#DEBUG_VALUE: allocate:this <- %rdi
	#DEBUG_VALUE: allocate:this <- %rdi
	.loc	7 104 18 prologue_end   # /usr/lib/gcc/x86_64-linux-gnu/9/../../../../include/c++/9/ext/new_allocator.h:104:18
	callq	_ZNK9__gnu_cxx13new_allocatorIPN12ILLIXR_AUDIO5SoundEE8max_sizeEv
.Ltmp288:
	.loc	7 104 10 is_stmt 0      # /usr/lib/gcc/x86_64-linux-gnu/9/../../../../include/c++/9/ext/new_allocator.h:104:10
	cmpq	%rbx, %rax
.Ltmp289:
	.loc	7 104 6                 # /usr/lib/gcc/x86_64-linux-gnu/9/../../../../include/c++/9/ext/new_allocator.h:104:6
	jb	.LBB57_1
.Ltmp290:
# %bb.2:
	#DEBUG_VALUE: allocate:__n <- %rbx
	.loc	7 114 46 is_stmt 1      # /usr/lib/gcc/x86_64-linux-gnu/9/../../../../include/c++/9/ext/new_allocator.h:114:46
	shlq	$3, %rbx
.Ltmp291:
	.loc	7 114 27 is_stmt 0      # /usr/lib/gcc/x86_64-linux-gnu/9/../../../../include/c++/9/ext/new_allocator.h:114:27
	movq	%rbx, %rdi
	popq	%rbx
	jmp	_Znwm                   # TAILCALL
.LBB57_1:
.Ltmp292:
	#DEBUG_VALUE: allocate:__n <- %rbx
	.loc	7 105 4 is_stmt 1       # /usr/lib/gcc/x86_64-linux-gnu/9/../../../../include/c++/9/ext/new_allocator.h:105:4
	callq	_ZSt17__throw_bad_allocv
.Ltmp293:
.Lfunc_end57:
	.size	_ZN9__gnu_cxx13new_allocatorIPN12ILLIXR_AUDIO5SoundEE8allocateEmPKv, .Lfunc_end57-_ZN9__gnu_cxx13new_allocatorIPN12ILLIXR_AUDIO5SoundEE8allocateEmPKv
	.cfi_endproc
                                        # -- End function
	.section	.text._ZNK9__gnu_cxx13new_allocatorIPN12ILLIXR_AUDIO5SoundEE8max_sizeEv,"axG",@progbits,_ZNK9__gnu_cxx13new_allocatorIPN12ILLIXR_AUDIO5SoundEE8max_sizeEv,comdat
	.weak	_ZNK9__gnu_cxx13new_allocatorIPN12ILLIXR_AUDIO5SoundEE8max_sizeEv # -- Begin function _ZNK9__gnu_cxx13new_allocatorIPN12ILLIXR_AUDIO5SoundEE8max_sizeEv
	.p2align	4, 0x90
	.type	_ZNK9__gnu_cxx13new_allocatorIPN12ILLIXR_AUDIO5SoundEE8max_sizeEv,@function
_ZNK9__gnu_cxx13new_allocatorIPN12ILLIXR_AUDIO5SoundEE8max_sizeEv: # @_ZNK9__gnu_cxx13new_allocatorIPN12ILLIXR_AUDIO5SoundEE8max_sizeEv
.Lfunc_begin58:
	.loc	7 133 0                 # /usr/lib/gcc/x86_64-linux-gnu/9/../../../../include/c++/9/ext/new_allocator.h:133:0
	.cfi_startproc
# %bb.0:
	#DEBUG_VALUE: max_size:this <- %rdi
	.loc	7 135 2 prologue_end    # /usr/lib/gcc/x86_64-linux-gnu/9/../../../../include/c++/9/ext/new_allocator.h:135:2
	movabsq	$1152921504606846975, %rax # imm = 0xFFFFFFFFFFFFFFF
	retq
.Ltmp294:
.Lfunc_end58:
	.size	_ZNK9__gnu_cxx13new_allocatorIPN12ILLIXR_AUDIO5SoundEE8max_sizeEv, .Lfunc_end58-_ZNK9__gnu_cxx13new_allocatorIPN12ILLIXR_AUDIO5SoundEE8max_sizeEv
	.cfi_endproc
                                        # -- End function
	.section	.text._ZN9__gnu_cxx17__normal_iteratorIPPN12ILLIXR_AUDIO5SoundESt6vectorIS3_SaIS3_EEEC2ERKS4_,"axG",@progbits,_ZN9__gnu_cxx17__normal_iteratorIPPN12ILLIXR_AUDIO5SoundESt6vectorIS3_SaIS3_EEEC2ERKS4_,comdat
	.weak	_ZN9__gnu_cxx17__normal_iteratorIPPN12ILLIXR_AUDIO5SoundESt6vectorIS3_SaIS3_EEEC2ERKS4_ # -- Begin function _ZN9__gnu_cxx17__normal_iteratorIPPN12ILLIXR_AUDIO5SoundESt6vectorIS3_SaIS3_EEEC2ERKS4_
	.p2align	4, 0x90
	.type	_ZN9__gnu_cxx17__normal_iteratorIPPN12ILLIXR_AUDIO5SoundESt6vectorIS3_SaIS3_EEEC2ERKS4_,@function
_ZN9__gnu_cxx17__normal_iteratorIPPN12ILLIXR_AUDIO5SoundESt6vectorIS3_SaIS3_EEEC2ERKS4_: # @_ZN9__gnu_cxx17__normal_iteratorIPPN12ILLIXR_AUDIO5SoundESt6vectorIS3_SaIS3_EEEC2ERKS4_
.Lfunc_begin59:
	.loc	14 807 0                # /usr/lib/gcc/x86_64-linux-gnu/9/../../../../include/c++/9/bits/stl_iterator.h:807:0
	.cfi_startproc
# %bb.0:
	#DEBUG_VALUE: __normal_iterator:this <- %rdi
	#DEBUG_VALUE: __normal_iterator:this <- %rdi
	#DEBUG_VALUE: __normal_iterator:__i <- %rsi
	#DEBUG_VALUE: __normal_iterator:__i <- %rsi
	.loc	14 807 20 prologue_end  # /usr/lib/gcc/x86_64-linux-gnu/9/../../../../include/c++/9/bits/stl_iterator.h:807:20
	movq	(%rsi), %rax
	.loc	14 807 9 is_stmt 0      # /usr/lib/gcc/x86_64-linux-gnu/9/../../../../include/c++/9/bits/stl_iterator.h:807:9
	movq	%rax, (%rdi)
	.loc	14 807 27               # /usr/lib/gcc/x86_64-linux-gnu/9/../../../../include/c++/9/bits/stl_iterator.h:807:27
	retq
.Ltmp295:
.Lfunc_end59:
	.size	_ZN9__gnu_cxx17__normal_iteratorIPPN12ILLIXR_AUDIO5SoundESt6vectorIS3_SaIS3_EEEC2ERKS4_, .Lfunc_end59-_ZN9__gnu_cxx17__normal_iteratorIPPN12ILLIXR_AUDIO5SoundESt6vectorIS3_SaIS3_EEEC2ERKS4_
	.cfi_endproc
                                        # -- End function
	.section	.text._ZNKSt6vectorIPN12ILLIXR_AUDIO5SoundESaIS2_EE8max_sizeEv,"axG",@progbits,_ZNKSt6vectorIPN12ILLIXR_AUDIO5SoundESaIS2_EE8max_sizeEv,comdat
	.weak	_ZNKSt6vectorIPN12ILLIXR_AUDIO5SoundESaIS2_EE8max_sizeEv # -- Begin function _ZNKSt6vectorIPN12ILLIXR_AUDIO5SoundESaIS2_EE8max_sizeEv
	.p2align	4, 0x90
	.type	_ZNKSt6vectorIPN12ILLIXR_AUDIO5SoundESaIS2_EE8max_sizeEv,@function
_ZNKSt6vectorIPN12ILLIXR_AUDIO5SoundESaIS2_EE8max_sizeEv: # @_ZNKSt6vectorIPN12ILLIXR_AUDIO5SoundESaIS2_EE8max_sizeEv
.Lfunc_begin60:
	.loc	12 921 0 is_stmt 1      # /usr/lib/gcc/x86_64-linux-gnu/9/../../../../include/c++/9/bits/stl_vector.h:921:0
	.cfi_startproc
# %bb.0:
	.loc	12 921 28 prologue_end  # /usr/lib/gcc/x86_64-linux-gnu/9/../../../../include/c++/9/bits/stl_vector.h:921:28
	pushq	%rax
	.cfi_def_cfa_offset 16
	#DEBUG_VALUE: max_size:this <- %rdi
	#DEBUG_VALUE: max_size:this <- %rdi
	#DEBUG_VALUE: max_size:this <- %rdi
	callq	_ZNKSt12_Vector_baseIPN12ILLIXR_AUDIO5SoundESaIS2_EE19_M_get_Tp_allocatorEv
.Ltmp296:
	.loc	12 921 16 is_stmt 0     # /usr/lib/gcc/x86_64-linux-gnu/9/../../../../include/c++/9/bits/stl_vector.h:921:16
	movq	%rax, %rdi
	popq	%rax
	jmp	_ZNSt6vectorIPN12ILLIXR_AUDIO5SoundESaIS2_EE11_S_max_sizeERKS3_ # TAILCALL
.Ltmp297:
.Lfunc_end60:
	.size	_ZNKSt6vectorIPN12ILLIXR_AUDIO5SoundESaIS2_EE8max_sizeEv, .Lfunc_end60-_ZNKSt6vectorIPN12ILLIXR_AUDIO5SoundESaIS2_EE8max_sizeEv
	.cfi_endproc
                                        # -- End function
	.section	.text._ZSt3maxImERKT_S2_S2_,"axG",@progbits,_ZSt3maxImERKT_S2_S2_,comdat
	.weak	_ZSt3maxImERKT_S2_S2_   # -- Begin function _ZSt3maxImERKT_S2_S2_
	.p2align	4, 0x90
	.type	_ZSt3maxImERKT_S2_S2_,@function
_ZSt3maxImERKT_S2_S2_:                  # @_ZSt3maxImERKT_S2_S2_
.Lfunc_begin61:
	.loc	65 223 0 is_stmt 1      # /usr/lib/gcc/x86_64-linux-gnu/9/../../../../include/c++/9/bits/stl_algobase.h:223:0
	.cfi_startproc
# %bb.0:
	#DEBUG_VALUE: max<unsigned long>:__a <- %rdi
	#DEBUG_VALUE: max<unsigned long>:__a <- %rdi
	#DEBUG_VALUE: max<unsigned long>:__b <- %rsi
	#DEBUG_VALUE: max<unsigned long>:__b <- %rsi
	.loc	65 227 11 prologue_end  # /usr/lib/gcc/x86_64-linux-gnu/9/../../../../include/c++/9/bits/stl_algobase.h:227:11
	movq	(%rdi), %rax
	.loc	65 227 15 is_stmt 0     # /usr/lib/gcc/x86_64-linux-gnu/9/../../../../include/c++/9/bits/stl_algobase.h:227:15
	cmpq	(%rsi), %rax
	.loc	65 228 2 is_stmt 1      # /usr/lib/gcc/x86_64-linux-gnu/9/../../../../include/c++/9/bits/stl_algobase.h:228:2
	cmovbq	%rsi, %rdi
.Ltmp298:
	.loc	65 230 5                # /usr/lib/gcc/x86_64-linux-gnu/9/../../../../include/c++/9/bits/stl_algobase.h:230:5
	movq	%rdi, %rax
	retq
.Ltmp299:
.Lfunc_end61:
	.size	_ZSt3maxImERKT_S2_S2_, .Lfunc_end61-_ZSt3maxImERKT_S2_S2_
	.cfi_endproc
                                        # -- End function
	.section	.text._ZNKSt12_Vector_baseIPN12ILLIXR_AUDIO5SoundESaIS2_EE19_M_get_Tp_allocatorEv,"axG",@progbits,_ZNKSt12_Vector_baseIPN12ILLIXR_AUDIO5SoundESaIS2_EE19_M_get_Tp_allocatorEv,comdat
	.weak	_ZNKSt12_Vector_baseIPN12ILLIXR_AUDIO5SoundESaIS2_EE19_M_get_Tp_allocatorEv # -- Begin function _ZNKSt12_Vector_baseIPN12ILLIXR_AUDIO5SoundESaIS2_EE19_M_get_Tp_allocatorEv
	.p2align	4, 0x90
	.type	_ZNKSt12_Vector_baseIPN12ILLIXR_AUDIO5SoundESaIS2_EE19_M_get_Tp_allocatorEv,@function
_ZNKSt12_Vector_baseIPN12ILLIXR_AUDIO5SoundESaIS2_EE19_M_get_Tp_allocatorEv: # @_ZNKSt12_Vector_baseIPN12ILLIXR_AUDIO5SoundESaIS2_EE19_M_get_Tp_allocatorEv
.Lfunc_begin62:
	.loc	12 278 0                # /usr/lib/gcc/x86_64-linux-gnu/9/../../../../include/c++/9/bits/stl_vector.h:278:0
	.cfi_startproc
# %bb.0:
	#DEBUG_VALUE: _M_get_Tp_allocator:this <- %rdi
	#DEBUG_VALUE: _M_get_Tp_allocator:this <- %rdi
	.loc	12 278 9 prologue_end   # /usr/lib/gcc/x86_64-linux-gnu/9/../../../../include/c++/9/bits/stl_vector.h:278:9
	movq	%rdi, %rax
.Ltmp300:
	#DEBUG_VALUE: _M_get_Tp_allocator:this <- %rax
	retq
.Ltmp301:
.Lfunc_end62:
	.size	_ZNKSt12_Vector_baseIPN12ILLIXR_AUDIO5SoundESaIS2_EE19_M_get_Tp_allocatorEv, .Lfunc_end62-_ZNKSt12_Vector_baseIPN12ILLIXR_AUDIO5SoundESaIS2_EE19_M_get_Tp_allocatorEv
	.cfi_endproc
                                        # -- End function
	.section	.text._ZNSt6vectorIPN12ILLIXR_AUDIO5SoundESaIS2_EE11_S_max_sizeERKS3_,"axG",@progbits,_ZNSt6vectorIPN12ILLIXR_AUDIO5SoundESaIS2_EE11_S_max_sizeERKS3_,comdat
	.weak	_ZNSt6vectorIPN12ILLIXR_AUDIO5SoundESaIS2_EE11_S_max_sizeERKS3_ # -- Begin function _ZNSt6vectorIPN12ILLIXR_AUDIO5SoundESaIS2_EE11_S_max_sizeERKS3_
	.p2align	4, 0x90
	.type	_ZNSt6vectorIPN12ILLIXR_AUDIO5SoundESaIS2_EE11_S_max_sizeERKS3_,@function
_ZNSt6vectorIPN12ILLIXR_AUDIO5SoundESaIS2_EE11_S_max_sizeERKS3_: # @_ZNSt6vectorIPN12ILLIXR_AUDIO5SoundESaIS2_EE11_S_max_sizeERKS3_
.Lfunc_begin63:
	.loc	12 1774 0               # /usr/lib/gcc/x86_64-linux-gnu/9/../../../../include/c++/9/bits/stl_vector.h:1774:0
	.cfi_startproc
# %bb.0:
	.loc	12 1778 15 prologue_end # /usr/lib/gcc/x86_64-linux-gnu/9/../../../../include/c++/9/bits/stl_vector.h:1778:15
	subq	$24, %rsp
	.cfi_def_cfa_offset 32
	#DEBUG_VALUE: _S_max_size:__a <- %rdi
	#DEBUG_VALUE: _S_max_size:__a <- %rdi
	movabsq	$1152921504606846975, %rax # imm = 0xFFFFFFFFFFFFFFF
.Ltmp302:
	#DEBUG_VALUE: _S_max_size:__diffmax <- 1152921504606846975
	movq	%rax, 16(%rsp)
	#DEBUG_VALUE: _S_max_size:__a <- %rdi
	.loc	12 1780 28              # /usr/lib/gcc/x86_64-linux-gnu/9/../../../../include/c++/9/bits/stl_vector.h:1780:28
	callq	_ZNSt16allocator_traitsISaIPN12ILLIXR_AUDIO5SoundEEE8max_sizeERKS3_
.Ltmp303:
	#DEBUG_VALUE: _S_max_size:__allocmax <- %rax
	.loc	12 1780 15 is_stmt 0    # /usr/lib/gcc/x86_64-linux-gnu/9/../../../../include/c++/9/bits/stl_vector.h:1780:15
	movq	%rax, 8(%rsp)
	leaq	16(%rsp), %rdi
.Ltmp304:
	#DEBUG_VALUE: _S_max_size:__diffmax <- [DW_OP_plus_uconst 16] [%rsp+0]
	.loc	12 0 15                 # /usr/lib/gcc/x86_64-linux-gnu/9/../../../../include/c++/9/bits/stl_vector.h:0:15
	leaq	8(%rsp), %rsi
.Ltmp305:
	#DEBUG_VALUE: _S_max_size:__allocmax <- [DW_OP_plus_uconst 8] [%rsp+0]
	.loc	12 1781 9 is_stmt 1     # /usr/lib/gcc/x86_64-linux-gnu/9/../../../../include/c++/9/bits/stl_vector.h:1781:9
	callq	_ZSt3minImERKT_S2_S2_
	movq	(%rax), %rax
	.loc	12 1781 2 is_stmt 0     # /usr/lib/gcc/x86_64-linux-gnu/9/../../../../include/c++/9/bits/stl_vector.h:1781:2
	addq	$24, %rsp
.Ltmp306:
	retq
.Ltmp307:
.Lfunc_end63:
	.size	_ZNSt6vectorIPN12ILLIXR_AUDIO5SoundESaIS2_EE11_S_max_sizeERKS3_, .Lfunc_end63-_ZNSt6vectorIPN12ILLIXR_AUDIO5SoundESaIS2_EE11_S_max_sizeERKS3_
	.cfi_endproc
                                        # -- End function
	.section	.text._ZNSt16allocator_traitsISaIPN12ILLIXR_AUDIO5SoundEEE8max_sizeERKS3_,"axG",@progbits,_ZNSt16allocator_traitsISaIPN12ILLIXR_AUDIO5SoundEEE8max_sizeERKS3_,comdat
	.weak	_ZNSt16allocator_traitsISaIPN12ILLIXR_AUDIO5SoundEEE8max_sizeERKS3_ # -- Begin function _ZNSt16allocator_traitsISaIPN12ILLIXR_AUDIO5SoundEEE8max_sizeERKS3_
	.p2align	4, 0x90
	.type	_ZNSt16allocator_traitsISaIPN12ILLIXR_AUDIO5SoundEEE8max_sizeERKS3_,@function
_ZNSt16allocator_traitsISaIPN12ILLIXR_AUDIO5SoundEEE8max_sizeERKS3_: # @_ZNSt16allocator_traitsISaIPN12ILLIXR_AUDIO5SoundEEE8max_sizeERKS3_
.Lfunc_begin64:
	.loc	2 506 0 is_stmt 1       # /usr/lib/gcc/x86_64-linux-gnu/9/../../../../include/c++/9/bits/alloc_traits.h:506:0
	.cfi_startproc
# %bb.0:
	#DEBUG_VALUE: max_size:__a <- %rdi
	#DEBUG_VALUE: max_size:__a <- %rdi
	#DEBUG_VALUE: max_size:__a <- %rdi
	.loc	2 506 20 prologue_end   # /usr/lib/gcc/x86_64-linux-gnu/9/../../../../include/c++/9/bits/alloc_traits.h:506:20
	jmp	_ZNK9__gnu_cxx13new_allocatorIPN12ILLIXR_AUDIO5SoundEE8max_sizeEv # TAILCALL
.Ltmp308:
.Lfunc_end64:
	.size	_ZNSt16allocator_traitsISaIPN12ILLIXR_AUDIO5SoundEEE8max_sizeERKS3_, .Lfunc_end64-_ZNSt16allocator_traitsISaIPN12ILLIXR_AUDIO5SoundEEE8max_sizeERKS3_
	.cfi_endproc
                                        # -- End function
	.section	.text._ZSt3minImERKT_S2_S2_,"axG",@progbits,_ZSt3minImERKT_S2_S2_,comdat
	.weak	_ZSt3minImERKT_S2_S2_   # -- Begin function _ZSt3minImERKT_S2_S2_
	.p2align	4, 0x90
	.type	_ZSt3minImERKT_S2_S2_,@function
_ZSt3minImERKT_S2_S2_:                  # @_ZSt3minImERKT_S2_S2_
.Lfunc_begin65:
	.loc	65 199 0                # /usr/lib/gcc/x86_64-linux-gnu/9/../../../../include/c++/9/bits/stl_algobase.h:199:0
	.cfi_startproc
# %bb.0:
	#DEBUG_VALUE: min<unsigned long>:__a <- %rdi
	#DEBUG_VALUE: min<unsigned long>:__a <- %rdi
	#DEBUG_VALUE: min<unsigned long>:__b <- %rsi
	#DEBUG_VALUE: min<unsigned long>:__b <- %rsi
	.loc	65 203 11 prologue_end  # /usr/lib/gcc/x86_64-linux-gnu/9/../../../../include/c++/9/bits/stl_algobase.h:203:11
	movq	(%rsi), %rax
	.loc	65 203 15 is_stmt 0     # /usr/lib/gcc/x86_64-linux-gnu/9/../../../../include/c++/9/bits/stl_algobase.h:203:15
	cmpq	(%rdi), %rax
	.loc	65 204 2 is_stmt 1      # /usr/lib/gcc/x86_64-linux-gnu/9/../../../../include/c++/9/bits/stl_algobase.h:204:2
	cmovbq	%rsi, %rdi
.Ltmp309:
	.loc	65 206 5                # /usr/lib/gcc/x86_64-linux-gnu/9/../../../../include/c++/9/bits/stl_algobase.h:206:5
	movq	%rdi, %rax
	retq
.Ltmp310:
.Lfunc_end65:
	.size	_ZSt3minImERKT_S2_S2_, .Lfunc_end65-_ZSt3minImERKT_S2_S2_
	.cfi_endproc
                                        # -- End function
	.section	.text._ZN9__gnu_cxx13new_allocatorIPN12ILLIXR_AUDIO5SoundEE9constructIS3_JRKS3_EEEvPT_DpOT0_,"axG",@progbits,_ZN9__gnu_cxx13new_allocatorIPN12ILLIXR_AUDIO5SoundEE9constructIS3_JRKS3_EEEvPT_DpOT0_,comdat
	.weak	_ZN9__gnu_cxx13new_allocatorIPN12ILLIXR_AUDIO5SoundEE9constructIS3_JRKS3_EEEvPT_DpOT0_ # -- Begin function _ZN9__gnu_cxx13new_allocatorIPN12ILLIXR_AUDIO5SoundEE9constructIS3_JRKS3_EEEvPT_DpOT0_
	.p2align	4, 0x90
	.type	_ZN9__gnu_cxx13new_allocatorIPN12ILLIXR_AUDIO5SoundEE9constructIS3_JRKS3_EEEvPT_DpOT0_,@function
_ZN9__gnu_cxx13new_allocatorIPN12ILLIXR_AUDIO5SoundEE9constructIS3_JRKS3_EEEvPT_DpOT0_: # @_ZN9__gnu_cxx13new_allocatorIPN12ILLIXR_AUDIO5SoundEE9constructIS3_JRKS3_EEEvPT_DpOT0_
.Lfunc_begin66:
	.loc	7 147 0                 # /usr/lib/gcc/x86_64-linux-gnu/9/../../../../include/c++/9/ext/new_allocator.h:147:0
	.cfi_startproc
# %bb.0:
	pushq	%rbx
	.cfi_def_cfa_offset 16
	.cfi_offset %rbx, -16
	#DEBUG_VALUE: construct<ILLIXR_AUDIO::Sound *, ILLIXR_AUDIO::Sound *const &>:this <- %rdi
	#DEBUG_VALUE: construct<ILLIXR_AUDIO::Sound *, ILLIXR_AUDIO::Sound *const &>:__p <- %rsi
	#DEBUG_VALUE: construct<ILLIXR_AUDIO::Sound *, ILLIXR_AUDIO::Sound *const &>:__args <- %rdx
	movq	%rsi, %rbx
	#DEBUG_VALUE: construct<ILLIXR_AUDIO::Sound *, ILLIXR_AUDIO::Sound *const &>:__args <- %rdx
.Ltmp311:
	#DEBUG_VALUE: construct<ILLIXR_AUDIO::Sound *, ILLIXR_AUDIO::Sound *const &>:__p <- %rbx
	.loc	7 147 27 prologue_end   # /usr/lib/gcc/x86_64-linux-gnu/9/../../../../include/c++/9/ext/new_allocator.h:147:27
	movq	%rdx, %rdi
.Ltmp312:
	#DEBUG_VALUE: construct<ILLIXR_AUDIO::Sound *, ILLIXR_AUDIO::Sound *const &>:__args <- %rdi
	callq	_ZSt7forwardIRKPN12ILLIXR_AUDIO5SoundEEOT_RNSt16remove_referenceIS5_E4typeE
.Ltmp313:
	movq	(%rax), %rax
	.loc	7 147 4 is_stmt 0       # /usr/lib/gcc/x86_64-linux-gnu/9/../../../../include/c++/9/ext/new_allocator.h:147:4
	movq	%rax, (%rbx)
	.loc	7 147 60                # /usr/lib/gcc/x86_64-linux-gnu/9/../../../../include/c++/9/ext/new_allocator.h:147:60
	popq	%rbx
.Ltmp314:
	retq
.Ltmp315:
.Lfunc_end66:
	.size	_ZN9__gnu_cxx13new_allocatorIPN12ILLIXR_AUDIO5SoundEE9constructIS3_JRKS3_EEEvPT_DpOT0_, .Lfunc_end66-_ZN9__gnu_cxx13new_allocatorIPN12ILLIXR_AUDIO5SoundEE9constructIS3_JRKS3_EEEvPT_DpOT0_
	.cfi_endproc
                                        # -- End function
	.text
	.globl	_ZN12ILLIXR_AUDIO7ABAudio12processBlockEv # -- Begin function _ZN12ILLIXR_AUDIO7ABAudio12processBlockEv
	.p2align	4, 0x90
	.type	_ZN12ILLIXR_AUDIO7ABAudio12processBlockEv,@function
_ZN12ILLIXR_AUDIO7ABAudio12processBlockEv: # @_ZN12ILLIXR_AUDIO7ABAudio12processBlockEv
.Lfunc_begin67:
	.loc	16 69 0 is_stmt 1       # src/audio.cpp:69:0
	.cfi_startproc
	.cfi_personality 3, __gxx_personality_v0
	.cfi_lsda 3, .Lexception2
# %bb.0:
	pushq	%r15
	.cfi_def_cfa_offset 16
	pushq	%r14
	.cfi_def_cfa_offset 24
	pushq	%rbx
	.cfi_def_cfa_offset 32
	subq	$64, %rsp
	.cfi_def_cfa_offset 96
	.cfi_offset %rbx, -32
	.cfi_offset %r14, -24
	.cfi_offset %r15, -16
	#DEBUG_VALUE: processBlock:this <- %rdi
	movq	%rdi, %r14
.Ltmp327:
	#DEBUG_VALUE: processBlock:this <- %r14
	.loc	16 70 28 prologue_end   # src/audio.cpp:70:28
	movl	$16, %edi
	callq	_Znam
	movq	%rax, %rbx
.Ltmp328:
	#DEBUG_VALUE: processBlock:resultSample <- %rbx
	.loc	16 71 23                # src/audio.cpp:71:23
	movl	$4096, %edi             # imm = 0x1000
	callq	_Znam
	.loc	16 71 21 is_stmt 0      # src/audio.cpp:71:21
	movq	%rax, (%rbx)
	.loc	16 72 23 is_stmt 1      # src/audio.cpp:72:23
	movl	$4096, %edi             # imm = 0x1000
	callq	_Znam
	.loc	16 72 21 is_stmt 0      # src/audio.cpp:72:21
	movq	%rax, 8(%rbx)
	movq	%rsp, %r15
.Ltmp329:
	#DEBUG_VALUE: processBlock:sumBF <- [%rsp+0]
	.loc	16 75 14 is_stmt 1      # src/audio.cpp:75:14
	movq	%r15, %rdi
	callq	_ZN8CBFormatC1Ev
.Ltmp316:
	.loc	16 76 11                # src/audio.cpp:76:11
	movl	$3, %esi
	movl	$1, %edx
	movl	$1024, %ecx             # imm = 0x400
	movq	%r15, %rdi
	callq	_ZN8CBFormat9ConfigureEjbj
.Ltmp317:
.Ltmp330:
# %bb.1:
	#DEBUG_VALUE: processBlock:sumBF <- [%rsp+0]
	#DEBUG_VALUE: processBlock:resultSample <- %rbx
	#DEBUG_VALUE: processBlock:this <- %r14
	.loc	16 78 21                # src/audio.cpp:78:21
	cmpl	$2, (%r14)
.Ltmp331:
	.loc	16 78 9 is_stmt 0       # src/audio.cpp:78:9
	je	.LBB67_4
.Ltmp332:
# %bb.2:
	#DEBUG_VALUE: processBlock:sumBF <- [%rsp+0]
	#DEBUG_VALUE: processBlock:resultSample <- %rbx
	#DEBUG_VALUE: processBlock:this <- %r14
.Ltmp318:
	.loc	16 0 9                  # src/audio.cpp:0:9
	movq	%rsp, %rsi
.Ltmp333:
	.loc	16 79 9 is_stmt 1       # src/audio.cpp:79:9
	movq	%r14, %rdi
	callq	_ZN12ILLIXR_AUDIO7ABAudio11readNEncodeER8CBFormat
.Ltmp319:
.Ltmp334:
# %bb.3:
	#DEBUG_VALUE: processBlock:sumBF <- [%rsp+0]
	#DEBUG_VALUE: processBlock:resultSample <- %rbx
	#DEBUG_VALUE: processBlock:this <- %r14
	.loc	16 81 21                # src/audio.cpp:81:21
	cmpl	$1, (%r14)
.Ltmp335:
	.loc	16 81 9 is_stmt 0       # src/audio.cpp:81:9
	je	.LBB67_8
.Ltmp336:
.LBB67_4:
	#DEBUG_VALUE: processBlock:sumBF <- [%rsp+0]
	#DEBUG_VALUE: processBlock:resultSample <- %rbx
	#DEBUG_VALUE: processBlock:this <- %r14
.Ltmp320:
	.loc	16 0 9                  # src/audio.cpp:0:9
	movq	%rsp, %rsi
.Ltmp337:
	.loc	16 83 9 is_stmt 1       # src/audio.cpp:83:9
	movq	%r14, %rdi
	callq	_ZN12ILLIXR_AUDIO7ABAudio11rotateNZoomER8CBFormat
.Ltmp321:
.Ltmp338:
# %bb.5:
	#DEBUG_VALUE: processBlock:sumBF <- [%rsp+0]
	#DEBUG_VALUE: processBlock:resultSample <- %rbx
	#DEBUG_VALUE: processBlock:this <- %r14
	.loc	16 84 9                 # src/audio.cpp:84:9
	movq	24(%r14), %rdi
.Ltmp322:
	movq	%rsp, %rsi
	.loc	16 84 18 is_stmt 0      # src/audio.cpp:84:18
	movq	%rbx, %rdx
	callq	_ZN22CAmbisonicBinauralizer7ProcessEP8CBFormatPPf
.Ltmp323:
.Ltmp339:
# %bb.6:
	#DEBUG_VALUE: processBlock:sumBF <- [%rsp+0]
	#DEBUG_VALUE: processBlock:resultSample <- %rbx
	#DEBUG_VALUE: processBlock:this <- %r14
	.loc	16 87 21 is_stmt 1      # src/audio.cpp:87:21
	cmpl	$0, (%r14)
.Ltmp340:
	.loc	16 87 9 is_stmt 0       # src/audio.cpp:87:9
	jne	.LBB67_8
.Ltmp341:
# %bb.7:
	#DEBUG_VALUE: processBlock:sumBF <- [%rsp+0]
	#DEBUG_VALUE: processBlock:resultSample <- %rbx
	#DEBUG_VALUE: processBlock:this <- %r14
.Ltmp324:
	.loc	16 88 9 is_stmt 1       # src/audio.cpp:88:9
	movq	%r14, %rdi
	movq	%rbx, %rsi
	callq	_ZN12ILLIXR_AUDIO7ABAudio9writeFileEPPf
.Ltmp325:
.Ltmp342:
.LBB67_8:
	#DEBUG_VALUE: processBlock:sumBF <- [%rsp+0]
	#DEBUG_VALUE: processBlock:resultSample <- %rbx
	#DEBUG_VALUE: processBlock:this <- %r14
	.loc	16 91 14                # src/audio.cpp:91:14
	movq	(%rbx), %rdi
	.loc	16 91 5 is_stmt 0       # src/audio.cpp:91:5
	testq	%rdi, %rdi
	je	.LBB67_10
.Ltmp343:
# %bb.9:
	#DEBUG_VALUE: processBlock:sumBF <- [%rsp+0]
	#DEBUG_VALUE: processBlock:resultSample <- %rbx
	#DEBUG_VALUE: processBlock:this <- %r14
	callq	_ZdaPv
.Ltmp344:
.LBB67_10:
	#DEBUG_VALUE: processBlock:sumBF <- [%rsp+0]
	#DEBUG_VALUE: processBlock:resultSample <- %rbx
	#DEBUG_VALUE: processBlock:this <- %r14
	.loc	16 92 14 is_stmt 1      # src/audio.cpp:92:14
	movq	8(%rbx), %rdi
	.loc	16 92 5 is_stmt 0       # src/audio.cpp:92:5
	testq	%rdi, %rdi
	je	.LBB67_12
.Ltmp345:
# %bb.11:
	#DEBUG_VALUE: processBlock:sumBF <- [%rsp+0]
	#DEBUG_VALUE: processBlock:resultSample <- %rbx
	#DEBUG_VALUE: processBlock:this <- %r14
	callq	_ZdaPv
.Ltmp346:
.LBB67_12:
	#DEBUG_VALUE: processBlock:sumBF <- [%rsp+0]
	#DEBUG_VALUE: processBlock:resultSample <- %rbx
	#DEBUG_VALUE: processBlock:this <- %r14
	.loc	16 93 5 is_stmt 1       # src/audio.cpp:93:5
	movq	%rbx, %rdi
	callq	_ZdaPv
	movq	%rsp, %rdi
	#DEBUG_VALUE: processBlock:sumBF <- [%rsp+0]
	.loc	16 94 1                 # src/audio.cpp:94:1
	callq	_ZN8CBFormatD2Ev
	addq	$64, %rsp
.Ltmp347:
	popq	%rbx
.Ltmp348:
	popq	%r14
.Ltmp349:
	popq	%r15
	retq
.LBB67_13:
.Ltmp350:
	#DEBUG_VALUE: processBlock:sumBF <- [%rsp+0]
	#DEBUG_VALUE: processBlock:resultSample <- %rbx
	#DEBUG_VALUE: processBlock:this <- %r14
.Ltmp326:
	.loc	16 0 1 is_stmt 0        # src/audio.cpp:0:1
	movq	%rax, %rbx
.Ltmp351:
	movq	%rsp, %rdi
	#DEBUG_VALUE: processBlock:sumBF <- [%rsp+0]
	.loc	16 94 1                 # src/audio.cpp:94:1
	callq	_ZN8CBFormatD2Ev
	movq	%rbx, %rdi
	callq	_Unwind_Resume
.Ltmp352:
.Lfunc_end67:
	.size	_ZN12ILLIXR_AUDIO7ABAudio12processBlockEv, .Lfunc_end67-_ZN12ILLIXR_AUDIO7ABAudio12processBlockEv
	.cfi_endproc
	.section	.gcc_except_table,"a",@progbits
	.p2align	2
GCC_except_table67:
.Lexception2:
	.byte	255                     # @LPStart Encoding = omit
	.byte	3                       # @TType Encoding = udata4
	.byte	41                      # @TType base offset
	.byte	3                       # Call site Encoding = udata4
	.byte	39                      # Call site table length
	.long	.Lfunc_begin67-.Lfunc_begin67 # >> Call Site 1 <<
	.long	.Ltmp316-.Lfunc_begin67 #   Call between .Lfunc_begin67 and .Ltmp316
	.long	0                       #     has no landing pad
	.byte	0                       #   On action: cleanup
	.long	.Ltmp316-.Lfunc_begin67 # >> Call Site 2 <<
	.long	.Ltmp325-.Ltmp316       #   Call between .Ltmp316 and .Ltmp325
	.long	.Ltmp326-.Lfunc_begin67 #     jumps to .Ltmp326
	.byte	0                       #   On action: cleanup
	.long	.Ltmp325-.Lfunc_begin67 # >> Call Site 3 <<
	.long	.Lfunc_end67-.Ltmp325   #   Call between .Ltmp325 and .Lfunc_end67
	.long	0                       #     has no landing pad
	.byte	0                       #   On action: cleanup
	.p2align	2
                                        # -- End function
	.text
	.globl	_ZN12ILLIXR_AUDIO7ABAudio11readNEncodeER8CBFormat # -- Begin function _ZN12ILLIXR_AUDIO7ABAudio11readNEncodeER8CBFormat
	.p2align	4, 0x90
	.type	_ZN12ILLIXR_AUDIO7ABAudio11readNEncodeER8CBFormat,@function
_ZN12ILLIXR_AUDIO7ABAudio11readNEncodeER8CBFormat: # @_ZN12ILLIXR_AUDIO7ABAudio11readNEncodeER8CBFormat
.Lfunc_begin68:
	.loc	16 97 0 is_stmt 1       # src/audio.cpp:97:0
	.cfi_startproc
# %bb.0:
	pushq	%rbp
	.cfi_def_cfa_offset 16
	pushq	%r15
	.cfi_def_cfa_offset 24
	pushq	%r14
	.cfi_def_cfa_offset 32
	pushq	%rbx
	.cfi_def_cfa_offset 40
	pushq	%rax
	.cfi_def_cfa_offset 48
	.cfi_offset %rbx, -40
	.cfi_offset %r14, -32
	.cfi_offset %r15, -24
	.cfi_offset %rbp, -16
	#DEBUG_VALUE: readNEncode:this <- %rdi
	#DEBUG_VALUE: readNEncode:sumBF <- %rsi
	movq	%rsi, %r14
	movq	%rdi, %r15
.Ltmp353:
	#DEBUG_VALUE: soundIdx <- 0
	#DEBUG_VALUE: readNEncode:sumBF <- %r14
	#DEBUG_VALUE: readNEncode:this <- %r15
	.loc	16 99 48 prologue_end   # src/audio.cpp:99:48
	movq	8(%r15), %rdi
	.loc	16 99 59 is_stmt 0      # src/audio.cpp:99:59
	callq	_ZNKSt6vectorIPN12ILLIXR_AUDIO5SoundESaIS2_EE4sizeEv
	.loc	16 99 46                # src/audio.cpp:99:46
	testq	%rax, %rax
.Ltmp354:
	.loc	16 99 5                 # src/audio.cpp:99:5
	je	.LBB68_6
.Ltmp355:
# %bb.1:
	#DEBUG_VALUE: readNEncode:this <- %r15
	#DEBUG_VALUE: readNEncode:sumBF <- %r14
	.loc	16 0 5                  # src/audio.cpp:0:5
	movl	$1, %ebp
	xorl	%ebx, %ebx
.Ltmp356:
	.p2align	4, 0x90
.LBB68_2:                               # =>This Inner Loop Header: Depth=1
	#DEBUG_VALUE: readNEncode:this <- %r15
	#DEBUG_VALUE: readNEncode:sumBF <- %r14
	.loc	16 100 20 is_stmt 1     # src/audio.cpp:100:20
	movq	8(%r15), %rdi
	.loc	16 100 18 is_stmt 0     # src/audio.cpp:100:18
	movq	%rbx, %rsi
	callq	_ZNSt6vectorIPN12ILLIXR_AUDIO5SoundESaIS2_EEixEm
	movq	(%rax), %rdi
	.loc	16 100 42               # src/audio.cpp:100:42
	callq	_ZN12ILLIXR_AUDIO5Sound13readInBFormatEv
.Ltmp357:
	#DEBUG_VALUE: readNEncode:tempBF <- %rax
	.loc	16 104 18 is_stmt 1     # src/audio.cpp:104:18
	movq	%r14, %rdi
	movq	%rax, %rsi
	.loc	16 101 22               # src/audio.cpp:101:22
	cmpl	$1, %ebp
.Ltmp358:
	.loc	16 101 13 is_stmt 0     # src/audio.cpp:101:13
	jne	.LBB68_4
.Ltmp359:
# %bb.3:                                #   in Loop: Header=BB68_2 Depth=1
	#DEBUG_VALUE: readNEncode:tempBF <- %rax
	#DEBUG_VALUE: readNEncode:this <- %r15
	#DEBUG_VALUE: readNEncode:sumBF <- %r14
	.loc	16 102 19 is_stmt 1     # src/audio.cpp:102:19
	callq	_ZN8CBFormataSERKS_
.Ltmp360:
	.loc	16 0 19 is_stmt 0       # src/audio.cpp:0:19
	jmp	.LBB68_5
.Ltmp361:
	.p2align	4, 0x90
.LBB68_4:                               #   in Loop: Header=BB68_2 Depth=1
	#DEBUG_VALUE: readNEncode:tempBF <- %rax
	#DEBUG_VALUE: readNEncode:this <- %r15
	#DEBUG_VALUE: readNEncode:sumBF <- %r14
	.loc	16 104 18 is_stmt 1     # src/audio.cpp:104:18
	callq	_ZN8CBFormatpLERKS_
.Ltmp362:
.LBB68_5:                               #   in Loop: Header=BB68_2 Depth=1
	#DEBUG_VALUE: readNEncode:this <- %r15
	#DEBUG_VALUE: readNEncode:sumBF <- %r14
	.loc	16 99 37                # src/audio.cpp:99:37
	movl	%ebp, %ebx
	.loc	16 99 48 is_stmt 0      # src/audio.cpp:99:48
	movq	8(%r15), %rdi
	.loc	16 99 59                # src/audio.cpp:99:59
	callq	_ZNKSt6vectorIPN12ILLIXR_AUDIO5SoundESaIS2_EE4sizeEv
.Ltmp363:
	.loc	16 99 5                 # src/audio.cpp:99:5
	addl	$1, %ebp
.Ltmp364:
	.loc	16 99 46                # src/audio.cpp:99:46
	cmpq	%rbx, %rax
.Ltmp365:
	.loc	16 99 5                 # src/audio.cpp:99:5
	ja	.LBB68_2
.Ltmp366:
.LBB68_6:
	#DEBUG_VALUE: readNEncode:this <- %r15
	#DEBUG_VALUE: readNEncode:sumBF <- %r14
	.loc	16 106 1 is_stmt 1      # src/audio.cpp:106:1
	addq	$8, %rsp
	popq	%rbx
	popq	%r14
.Ltmp367:
	popq	%r15
.Ltmp368:
	popq	%rbp
	retq
.Ltmp369:
.Lfunc_end68:
	.size	_ZN12ILLIXR_AUDIO7ABAudio11readNEncodeER8CBFormat, .Lfunc_end68-_ZN12ILLIXR_AUDIO7ABAudio11readNEncodeER8CBFormat
	.cfi_endproc
                                        # -- End function
	.section	.text._ZN8CBFormatD2Ev,"axG",@progbits,_ZN8CBFormatD2Ev,comdat
	.weak	_ZN8CBFormatD2Ev        # -- Begin function _ZN8CBFormatD2Ev
	.p2align	4, 0x90
	.type	_ZN8CBFormatD2Ev,@function
_ZN8CBFormatD2Ev:                       # @_ZN8CBFormatD2Ev
.Lfunc_begin69:
	.file	66 "/home/yingj4/Desktop/cs598jtfa20/project/audio_pipeline/./libspatialaudio/build/Release/include/spatialaudio/BFormat.h"
	.loc	66 29 0                 # ./libspatialaudio/build/Release/include/spatialaudio/BFormat.h:29:0
	.cfi_startproc
# %bb.0:
	pushq	%rbx
	.cfi_def_cfa_offset 16
	.cfi_offset %rbx, -16
	#DEBUG_VALUE: ~CBFormat:this <- %rdi
	movq	%rdi, %rbx
.Ltmp370:
	#DEBUG_VALUE: ~CBFormat:this <- %rbx
	.loc	66 29 7 prologue_end    # ./libspatialaudio/build/Release/include/spatialaudio/BFormat.h:29:7
	movq	$_ZTV8CBFormat+16, (%rbx)
.Ltmp371:
	.loc	66 29 7 is_stmt 0       # ./libspatialaudio/build/Release/include/spatialaudio/BFormat.h:29:7
	leaq	56(%rbx), %rdi
	callq	_ZNSt10unique_ptrIA_PfSt14default_deleteIS1_EED2Ev
	leaq	32(%rbx), %rdi
	callq	_ZNSt6vectorIfSaIfEED2Ev
	movq	%rbx, %rdi
	popq	%rbx
.Ltmp372:
	jmp	_ZN14CAmbisonicBaseD2Ev # TAILCALL
.Ltmp373:
.Lfunc_end69:
	.size	_ZN8CBFormatD2Ev, .Lfunc_end69-_ZN8CBFormatD2Ev
	.cfi_endproc
                                        # -- End function
	.text
	.globl	_ZN12ILLIXR_AUDIO7ABAudio11rotateNZoomER8CBFormat # -- Begin function _ZN12ILLIXR_AUDIO7ABAudio11rotateNZoomER8CBFormat
	.p2align	4, 0x90
	.type	_ZN12ILLIXR_AUDIO7ABAudio11rotateNZoomER8CBFormat,@function
_ZN12ILLIXR_AUDIO7ABAudio11rotateNZoomER8CBFormat: # @_ZN12ILLIXR_AUDIO7ABAudio11rotateNZoomER8CBFormat
.Lfunc_begin70:
	.loc	16 124 0 is_stmt 1      # src/audio.cpp:124:0
	.cfi_startproc
# %bb.0:
	pushq	%r14
	.cfi_def_cfa_offset 16
	pushq	%rbx
	.cfi_def_cfa_offset 24
	pushq	%rax
	.cfi_def_cfa_offset 32
	.cfi_offset %rbx, -24
	.cfi_offset %r14, -16
	#DEBUG_VALUE: rotateNZoom:this <- %rdi
	#DEBUG_VALUE: rotateNZoom:sumBF <- %rsi
	movq	%rsi, %r14
	movq	%rdi, %rbx
.Ltmp374:
	#DEBUG_VALUE: rotateNZoom:sumBF <- %r14
	#DEBUG_VALUE: rotateNZoom:this <- %rbx
	.loc	16 125 2 prologue_end   # src/audio.cpp:125:2
	callq	_ZN12ILLIXR_AUDIO7ABAudio14updateRotationEv
	.loc	16 126 2                # src/audio.cpp:126:2
	movq	32(%rbx), %rdi
	.loc	16 126 11 is_stmt 0     # src/audio.cpp:126:11
	movl	$1024, %edx             # imm = 0x400
	movq	%r14, %rsi
	callq	_ZN19CAmbisonicProcessor7ProcessEP8CBFormatj
	.loc	16 127 2 is_stmt 1      # src/audio.cpp:127:2
	movq	%rbx, %rdi
	callq	_ZN12ILLIXR_AUDIO7ABAudio10updateZoomEv
	.loc	16 128 2                # src/audio.cpp:128:2
	movq	40(%rbx), %rdi
	.loc	16 128 10 is_stmt 0     # src/audio.cpp:128:10
	movl	$1024, %edx             # imm = 0x400
	movq	%r14, %rsi
	addq	$8, %rsp
	popq	%rbx
.Ltmp375:
	popq	%r14
.Ltmp376:
	jmp	_ZN16CAmbisonicZoomer7ProcessEP8CBFormatj # TAILCALL
.Ltmp377:
.Lfunc_end70:
	.size	_ZN12ILLIXR_AUDIO7ABAudio11rotateNZoomER8CBFormat, .Lfunc_end70-_ZN12ILLIXR_AUDIO7ABAudio11rotateNZoomER8CBFormat
	.cfi_endproc
                                        # -- End function
	.section	.rodata.cst8,"aM",@progbits,8
	.p2align	3               # -- Begin function _ZN12ILLIXR_AUDIO7ABAudio9writeFileEPPf
.LCPI71_0:
	.quad	4674736138332667904     # double 32767
	.text
	.globl	_ZN12ILLIXR_AUDIO7ABAudio9writeFileEPPf
	.p2align	4, 0x90
	.type	_ZN12ILLIXR_AUDIO7ABAudio9writeFileEPPf,@function
_ZN12ILLIXR_AUDIO7ABAudio9writeFileEPPf: # @_ZN12ILLIXR_AUDIO7ABAudio9writeFileEPPf
.Lfunc_begin71:
	.loc	16 131 0 is_stmt 1      # src/audio.cpp:131:0
	.cfi_startproc
# %bb.0:
	pushq	%r15
	.cfi_def_cfa_offset 16
	pushq	%r14
	.cfi_def_cfa_offset 24
	pushq	%r13
	.cfi_def_cfa_offset 32
	pushq	%r12
	.cfi_def_cfa_offset 40
	pushq	%rbx
	.cfi_def_cfa_offset 48
	subq	$16, %rsp
	.cfi_def_cfa_offset 64
	.cfi_offset %rbx, -48
	.cfi_offset %r12, -40
	.cfi_offset %r13, -32
	.cfi_offset %r14, -24
	.cfi_offset %r15, -16
	#DEBUG_VALUE: writeFile:this <- %rdi
	#DEBUG_VALUE: writeFile:resultSample <- %rsi
	movq	%rsi, %r13
	movq	%rdi, %r14
	xorl	%ebx, %ebx
	leaq	12(%rsp), %r15
	leaq	8(%rsp), %r12
.Ltmp378:
	#DEBUG_VALUE: sampleIdx <- 0
	#DEBUG_VALUE: writeFile:resultSample <- %r13
	#DEBUG_VALUE: writeFile:this <- %r14
	.p2align	4, 0x90
.LBB71_1:                               # =>This Inner Loop Header: Depth=1
	#DEBUG_VALUE: writeFile:this <- %r14
	#DEBUG_VALUE: writeFile:resultSample <- %r13
	movq	(%r13), %rdi
.Ltmp379:
	.loc	16 134 78 prologue_end  # src/audio.cpp:134:78
	addq	%rbx, %rdi
	movl	$1065353216, 12(%rsp)   # imm = 0x3F800000
	.loc	16 134 41 is_stmt 0     # src/audio.cpp:134:41
	movq	%r15, %rsi
	callq	_ZSt3minIfERKT_S2_S2_
	.loc	16 134 86               # src/audio.cpp:134:86
	movl	$-1082130432, 8(%rsp)   # imm = 0xBF800000
	.loc	16 134 32               # src/audio.cpp:134:32
	movq	%rax, %rdi
	movq	%r12, %rsi
	callq	_ZSt3maxIfERKT_S2_S2_
	movl	(%rax), %eax
	.loc	16 134 3                # src/audio.cpp:134:3
	movq	(%r13), %rcx
	.loc	16 134 30               # src/audio.cpp:134:30
	movl	%eax, (%rcx,%rbx)
	movq	8(%r13), %rdi
	.loc	16 135 78 is_stmt 1     # src/audio.cpp:135:78
	addq	%rbx, %rdi
	movl	$1065353216, 12(%rsp)   # imm = 0x3F800000
	.loc	16 135 41 is_stmt 0     # src/audio.cpp:135:41
	movq	%r15, %rsi
	callq	_ZSt3minIfERKT_S2_S2_
	.loc	16 135 86               # src/audio.cpp:135:86
	movl	$-1082130432, 8(%rsp)   # imm = 0xBF800000
	.loc	16 135 32               # src/audio.cpp:135:32
	movq	%rax, %rdi
	movq	%r12, %rsi
	callq	_ZSt3maxIfERKT_S2_S2_
	movl	(%rax), %eax
	.loc	16 135 3                # src/audio.cpp:135:3
	movq	8(%r13), %rcx
	.loc	16 135 30               # src/audio.cpp:135:30
	movl	%eax, (%rcx,%rbx)
	.loc	16 136 35 is_stmt 1     # src/audio.cpp:136:35
	movq	(%r13), %rax
	movss	(%rax,%rbx), %xmm0      # xmm0 = mem[0],zero,zero,zero
	cvtss2sd	%xmm0, %xmm0
	movsd	.LCPI71_0(%rip), %xmm1  # xmm1 = mem[0],zero
	.loc	16 136 66 is_stmt 0     # src/audio.cpp:136:66
	mulsd	%xmm1, %xmm0
	.loc	16 136 34               # src/audio.cpp:136:34
	cvttsd2si	%xmm0, %eax
.Ltmp380:
	#DEBUG_VALUE: tempSample0 <- %ax
	.loc	16 136 11               # src/audio.cpp:136:11
	movw	%ax, 12(%rsp)
	.loc	16 137 35 is_stmt 1     # src/audio.cpp:137:35
	movss	(%rcx,%rbx), %xmm0      # xmm0 = mem[0],zero,zero,zero
	cvtss2sd	%xmm0, %xmm0
	.loc	16 137 66 is_stmt 0     # src/audio.cpp:137:66
	mulsd	%xmm1, %xmm0
	.loc	16 137 34               # src/audio.cpp:137:34
	cvttsd2si	%xmm0, %eax
.Ltmp381:
	#DEBUG_VALUE: tempSample1 <- %ax
	.loc	16 137 11               # src/audio.cpp:137:11
	movw	%ax, 8(%rsp)
	.loc	16 138 3 is_stmt 1      # src/audio.cpp:138:3
	movq	16(%r14), %rdi
	.loc	16 138 15 is_stmt 0     # src/audio.cpp:138:15
	movl	$2, %edx
	movq	%r15, %rsi
	callq	_ZNSo5writeEPKcl
.Ltmp382:
	.loc	16 139 3 is_stmt 1      # src/audio.cpp:139:3
	movq	16(%r14), %rdi
	.loc	16 139 15 is_stmt 0     # src/audio.cpp:139:15
	movl	$2, %edx
	movq	%r12, %rsi
	callq	_ZNSo5writeEPKcl
.Ltmp383:
	.loc	16 133 35 is_stmt 1     # src/audio.cpp:133:35
	addq	$4, %rbx
	cmpq	$4096, %rbx             # imm = 0x1000
.Ltmp384:
	.loc	16 133 2 is_stmt 0      # src/audio.cpp:133:2
	jne	.LBB71_1
.Ltmp385:
# %bb.2:
	#DEBUG_VALUE: writeFile:this <- %r14
	#DEBUG_VALUE: writeFile:resultSample <- %r13
	.loc	16 141 1 is_stmt 1      # src/audio.cpp:141:1
	addq	$16, %rsp
	popq	%rbx
	popq	%r12
	popq	%r13
.Ltmp386:
	popq	%r14
.Ltmp387:
	popq	%r15
	retq
.Ltmp388:
.Lfunc_end71:
	.size	_ZN12ILLIXR_AUDIO7ABAudio9writeFileEPPf, .Lfunc_end71-_ZN12ILLIXR_AUDIO7ABAudio9writeFileEPPf
	.cfi_endproc
                                        # -- End function
	.section	.text._ZSt3minIfERKT_S2_S2_,"axG",@progbits,_ZSt3minIfERKT_S2_S2_,comdat
	.weak	_ZSt3minIfERKT_S2_S2_   # -- Begin function _ZSt3minIfERKT_S2_S2_
	.p2align	4, 0x90
	.type	_ZSt3minIfERKT_S2_S2_,@function
_ZSt3minIfERKT_S2_S2_:                  # @_ZSt3minIfERKT_S2_S2_
.Lfunc_begin72:
	.loc	65 199 0                # /usr/lib/gcc/x86_64-linux-gnu/9/../../../../include/c++/9/bits/stl_algobase.h:199:0
	.cfi_startproc
# %bb.0:
	#DEBUG_VALUE: min<float>:__a <- %rdi
	#DEBUG_VALUE: min<float>:__a <- %rdi
	#DEBUG_VALUE: min<float>:__b <- %rsi
	#DEBUG_VALUE: min<float>:__b <- %rsi
	.loc	65 203 17 prologue_end  # /usr/lib/gcc/x86_64-linux-gnu/9/../../../../include/c++/9/bits/stl_algobase.h:203:17
	movss	(%rdi), %xmm0           # xmm0 = mem[0],zero,zero,zero
	.loc	65 203 15 is_stmt 0     # /usr/lib/gcc/x86_64-linux-gnu/9/../../../../include/c++/9/bits/stl_algobase.h:203:15
	ucomiss	(%rsi), %xmm0
	.loc	65 204 2 is_stmt 1      # /usr/lib/gcc/x86_64-linux-gnu/9/../../../../include/c++/9/bits/stl_algobase.h:204:2
	cmovaq	%rsi, %rdi
.Ltmp389:
	.loc	65 206 5                # /usr/lib/gcc/x86_64-linux-gnu/9/../../../../include/c++/9/bits/stl_algobase.h:206:5
	movq	%rdi, %rax
	retq
.Ltmp390:
.Lfunc_end72:
	.size	_ZSt3minIfERKT_S2_S2_, .Lfunc_end72-_ZSt3minIfERKT_S2_S2_
	.cfi_endproc
                                        # -- End function
	.section	.text._ZSt3maxIfERKT_S2_S2_,"axG",@progbits,_ZSt3maxIfERKT_S2_S2_,comdat
	.weak	_ZSt3maxIfERKT_S2_S2_   # -- Begin function _ZSt3maxIfERKT_S2_S2_
	.p2align	4, 0x90
	.type	_ZSt3maxIfERKT_S2_S2_,@function
_ZSt3maxIfERKT_S2_S2_:                  # @_ZSt3maxIfERKT_S2_S2_
.Lfunc_begin73:
	.loc	65 223 0                # /usr/lib/gcc/x86_64-linux-gnu/9/../../../../include/c++/9/bits/stl_algobase.h:223:0
	.cfi_startproc
# %bb.0:
	#DEBUG_VALUE: max<float>:__a <- %rdi
	#DEBUG_VALUE: max<float>:__a <- %rdi
	#DEBUG_VALUE: max<float>:__b <- %rsi
	#DEBUG_VALUE: max<float>:__b <- %rsi
	.loc	65 227 17 prologue_end  # /usr/lib/gcc/x86_64-linux-gnu/9/../../../../include/c++/9/bits/stl_algobase.h:227:17
	movss	(%rsi), %xmm0           # xmm0 = mem[0],zero,zero,zero
	.loc	65 227 15 is_stmt 0     # /usr/lib/gcc/x86_64-linux-gnu/9/../../../../include/c++/9/bits/stl_algobase.h:227:15
	ucomiss	(%rdi), %xmm0
	.loc	65 228 2 is_stmt 1      # /usr/lib/gcc/x86_64-linux-gnu/9/../../../../include/c++/9/bits/stl_algobase.h:228:2
	cmovaq	%rsi, %rdi
.Ltmp391:
	.loc	65 230 5                # /usr/lib/gcc/x86_64-linux-gnu/9/../../../../include/c++/9/bits/stl_algobase.h:230:5
	movq	%rdi, %rax
	retq
.Ltmp392:
.Lfunc_end73:
	.size	_ZSt3maxIfERKT_S2_S2_, .Lfunc_end73-_ZSt3maxIfERKT_S2_S2_
	.cfi_endproc
                                        # -- End function
	.section	.rodata.cst8,"aM",@progbits,8
	.p2align	3               # -- Begin function _ZN12ILLIXR_AUDIO7ABAudio14updateRotationEv
.LCPI74_0:
	.quad	4654311885213007872     # double 1500
.LCPI74_1:
	.quad	4614253070214989087     # double 3.1400000000000001
	.text
	.globl	_ZN12ILLIXR_AUDIO7ABAudio14updateRotationEv
	.p2align	4, 0x90
	.type	_ZN12ILLIXR_AUDIO7ABAudio14updateRotationEv,@function
_ZN12ILLIXR_AUDIO7ABAudio14updateRotationEv: # @_ZN12ILLIXR_AUDIO7ABAudio14updateRotationEv
.Lfunc_begin74:
	.loc	16 109 0                # src/audio.cpp:109:0
	.cfi_startproc
# %bb.0:
	.loc	16 111 7 prologue_end   # src/audio.cpp:111:7
	pushq	%rbx
	.cfi_def_cfa_offset 16
	subq	$48, %rsp
	.cfi_def_cfa_offset 64
	.cfi_offset %rbx, -16
	#DEBUG_VALUE: updateRotation:this <- %rdi
	movl	_ZZN12ILLIXR_AUDIO7ABAudio14updateRotationEvE5frame(%rip), %eax
	addl	$1, %eax
	movl	%eax, _ZZN12ILLIXR_AUDIO7ABAudio14updateRotationEvE5frame(%rip)
	.loc	16 112 27               # src/audio.cpp:112:27
	cvtsi2sdl	%eax, %xmm0
	.loc	16 112 32 is_stmt 0     # src/audio.cpp:112:32
	divsd	.LCPI74_0(%rip), %xmm0
	.loc	16 112 37               # src/audio.cpp:112:37
	mulsd	.LCPI74_1(%rip), %xmm0
	movq	%rdi, %rbx
.Ltmp393:
	#DEBUG_VALUE: updateRotation:this <- %rbx
	.loc	16 112 42               # src/audio.cpp:112:42
	addsd	%xmm0, %xmm0
	.loc	16 112 23               # src/audio.cpp:112:23
	cvtsd2ss	%xmm0, %xmm2
	leaq	24(%rsp), %rdi
.Ltmp394:
	#DEBUG_VALUE: updateRotation:head <- [DW_OP_plus_uconst 24] [%rsp+0]
	.loc	16 112 14               # src/audio.cpp:112:14
	xorpd	%xmm0, %xmm0
	xorps	%xmm1, %xmm1
	callq	_ZN11OrientationC2Efff
	.loc	16 113 2 is_stmt 1      # src/audio.cpp:113:2
	movq	32(%rbx), %rdi
	.loc	16 113 11 is_stmt 0     # src/audio.cpp:113:11
	movq	40(%rsp), %rax
	movq	%rax, 16(%rsp)
	movups	24(%rsp), %xmm0
	movups	%xmm0, (%rsp)
	callq	_ZN19CAmbisonicProcessor14SetOrientationE11Orientation
	.loc	16 114 2 is_stmt 1      # src/audio.cpp:114:2
	movq	32(%rbx), %rdi
	.loc	16 114 11 is_stmt 0     # src/audio.cpp:114:11
	movq	(%rdi), %rax
	callq	*32(%rax)
	.loc	16 115 1 is_stmt 1      # src/audio.cpp:115:1
	addq	$48, %rsp
.Ltmp395:
	popq	%rbx
.Ltmp396:
	retq
.Ltmp397:
.Lfunc_end74:
	.size	_ZN12ILLIXR_AUDIO7ABAudio14updateRotationEv, .Lfunc_end74-_ZN12ILLIXR_AUDIO7ABAudio14updateRotationEv
	.cfi_endproc
                                        # -- End function
	.globl	_ZN12ILLIXR_AUDIO7ABAudio10updateZoomEv # -- Begin function _ZN12ILLIXR_AUDIO7ABAudio10updateZoomEv
	.p2align	4, 0x90
	.type	_ZN12ILLIXR_AUDIO7ABAudio10updateZoomEv,@function
_ZN12ILLIXR_AUDIO7ABAudio10updateZoomEv: # @_ZN12ILLIXR_AUDIO7ABAudio10updateZoomEv
.Lfunc_begin75:
	.loc	16 117 0                # src/audio.cpp:117:0
	.cfi_startproc
# %bb.0:
	pushq	%r14
	.cfi_def_cfa_offset 16
	pushq	%rbx
	.cfi_def_cfa_offset 24
	pushq	%rax
	.cfi_def_cfa_offset 32
	.cfi_offset %rbx, -24
	.cfi_offset %r14, -16
	#DEBUG_VALUE: updateZoom:this <- %rdi
	movq	%rdi, %rbx
.Ltmp398:
	#DEBUG_VALUE: updateZoom:this <- %rbx
	.loc	16 119 7 prologue_end   # src/audio.cpp:119:7
	movl	_ZZN12ILLIXR_AUDIO7ABAudio10updateZoomEvE5frame(%rip), %eax
	addl	$1, %eax
	movl	%eax, _ZZN12ILLIXR_AUDIO7ABAudio10updateZoomEvE5frame(%rip)
	.loc	16 120 2                # src/audio.cpp:120:2
	movq	40(%rbx), %r14
	.loc	16 120 28 is_stmt 0     # src/audio.cpp:120:28
	cltq
	imulq	$1374389535, %rax, %rax # imm = 0x51EB851F
	movq	%rax, %rcx
	shrq	$63, %rcx
	sarq	$37, %rax
	addl	%ecx, %eax
	.loc	16 120 23               # src/audio.cpp:120:23
	cvtsi2ssl	%eax, %xmm0
	.loc	16 120 18               # src/audio.cpp:120:18
	callq	sinf
	.loc	16 120 10               # src/audio.cpp:120:10
	movq	%r14, %rdi
	callq	_ZN16CAmbisonicZoomer7SetZoomEf
	.loc	16 121 2 is_stmt 1      # src/audio.cpp:121:2
	movq	40(%rbx), %rdi
	.loc	16 121 10 is_stmt 0     # src/audio.cpp:121:10
	movq	(%rdi), %rax
	addq	$8, %rsp
	popq	%rbx
.Ltmp399:
	popq	%r14
	jmpq	*32(%rax)               # TAILCALL
.Ltmp400:
.Lfunc_end75:
	.size	_ZN12ILLIXR_AUDIO7ABAudio10updateZoomEv, .Lfunc_end75-_ZN12ILLIXR_AUDIO7ABAudio10updateZoomEv
	.cfi_endproc
                                        # -- End function
	.section	.rodata.cst4,"aM",@progbits,4
	.p2align	2               # -- Begin function _ZN11OrientationC2Efff
.LCPI76_0:
	.long	1065353216              # float 1
.LCPI76_1:
	.long	3212836864              # float -1
	.section	.rodata.cst16,"aM",@progbits,16
	.p2align	4
.LCPI76_2:
	.long	2147483648              # float -0
	.long	2147483648              # float -0
	.long	2147483648              # float -0
	.long	2147483648              # float -0
	.section	.text._ZN11OrientationC2Efff,"axG",@progbits,_ZN11OrientationC2Efff,comdat
	.weak	_ZN11OrientationC2Efff
	.p2align	4, 0x90
	.type	_ZN11OrientationC2Efff,@function
_ZN11OrientationC2Efff:                 # @_ZN11OrientationC2Efff
.Lfunc_begin76:
	.file	67 "/home/yingj4/Desktop/cs598jtfa20/project/audio_pipeline/./libspatialaudio/build/Release/include/spatialaudio/AmbisonicProcessor.h"
	.loc	67 49 0 is_stmt 1       # ./libspatialaudio/build/Release/include/spatialaudio/AmbisonicProcessor.h:49:0
	.cfi_startproc
# %bb.0:
	pushq	%rbx
	.cfi_def_cfa_offset 16
	subq	$48, %rsp
	.cfi_def_cfa_offset 64
	.cfi_offset %rbx, -16
	#DEBUG_VALUE: Orientation:this <- %rdi
	#DEBUG_VALUE: Orientation:fYaw <- %xmm0
	#DEBUG_VALUE: Orientation:fPitch <- %xmm1
	#DEBUG_VALUE: Orientation:fRoll <- %xmm2
	movss	%xmm2, 12(%rsp)         # 4-byte Spill
	movss	%xmm1, 20(%rsp)         # 4-byte Spill
	movss	%xmm0, 32(%rsp)         # 4-byte Spill
	movq	%rdi, %rbx
	#DEBUG_VALUE: Orientation:fRoll <- %xmm2
	#DEBUG_VALUE: Orientation:fPitch <- %xmm1
	#DEBUG_VALUE: Orientation:fYaw <- %xmm0
.Ltmp401:
	#DEBUG_VALUE: Orientation:this <- %rbx
	.loc	67 48 11 prologue_end   # ./libspatialaudio/build/Release/include/spatialaudio/AmbisonicProcessor.h:48:11
	movss	%xmm0, (%rbx)
	.loc	67 48 23 is_stmt 0      # ./libspatialaudio/build/Release/include/spatialaudio/AmbisonicProcessor.h:48:23
	movss	%xmm1, 4(%rbx)
.Ltmp402:
	#DEBUG_VALUE: Orientation:fPitch <- [DW_OP_plus_uconst 20] [%rsp+0]
	.loc	67 48 39                # ./libspatialaudio/build/Release/include/spatialaudio/AmbisonicProcessor.h:48:39
	movss	%xmm2, 8(%rbx)
.Ltmp403:
	#DEBUG_VALUE: Orientation:fRoll <- [DW_OP_plus_uconst 12] [%rsp+0]
	#DEBUG_VALUE: Orientation:fYaw <- [DW_OP_plus_uconst 32] [%rsp+0]
	.loc	67 50 25 is_stmt 1      # ./libspatialaudio/build/Release/include/spatialaudio/AmbisonicProcessor.h:50:25
	callq	cosf
	movss	%xmm0, 16(%rsp)         # 4-byte Spill
.Ltmp404:
	#DEBUG_VALUE: fCosYaw <- [DW_OP_plus_uconst 16] [%rsp+0]
	.loc	67 51 25                # ./libspatialaudio/build/Release/include/spatialaudio/AmbisonicProcessor.h:51:25
	movss	32(%rsp), %xmm0         # 4-byte Reload
                                        # xmm0 = mem[0],zero,zero,zero
	callq	sinf
	movaps	%xmm0, 32(%rsp)         # 16-byte Spill
.Ltmp405:
	#DEBUG_VALUE: fSinYaw <- [DW_OP_plus_uconst 32] [%rsp+0]
	.loc	67 52 26                # ./libspatialaudio/build/Release/include/spatialaudio/AmbisonicProcessor.h:52:26
	movss	12(%rsp), %xmm0         # 4-byte Reload
                                        # xmm0 = mem[0],zero,zero,zero
	callq	cosf
	movss	%xmm0, 28(%rsp)         # 4-byte Spill
.Ltmp406:
	#DEBUG_VALUE: fCosRoll <- [DW_OP_plus_uconst 28] [%rsp+0]
	.loc	67 53 26                # ./libspatialaudio/build/Release/include/spatialaudio/AmbisonicProcessor.h:53:26
	movss	12(%rsp), %xmm0         # 4-byte Reload
                                        # xmm0 = mem[0],zero,zero,zero
	callq	sinf
	movss	%xmm0, 24(%rsp)         # 4-byte Spill
.Ltmp407:
	#DEBUG_VALUE: fSinRoll <- [DW_OP_plus_uconst 24] [%rsp+0]
	.loc	67 54 27                # ./libspatialaudio/build/Release/include/spatialaudio/AmbisonicProcessor.h:54:27
	movss	20(%rsp), %xmm0         # 4-byte Reload
                                        # xmm0 = mem[0],zero,zero,zero
	callq	cosf
	movss	%xmm0, 12(%rsp)         # 4-byte Spill
.Ltmp408:
	#DEBUG_VALUE: fCosPitch <- [DW_OP_plus_uconst 12] [%rsp+0]
	.loc	67 55 27                # ./libspatialaudio/build/Release/include/spatialaudio/AmbisonicProcessor.h:55:27
	movss	20(%rsp), %xmm0         # 4-byte Reload
                                        # xmm0 = mem[0],zero,zero,zero
	callq	sinf
	movss	28(%rsp), %xmm5         # 4-byte Reload
                                        # xmm5 = mem[0],zero,zero,zero
.Ltmp409:
	#DEBUG_VALUE: fCosRoll <- %xmm5
	movaps	%xmm0, %xmm4
.Ltmp410:
	#DEBUG_VALUE: fSinPitch <- %xmm4
	.loc	67 0 27 is_stmt 0       # ./libspatialaudio/build/Release/include/spatialaudio/AmbisonicProcessor.h:0:27
	movss	12(%rsp), %xmm0         # 4-byte Reload
                                        # xmm0 = mem[0],zero,zero,zero
.Ltmp411:
	#DEBUG_VALUE: fCosPitch <- %xmm0
	.loc	67 59 31 is_stmt 1      # ./libspatialaudio/build/Release/include/spatialaudio/AmbisonicProcessor.h:59:31
	movaps	%xmm5, %xmm6
	mulss	%xmm0, %xmm6
.Ltmp412:
	#DEBUG_VALUE: r33 <- %xmm6
	.loc	67 60 13                # ./libspatialaudio/build/Release/include/spatialaudio/AmbisonicProcessor.h:60:13
	ucomiss	.LCPI76_0(%rip), %xmm6
	jne	.LBB76_2
	jp	.LBB76_2
.Ltmp413:
# %bb.1:
	#DEBUG_VALUE: r33 <- %xmm6
	#DEBUG_VALUE: fCosPitch <- %xmm0
	#DEBUG_VALUE: fSinPitch <- %xmm4
	#DEBUG_VALUE: fCosRoll <- %xmm5
	#DEBUG_VALUE: fSinRoll <- [DW_OP_plus_uconst 24] [%rsp+0]
	#DEBUG_VALUE: fSinYaw <- [DW_OP_plus_uconst 32] [%rsp+0]
	#DEBUG_VALUE: fCosYaw <- [DW_OP_plus_uconst 16] [%rsp+0]
	#DEBUG_VALUE: Orientation:fYaw <- [DW_OP_plus_uconst 32] [%rsp+0]
	#DEBUG_VALUE: Orientation:fRoll <- [DW_OP_plus_uconst 12] [%rsp+0]
	#DEBUG_VALUE: Orientation:fPitch <- [DW_OP_plus_uconst 20] [%rsp+0]
	#DEBUG_VALUE: Orientation:this <- %rbx
	.loc	67 62 19                # ./libspatialaudio/build/Release/include/spatialaudio/AmbisonicProcessor.h:62:19
	movq	$0, 16(%rbx)
	.loc	67 64 22                # ./libspatialaudio/build/Release/include/spatialaudio/AmbisonicProcessor.h:64:22
	movaps	32(%rsp), %xmm0         # 16-byte Reload
.Ltmp414:
	movss	16(%rsp), %xmm1         # 4-byte Reload
                                        # xmm1 = mem[0],zero,zero,zero
	jmp	.LBB76_4
.Ltmp415:
.LBB76_2:
	#DEBUG_VALUE: r33 <- %xmm6
	#DEBUG_VALUE: fCosPitch <- %xmm0
	#DEBUG_VALUE: fSinPitch <- %xmm4
	#DEBUG_VALUE: fCosRoll <- %xmm5
	#DEBUG_VALUE: fSinRoll <- [DW_OP_plus_uconst 24] [%rsp+0]
	#DEBUG_VALUE: fSinYaw <- [DW_OP_plus_uconst 32] [%rsp+0]
	#DEBUG_VALUE: fCosYaw <- [DW_OP_plus_uconst 16] [%rsp+0]
	#DEBUG_VALUE: Orientation:fYaw <- [DW_OP_plus_uconst 32] [%rsp+0]
	#DEBUG_VALUE: Orientation:fRoll <- [DW_OP_plus_uconst 12] [%rsp+0]
	#DEBUG_VALUE: Orientation:fPitch <- [DW_OP_plus_uconst 20] [%rsp+0]
	#DEBUG_VALUE: Orientation:this <- %rbx
	.loc	67 0 22 is_stmt 0       # ./libspatialaudio/build/Release/include/spatialaudio/AmbisonicProcessor.h:0:22
	movss	24(%rsp), %xmm3         # 4-byte Reload
                                        # xmm3 = mem[0],zero,zero,zero
	movaps	32(%rsp), %xmm2         # 16-byte Reload
	movss	16(%rsp), %xmm1         # 4-byte Reload
                                        # xmm1 = mem[0],zero,zero,zero
.Ltmp416:
	.loc	67 68 17 is_stmt 1      # ./libspatialaudio/build/Release/include/spatialaudio/AmbisonicProcessor.h:68:17
	ucomiss	.LCPI76_1(%rip), %xmm6
	jne	.LBB76_5
	jp	.LBB76_5
.Ltmp417:
# %bb.3:
	#DEBUG_VALUE: r33 <- %xmm6
	#DEBUG_VALUE: fCosPitch <- %xmm0
	#DEBUG_VALUE: fSinPitch <- %xmm4
	#DEBUG_VALUE: fCosRoll <- %xmm5
	#DEBUG_VALUE: fSinRoll <- [DW_OP_plus_uconst 24] [%rsp+0]
	#DEBUG_VALUE: fSinYaw <- [DW_OP_plus_uconst 32] [%rsp+0]
	#DEBUG_VALUE: fCosYaw <- [DW_OP_plus_uconst 16] [%rsp+0]
	#DEBUG_VALUE: Orientation:fYaw <- [DW_OP_plus_uconst 32] [%rsp+0]
	#DEBUG_VALUE: Orientation:fRoll <- [DW_OP_plus_uconst 12] [%rsp+0]
	#DEBUG_VALUE: Orientation:fPitch <- [DW_OP_plus_uconst 20] [%rsp+0]
	#DEBUG_VALUE: Orientation:this <- %rbx
	.loc	67 70 23                # ./libspatialaudio/build/Release/include/spatialaudio/AmbisonicProcessor.h:70:23
	movq	$1078530011, 16(%rbx)   # imm = 0x40490FDB
	movaps	.LCPI76_2(%rip), %xmm0  # xmm0 = [-0.000000e+00,-0.000000e+00,-0.000000e+00,-0.000000e+00]
.Ltmp418:
	.loc	67 72 32                # ./libspatialaudio/build/Release/include/spatialaudio/AmbisonicProcessor.h:72:32
	xorps	%xmm2, %xmm0
.Ltmp419:
.LBB76_4:
	#DEBUG_VALUE: Orientation:fYaw <- [DW_OP_plus_uconst 32] [%rsp+0]
	#DEBUG_VALUE: Orientation:fRoll <- [DW_OP_plus_uconst 12] [%rsp+0]
	#DEBUG_VALUE: Orientation:fPitch <- [DW_OP_plus_uconst 20] [%rsp+0]
	#DEBUG_VALUE: Orientation:this <- %rbx
	.loc	67 0 32 is_stmt 0       # ./libspatialaudio/build/Release/include/spatialaudio/AmbisonicProcessor.h:0:32
	callq	_ZSt5atan2ff
	movss	%xmm0, 12(%rbx)
.Ltmp420:
.LBB76_6:
	#DEBUG_VALUE: Orientation:fYaw <- [DW_OP_plus_uconst 32] [%rsp+0]
	#DEBUG_VALUE: Orientation:fRoll <- [DW_OP_plus_uconst 12] [%rsp+0]
	#DEBUG_VALUE: Orientation:fPitch <- [DW_OP_plus_uconst 20] [%rsp+0]
	#DEBUG_VALUE: Orientation:this <- %rbx
	.loc	67 88 5 is_stmt 1       # ./libspatialaudio/build/Release/include/spatialaudio/AmbisonicProcessor.h:88:5
	addq	$48, %rsp
.Ltmp421:
	popq	%rbx
.Ltmp422:
	retq
.LBB76_5:
.Ltmp423:
	#DEBUG_VALUE: r33 <- %xmm6
	#DEBUG_VALUE: fCosPitch <- %xmm0
	#DEBUG_VALUE: fSinPitch <- %xmm4
	#DEBUG_VALUE: fCosRoll <- %xmm5
	#DEBUG_VALUE: fSinRoll <- [DW_OP_plus_uconst 24] [%rsp+0]
	#DEBUG_VALUE: fSinYaw <- [DW_OP_plus_uconst 32] [%rsp+0]
	#DEBUG_VALUE: fCosYaw <- [DW_OP_plus_uconst 16] [%rsp+0]
	#DEBUG_VALUE: Orientation:fYaw <- [DW_OP_plus_uconst 32] [%rsp+0]
	#DEBUG_VALUE: Orientation:fRoll <- [DW_OP_plus_uconst 12] [%rsp+0]
	#DEBUG_VALUE: Orientation:fPitch <- [DW_OP_plus_uconst 20] [%rsp+0]
	#DEBUG_VALUE: Orientation:this <- %rbx
	.loc	67 77 38                # ./libspatialaudio/build/Release/include/spatialaudio/AmbisonicProcessor.h:77:38
	movaps	%xmm1, %xmm0
.Ltmp424:
	mulss	%xmm3, %xmm0
.Ltmp425:
	#DEBUG_VALUE: r32 <- %xmm5
	.loc	67 78 38                # ./libspatialaudio/build/Release/include/spatialaudio/AmbisonicProcessor.h:78:38
	mulss	%xmm5, %xmm1
	.loc	67 77 60                # ./libspatialaudio/build/Release/include/spatialaudio/AmbisonicProcessor.h:77:60
	mulss	%xmm4, %xmm5
.Ltmp426:
	.loc	67 77 72 is_stmt 0      # ./libspatialaudio/build/Release/include/spatialaudio/AmbisonicProcessor.h:77:72
	mulss	%xmm2, %xmm5
	.loc	67 77 49                # ./libspatialaudio/build/Release/include/spatialaudio/AmbisonicProcessor.h:77:49
	subss	%xmm0, %xmm5
	.loc	67 78 48 is_stmt 1      # ./libspatialaudio/build/Release/include/spatialaudio/AmbisonicProcessor.h:78:48
	mulss	%xmm4, %xmm1
	.loc	67 78 71 is_stmt 0      # ./libspatialaudio/build/Release/include/spatialaudio/AmbisonicProcessor.h:78:71
	mulss	%xmm3, %xmm2
	.loc	67 78 60                # ./libspatialaudio/build/Release/include/spatialaudio/AmbisonicProcessor.h:78:60
	addss	%xmm1, %xmm2
.Ltmp427:
	#DEBUG_VALUE: r31 <- %xmm2
	.loc	67 79 26 is_stmt 1      # ./libspatialaudio/build/Release/include/spatialaudio/AmbisonicProcessor.h:79:26
	movaps	%xmm5, %xmm0
	movaps	%xmm2, %xmm1
	movss	%xmm4, 20(%rsp)         # 4-byte Spill
.Ltmp428:
	#DEBUG_VALUE: fSinPitch <- [DW_OP_plus_uconst 20] [%rsp+0]
	.loc	67 0 26 is_stmt 0       # ./libspatialaudio/build/Release/include/spatialaudio/AmbisonicProcessor.h:0:26
	movss	%xmm6, 16(%rsp)         # 4-byte Spill
.Ltmp429:
	#DEBUG_VALUE: r33 <- [DW_OP_plus_uconst 16] [%rsp+0]
	.loc	67 79 26                # ./libspatialaudio/build/Release/include/spatialaudio/AmbisonicProcessor.h:79:26
	callq	_ZSt5atan2ff
.Ltmp430:
	.loc	67 79 24                # ./libspatialaudio/build/Release/include/spatialaudio/AmbisonicProcessor.h:79:24
	movss	%xmm0, 12(%rbx)
	.loc	67 81 25 is_stmt 1      # ./libspatialaudio/build/Release/include/spatialaudio/AmbisonicProcessor.h:81:25
	movss	16(%rsp), %xmm0         # 4-byte Reload
                                        # xmm0 = mem[0],zero,zero,zero
	callq	_ZSt4acosf
	.loc	67 81 23 is_stmt 0      # ./libspatialaudio/build/Release/include/spatialaudio/AmbisonicProcessor.h:81:23
	movss	%xmm0, 16(%rbx)
	movss	12(%rsp), %xmm0         # 4-byte Reload
                                        # xmm0 = mem[0],zero,zero,zero
	.loc	67 83 39 is_stmt 1      # ./libspatialaudio/build/Release/include/spatialaudio/AmbisonicProcessor.h:83:39
	mulss	24(%rsp), %xmm0         # 4-byte Folded Reload
.Ltmp431:
	#DEBUG_VALUE: r23 <- %xmm0
	.loc	67 85 26                # ./libspatialaudio/build/Release/include/spatialaudio/AmbisonicProcessor.h:85:26
	movss	20(%rsp), %xmm1         # 4-byte Reload
                                        # xmm1 = mem[0],zero,zero,zero
	callq	_ZSt5atan2ff
.Ltmp432:
	.loc	67 85 24 is_stmt 0      # ./libspatialaudio/build/Release/include/spatialaudio/AmbisonicProcessor.h:85:24
	movss	%xmm0, 20(%rbx)
	jmp	.LBB76_6
.Ltmp433:
.Lfunc_end76:
	.size	_ZN11OrientationC2Efff, .Lfunc_end76-_ZN11OrientationC2Efff
	.cfi_endproc
                                        # -- End function
	.section	.text._ZSt5atan2ff,"axG",@progbits,_ZSt5atan2ff,comdat
	.weak	_ZSt5atan2ff            # -- Begin function _ZSt5atan2ff
	.p2align	4, 0x90
	.type	_ZSt5atan2ff,@function
_ZSt5atan2ff:                           # @_ZSt5atan2ff
.Lfunc_begin77:
	.loc	27 145 0 is_stmt 1      # /usr/lib/gcc/x86_64-linux-gnu/9/../../../../include/c++/9/cmath:145:0
	.cfi_startproc
# %bb.0:
	#DEBUG_VALUE: atan2:__y <- %xmm0
	#DEBUG_VALUE: atan2:__y <- %xmm0
	#DEBUG_VALUE: atan2:__y <- %xmm0
	#DEBUG_VALUE: atan2:__x <- %xmm1
	#DEBUG_VALUE: atan2:__x <- %xmm1
	#DEBUG_VALUE: atan2:__x <- %xmm1
	.loc	27 145 12 prologue_end  # /usr/lib/gcc/x86_64-linux-gnu/9/../../../../include/c++/9/cmath:145:12
	jmp	atan2f                  # TAILCALL
.Ltmp434:
.Lfunc_end77:
	.size	_ZSt5atan2ff, .Lfunc_end77-_ZSt5atan2ff
	.cfi_endproc
                                        # -- End function
	.section	.text._ZSt4acosf,"axG",@progbits,_ZSt4acosf,comdat
	.weak	_ZSt4acosf              # -- Begin function _ZSt4acosf
	.p2align	4, 0x90
	.type	_ZSt4acosf,@function
_ZSt4acosf:                             # @_ZSt4acosf
.Lfunc_begin78:
	.loc	27 88 0                 # /usr/lib/gcc/x86_64-linux-gnu/9/../../../../include/c++/9/cmath:88:0
	.cfi_startproc
# %bb.0:
	#DEBUG_VALUE: acos:__x <- %xmm0
	#DEBUG_VALUE: acos:__x <- %xmm0
	#DEBUG_VALUE: acos:__x <- %xmm0
	.loc	27 88 12 prologue_end   # /usr/lib/gcc/x86_64-linux-gnu/9/../../../../include/c++/9/cmath:88:12
	jmp	acosf                   # TAILCALL
.Ltmp435:
.Lfunc_end78:
	.size	_ZSt4acosf, .Lfunc_end78-_ZSt4acosf
	.cfi_endproc
                                        # -- End function
	.section	.text._ZNSt10unique_ptrIA_PfSt14default_deleteIS1_EED2Ev,"axG",@progbits,_ZNSt10unique_ptrIA_PfSt14default_deleteIS1_EED2Ev,comdat
	.weak	_ZNSt10unique_ptrIA_PfSt14default_deleteIS1_EED2Ev # -- Begin function _ZNSt10unique_ptrIA_PfSt14default_deleteIS1_EED2Ev
	.p2align	4, 0x90
	.type	_ZNSt10unique_ptrIA_PfSt14default_deleteIS1_EED2Ev,@function
_ZNSt10unique_ptrIA_PfSt14default_deleteIS1_EED2Ev: # @_ZNSt10unique_ptrIA_PfSt14default_deleteIS1_EED2Ev
.Lfunc_begin79:
	.file	68 "/usr/lib/gcc/x86_64-linux-gnu/9/../../../../include/c++/9/bits/unique_ptr.h"
	.loc	68 556 0                # /usr/lib/gcc/x86_64-linux-gnu/9/../../../../include/c++/9/bits/unique_ptr.h:556:0
	.cfi_startproc
# %bb.0:
	pushq	%r14
	.cfi_def_cfa_offset 16
	pushq	%rbx
	.cfi_def_cfa_offset 24
	pushq	%rax
	.cfi_def_cfa_offset 32
	.cfi_offset %rbx, -24
	.cfi_offset %r14, -16
	#DEBUG_VALUE: ~unique_ptr:this <- %rdi
	movq	%rdi, %r14
.Ltmp436:
	#DEBUG_VALUE: ~unique_ptr:this <- %r14
	.loc	68 557 21 prologue_end  # /usr/lib/gcc/x86_64-linux-gnu/9/../../../../include/c++/9/bits/unique_ptr.h:557:21
	callq	_ZNSt15__uniq_ptr_implIPfSt14default_deleteIA_S0_EE6_M_ptrEv
	movq	%rax, %rbx
.Ltmp437:
	#DEBUG_VALUE: __ptr <- %rbx
	.loc	68 558 12               # /usr/lib/gcc/x86_64-linux-gnu/9/../../../../include/c++/9/bits/unique_ptr.h:558:12
	cmpq	$0, (%rbx)
.Ltmp438:
	.loc	68 558 6 is_stmt 0      # /usr/lib/gcc/x86_64-linux-gnu/9/../../../../include/c++/9/bits/unique_ptr.h:558:6
	je	.LBB79_2
.Ltmp439:
# %bb.1:
	#DEBUG_VALUE: __ptr <- %rbx
	#DEBUG_VALUE: ~unique_ptr:this <- %r14
	.loc	68 559 4 is_stmt 1      # /usr/lib/gcc/x86_64-linux-gnu/9/../../../../include/c++/9/bits/unique_ptr.h:559:4
	movq	%r14, %rdi
	callq	_ZNSt10unique_ptrIA_PfSt14default_deleteIS1_EE11get_deleterEv
	.loc	68 559 18 is_stmt 0     # /usr/lib/gcc/x86_64-linux-gnu/9/../../../../include/c++/9/bits/unique_ptr.h:559:18
	movq	(%rbx), %rsi
	.loc	68 559 4                # /usr/lib/gcc/x86_64-linux-gnu/9/../../../../include/c++/9/bits/unique_ptr.h:559:4
	movq	%rax, %rdi
	callq	_ZNKSt14default_deleteIA_PfEclIS0_EENSt9enable_ifIXsr14is_convertibleIPA_T_PS1_EE5valueEvE4typeEPS5_
.Ltmp440:
.LBB79_2:
	#DEBUG_VALUE: __ptr <- %rbx
	#DEBUG_VALUE: ~unique_ptr:this <- %r14
	.loc	68 560 8 is_stmt 1      # /usr/lib/gcc/x86_64-linux-gnu/9/../../../../include/c++/9/bits/unique_ptr.h:560:8
	movq	$0, (%rbx)
.Ltmp441:
	.loc	68 561 7                # /usr/lib/gcc/x86_64-linux-gnu/9/../../../../include/c++/9/bits/unique_ptr.h:561:7
	addq	$8, %rsp
	popq	%rbx
.Ltmp442:
	popq	%r14
.Ltmp443:
	retq
.Ltmp444:
.Lfunc_end79:
	.size	_ZNSt10unique_ptrIA_PfSt14default_deleteIS1_EED2Ev, .Lfunc_end79-_ZNSt10unique_ptrIA_PfSt14default_deleteIS1_EED2Ev
	.cfi_endproc
	.file	69 "/usr/lib/gcc/x86_64-linux-gnu/9/../../../../include/c++/9/tuple"
	.file	70 "/usr/lib/gcc/x86_64-linux-gnu/9/../../../../include/c++/9/bits/uses_allocator.h"
                                        # -- End function
	.section	.text._ZNSt6vectorIfSaIfEED2Ev,"axG",@progbits,_ZNSt6vectorIfSaIfEED2Ev,comdat
	.weak	_ZNSt6vectorIfSaIfEED2Ev # -- Begin function _ZNSt6vectorIfSaIfEED2Ev
	.p2align	4, 0x90
	.type	_ZNSt6vectorIfSaIfEED2Ev,@function
_ZNSt6vectorIfSaIfEED2Ev:               # @_ZNSt6vectorIfSaIfEED2Ev
.Lfunc_begin80:
	.loc	12 676 0                # /usr/lib/gcc/x86_64-linux-gnu/9/../../../../include/c++/9/bits/stl_vector.h:676:0
	.cfi_startproc
	.cfi_personality 3, __gxx_personality_v0
	.cfi_lsda 3, .Lexception3
# %bb.0:
	pushq	%r15
	.cfi_def_cfa_offset 16
	pushq	%r14
	.cfi_def_cfa_offset 24
	pushq	%rbx
	.cfi_def_cfa_offset 32
	.cfi_offset %rbx, -32
	.cfi_offset %r14, -24
	.cfi_offset %r15, -16
	#DEBUG_VALUE: ~vector:this <- %rdi
	movq	%rdi, %rbx
.Ltmp448:
	#DEBUG_VALUE: ~vector:this <- %rbx
	.loc	12 677 30 prologue_end  # /usr/lib/gcc/x86_64-linux-gnu/9/../../../../include/c++/9/bits/stl_vector.h:677:30
	movq	(%rbx), %r14
	.loc	12 677 54 is_stmt 0     # /usr/lib/gcc/x86_64-linux-gnu/9/../../../../include/c++/9/bits/stl_vector.h:677:54
	movq	8(%rbx), %r15
	.loc	12 678 9 is_stmt 1      # /usr/lib/gcc/x86_64-linux-gnu/9/../../../../include/c++/9/bits/stl_vector.h:678:9
	callq	_ZNSt12_Vector_baseIfSaIfEE19_M_get_Tp_allocatorEv
.Ltmp445:
	.loc	12 677 2                # /usr/lib/gcc/x86_64-linux-gnu/9/../../../../include/c++/9/bits/stl_vector.h:677:2
	movq	%r14, %rdi
	movq	%r15, %rsi
	movq	%rax, %rdx
	callq	_ZSt8_DestroyIPffEvT_S1_RSaIT0_E
.Ltmp446:
.Ltmp449:
# %bb.1:
	#DEBUG_VALUE: ~vector:this <- %rbx
	.loc	12 680 7                # /usr/lib/gcc/x86_64-linux-gnu/9/../../../../include/c++/9/bits/stl_vector.h:680:7
	movq	%rbx, %rdi
	popq	%rbx
.Ltmp450:
	popq	%r14
	popq	%r15
	jmp	_ZNSt12_Vector_baseIfSaIfEED2Ev # TAILCALL
.LBB80_2:
.Ltmp451:
	#DEBUG_VALUE: ~vector:this <- %rbx
.Ltmp447:
	.loc	12 0 7 is_stmt 0        # /usr/lib/gcc/x86_64-linux-gnu/9/../../../../include/c++/9/bits/stl_vector.h:0:7
	movq	%rax, %r14
	.loc	12 680 7                # /usr/lib/gcc/x86_64-linux-gnu/9/../../../../include/c++/9/bits/stl_vector.h:680:7
	movq	%rbx, %rdi
	callq	_ZNSt12_Vector_baseIfSaIfEED2Ev
	movq	%r14, %rdi
	callq	__clang_call_terminate
.Ltmp452:
.Lfunc_end80:
	.size	_ZNSt6vectorIfSaIfEED2Ev, .Lfunc_end80-_ZNSt6vectorIfSaIfEED2Ev
	.cfi_endproc
	.section	.gcc_except_table,"a",@progbits
	.p2align	2
GCC_except_table80:
.Lexception3:
	.byte	255                     # @LPStart Encoding = omit
	.byte	3                       # @TType Encoding = udata4
	.byte	21                      # @TType base offset
	.byte	3                       # Call site Encoding = udata4
	.byte	13                      # Call site table length
	.long	.Ltmp445-.Lfunc_begin80 # >> Call Site 1 <<
	.long	.Ltmp446-.Ltmp445       #   Call between .Ltmp445 and .Ltmp446
	.long	.Ltmp447-.Lfunc_begin80 #     jumps to .Ltmp447
	.byte	1                       #   On action: 1
	.byte	1                       # >> Action Record 1 <<
                                        #   Catch TypeInfo 1
	.byte	0                       #   No further actions
                                        # >> Catch TypeInfos <<
	.long	0                       # TypeInfo 1
	.p2align	2
                                        # -- End function
	.section	.text._ZN14CAmbisonicBaseD2Ev,"axG",@progbits,_ZN14CAmbisonicBaseD2Ev,comdat
	.weak	_ZN14CAmbisonicBaseD2Ev # -- Begin function _ZN14CAmbisonicBaseD2Ev
	.p2align	4, 0x90
	.type	_ZN14CAmbisonicBaseD2Ev,@function
_ZN14CAmbisonicBaseD2Ev:                # @_ZN14CAmbisonicBaseD2Ev
.Lfunc_begin81:
	.file	71 "/home/yingj4/Desktop/cs598jtfa20/project/audio_pipeline/./libspatialaudio/build/Release/include/spatialaudio/AmbisonicBase.h"
	.loc	71 30 0 is_stmt 1       # ./libspatialaudio/build/Release/include/spatialaudio/AmbisonicBase.h:30:0
	.cfi_startproc
# %bb.0:
	#DEBUG_VALUE: ~CAmbisonicBase:this <- %rdi
	.loc	71 30 39 prologue_end   # ./libspatialaudio/build/Release/include/spatialaudio/AmbisonicBase.h:30:39
	retq
.Ltmp453:
.Lfunc_end81:
	.size	_ZN14CAmbisonicBaseD2Ev, .Lfunc_end81-_ZN14CAmbisonicBaseD2Ev
	.cfi_endproc
                                        # -- End function
	.section	.text._ZNSt12_Vector_baseIfSaIfEE19_M_get_Tp_allocatorEv,"axG",@progbits,_ZNSt12_Vector_baseIfSaIfEE19_M_get_Tp_allocatorEv,comdat
	.weak	_ZNSt12_Vector_baseIfSaIfEE19_M_get_Tp_allocatorEv # -- Begin function _ZNSt12_Vector_baseIfSaIfEE19_M_get_Tp_allocatorEv
	.p2align	4, 0x90
	.type	_ZNSt12_Vector_baseIfSaIfEE19_M_get_Tp_allocatorEv,@function
_ZNSt12_Vector_baseIfSaIfEE19_M_get_Tp_allocatorEv: # @_ZNSt12_Vector_baseIfSaIfEE19_M_get_Tp_allocatorEv
.Lfunc_begin82:
	.loc	12 274 0                # /usr/lib/gcc/x86_64-linux-gnu/9/../../../../include/c++/9/bits/stl_vector.h:274:0
	.cfi_startproc
# %bb.0:
	#DEBUG_VALUE: _M_get_Tp_allocator:this <- %rdi
	#DEBUG_VALUE: _M_get_Tp_allocator:this <- %rdi
	.loc	12 274 9 prologue_end   # /usr/lib/gcc/x86_64-linux-gnu/9/../../../../include/c++/9/bits/stl_vector.h:274:9
	movq	%rdi, %rax
.Ltmp454:
	#DEBUG_VALUE: _M_get_Tp_allocator:this <- %rax
	retq
.Ltmp455:
.Lfunc_end82:
	.size	_ZNSt12_Vector_baseIfSaIfEE19_M_get_Tp_allocatorEv, .Lfunc_end82-_ZNSt12_Vector_baseIfSaIfEE19_M_get_Tp_allocatorEv
	.cfi_endproc
                                        # -- End function
	.section	.text._ZSt8_DestroyIPffEvT_S1_RSaIT0_E,"axG",@progbits,_ZSt8_DestroyIPffEvT_S1_RSaIT0_E,comdat
	.weak	_ZSt8_DestroyIPffEvT_S1_RSaIT0_E # -- Begin function _ZSt8_DestroyIPffEvT_S1_RSaIT0_E
	.p2align	4, 0x90
	.type	_ZSt8_DestroyIPffEvT_S1_RSaIT0_E,@function
_ZSt8_DestroyIPffEvT_S1_RSaIT0_E:       # @_ZSt8_DestroyIPffEvT_S1_RSaIT0_E
.Lfunc_begin83:
	.file	72 "/usr/lib/gcc/x86_64-linux-gnu/9/../../../../include/c++/9/bits/stl_construct.h"
	.loc	72 205 0                # /usr/lib/gcc/x86_64-linux-gnu/9/../../../../include/c++/9/bits/stl_construct.h:205:0
	.cfi_startproc
# %bb.0:
	#DEBUG_VALUE: _Destroy<float *, float>:__first <- %rdi
	#DEBUG_VALUE: _Destroy<float *, float>:__first <- %rdi
	#DEBUG_VALUE: _Destroy<float *, float>:__first <- %rdi
	#DEBUG_VALUE: _Destroy<float *, float>:__last <- %rsi
	#DEBUG_VALUE: _Destroy<float *, float>:__last <- %rsi
	#DEBUG_VALUE: _Destroy<float *, float>:__last <- %rsi
	#DEBUG_VALUE: _Destroy<float *, float>: <- %rdx
	.loc	72 206 7 prologue_end   # /usr/lib/gcc/x86_64-linux-gnu/9/../../../../include/c++/9/bits/stl_construct.h:206:7
	jmp	_ZSt8_DestroyIPfEvT_S1_ # TAILCALL
.Ltmp456:
.Lfunc_end83:
	.size	_ZSt8_DestroyIPffEvT_S1_RSaIT0_E, .Lfunc_end83-_ZSt8_DestroyIPffEvT_S1_RSaIT0_E
	.cfi_endproc
                                        # -- End function
	.section	.text._ZNSt12_Vector_baseIfSaIfEED2Ev,"axG",@progbits,_ZNSt12_Vector_baseIfSaIfEED2Ev,comdat
	.weak	_ZNSt12_Vector_baseIfSaIfEED2Ev # -- Begin function _ZNSt12_Vector_baseIfSaIfEED2Ev
	.p2align	4, 0x90
	.type	_ZNSt12_Vector_baseIfSaIfEED2Ev,@function
_ZNSt12_Vector_baseIfSaIfEED2Ev:        # @_ZNSt12_Vector_baseIfSaIfEED2Ev
.Lfunc_begin84:
	.loc	12 331 0                # /usr/lib/gcc/x86_64-linux-gnu/9/../../../../include/c++/9/bits/stl_vector.h:331:0
	.cfi_startproc
	.cfi_personality 3, __gxx_personality_v0
	.cfi_lsda 3, .Lexception4
# %bb.0:
	pushq	%r14
	.cfi_def_cfa_offset 16
	pushq	%rbx
	.cfi_def_cfa_offset 24
	pushq	%rax
	.cfi_def_cfa_offset 32
	.cfi_offset %rbx, -24
	.cfi_offset %r14, -16
	#DEBUG_VALUE: ~_Vector_base:this <- %rdi
	movq	%rdi, %rbx
.Ltmp460:
	#DEBUG_VALUE: ~_Vector_base:this <- %rbx
	.loc	12 332 24 prologue_end  # /usr/lib/gcc/x86_64-linux-gnu/9/../../../../include/c++/9/bits/stl_vector.h:332:24
	movq	(%rbx), %rsi
	.loc	12 333 17               # /usr/lib/gcc/x86_64-linux-gnu/9/../../../../include/c++/9/bits/stl_vector.h:333:17
	movq	16(%rbx), %rdx
	.loc	12 333 35 is_stmt 0     # /usr/lib/gcc/x86_64-linux-gnu/9/../../../../include/c++/9/bits/stl_vector.h:333:35
	subq	%rsi, %rdx
	sarq	$2, %rdx
.Ltmp457:
	.loc	12 332 2 is_stmt 1      # /usr/lib/gcc/x86_64-linux-gnu/9/../../../../include/c++/9/bits/stl_vector.h:332:2
	callq	_ZNSt12_Vector_baseIfSaIfEE13_M_deallocateEPfm
.Ltmp458:
.Ltmp461:
# %bb.1:
	#DEBUG_VALUE: ~_Vector_base:this <- %rbx
	.loc	12 334 7                # /usr/lib/gcc/x86_64-linux-gnu/9/../../../../include/c++/9/bits/stl_vector.h:334:7
	movq	%rbx, %rdi
	addq	$8, %rsp
	popq	%rbx
.Ltmp462:
	popq	%r14
	jmp	_ZN9__gnu_cxx13new_allocatorIfED2Ev # TAILCALL
.LBB84_2:
.Ltmp463:
	#DEBUG_VALUE: ~_Vector_base:this <- %rbx
.Ltmp459:
	.loc	12 0 7 is_stmt 0        # /usr/lib/gcc/x86_64-linux-gnu/9/../../../../include/c++/9/bits/stl_vector.h:0:7
	movq	%rax, %r14
	.loc	12 334 7                # /usr/lib/gcc/x86_64-linux-gnu/9/../../../../include/c++/9/bits/stl_vector.h:334:7
	movq	%rbx, %rdi
	callq	_ZN9__gnu_cxx13new_allocatorIfED2Ev
	movq	%r14, %rdi
	callq	__clang_call_terminate
.Ltmp464:
.Lfunc_end84:
	.size	_ZNSt12_Vector_baseIfSaIfEED2Ev, .Lfunc_end84-_ZNSt12_Vector_baseIfSaIfEED2Ev
	.cfi_endproc
	.section	.gcc_except_table,"a",@progbits
	.p2align	2
GCC_except_table84:
.Lexception4:
	.byte	255                     # @LPStart Encoding = omit
	.byte	3                       # @TType Encoding = udata4
	.byte	21                      # @TType base offset
	.byte	3                       # Call site Encoding = udata4
	.byte	13                      # Call site table length
	.long	.Ltmp457-.Lfunc_begin84 # >> Call Site 1 <<
	.long	.Ltmp458-.Ltmp457       #   Call between .Ltmp457 and .Ltmp458
	.long	.Ltmp459-.Lfunc_begin84 #     jumps to .Ltmp459
	.byte	1                       #   On action: 1
	.byte	1                       # >> Action Record 1 <<
                                        #   Catch TypeInfo 1
	.byte	0                       #   No further actions
                                        # >> Catch TypeInfos <<
	.long	0                       # TypeInfo 1
	.p2align	2
                                        # -- End function
	.section	.text._ZNSt12_Vector_baseIfSaIfEE13_M_deallocateEPfm,"axG",@progbits,_ZNSt12_Vector_baseIfSaIfEE13_M_deallocateEPfm,comdat
	.weak	_ZNSt12_Vector_baseIfSaIfEE13_M_deallocateEPfm # -- Begin function _ZNSt12_Vector_baseIfSaIfEE13_M_deallocateEPfm
	.p2align	4, 0x90
	.type	_ZNSt12_Vector_baseIfSaIfEE13_M_deallocateEPfm,@function
_ZNSt12_Vector_baseIfSaIfEE13_M_deallocateEPfm: # @_ZNSt12_Vector_baseIfSaIfEE13_M_deallocateEPfm
.Lfunc_begin85:
	.loc	12 348 0 is_stmt 1      # /usr/lib/gcc/x86_64-linux-gnu/9/../../../../include/c++/9/bits/stl_vector.h:348:0
	.cfi_startproc
# %bb.0:
	#DEBUG_VALUE: _M_deallocate:this <- %rdi
	#DEBUG_VALUE: _M_deallocate:this <- %rdi
	#DEBUG_VALUE: _M_deallocate:__p <- %rsi
	#DEBUG_VALUE: _M_deallocate:__p <- %rsi
	#DEBUG_VALUE: _M_deallocate:__n <- %rdx
	#DEBUG_VALUE: _M_deallocate:__n <- %rdx
	.loc	12 350 6 prologue_end   # /usr/lib/gcc/x86_64-linux-gnu/9/../../../../include/c++/9/bits/stl_vector.h:350:6
	testq	%rsi, %rsi
.Ltmp465:
	.loc	12 350 6 is_stmt 0      # /usr/lib/gcc/x86_64-linux-gnu/9/../../../../include/c++/9/bits/stl_vector.h:350:6
	je	.LBB85_1
# %bb.2:
	#DEBUG_VALUE: _M_deallocate:__n <- %rdx
	#DEBUG_VALUE: _M_deallocate:__p <- %rsi
	#DEBUG_VALUE: _M_deallocate:this <- %rdi
.Ltmp466:
	.loc	12 351 4 is_stmt 1      # /usr/lib/gcc/x86_64-linux-gnu/9/../../../../include/c++/9/bits/stl_vector.h:351:4
	jmp	_ZNSt16allocator_traitsISaIfEE10deallocateERS0_Pfm # TAILCALL
.Ltmp467:
.LBB85_1:
	#DEBUG_VALUE: _M_deallocate:__n <- %rdx
	#DEBUG_VALUE: _M_deallocate:__p <- %rsi
	#DEBUG_VALUE: _M_deallocate:this <- %rdi
	.loc	12 352 7                # /usr/lib/gcc/x86_64-linux-gnu/9/../../../../include/c++/9/bits/stl_vector.h:352:7
	retq
.Ltmp468:
.Lfunc_end85:
	.size	_ZNSt12_Vector_baseIfSaIfEE13_M_deallocateEPfm, .Lfunc_end85-_ZNSt12_Vector_baseIfSaIfEE13_M_deallocateEPfm
	.cfi_endproc
                                        # -- End function
	.section	.text._ZN9__gnu_cxx13new_allocatorIfED2Ev,"axG",@progbits,_ZN9__gnu_cxx13new_allocatorIfED2Ev,comdat
	.weak	_ZN9__gnu_cxx13new_allocatorIfED2Ev # -- Begin function _ZN9__gnu_cxx13new_allocatorIfED2Ev
	.p2align	4, 0x90
	.type	_ZN9__gnu_cxx13new_allocatorIfED2Ev,@function
_ZN9__gnu_cxx13new_allocatorIfED2Ev:    # @_ZN9__gnu_cxx13new_allocatorIfED2Ev
.Lfunc_begin86:
	.loc	7 89 0                  # /usr/lib/gcc/x86_64-linux-gnu/9/../../../../include/c++/9/ext/new_allocator.h:89:0
	.cfi_startproc
# %bb.0:
	#DEBUG_VALUE: ~new_allocator:this <- %rdi
	.loc	7 89 48 prologue_end    # /usr/lib/gcc/x86_64-linux-gnu/9/../../../../include/c++/9/ext/new_allocator.h:89:48
	retq
.Ltmp469:
.Lfunc_end86:
	.size	_ZN9__gnu_cxx13new_allocatorIfED2Ev, .Lfunc_end86-_ZN9__gnu_cxx13new_allocatorIfED2Ev
	.cfi_endproc
                                        # -- End function
	.section	.text._ZNSt16allocator_traitsISaIfEE10deallocateERS0_Pfm,"axG",@progbits,_ZNSt16allocator_traitsISaIfEE10deallocateERS0_Pfm,comdat
	.weak	_ZNSt16allocator_traitsISaIfEE10deallocateERS0_Pfm # -- Begin function _ZNSt16allocator_traitsISaIfEE10deallocateERS0_Pfm
	.p2align	4, 0x90
	.type	_ZNSt16allocator_traitsISaIfEE10deallocateERS0_Pfm,@function
_ZNSt16allocator_traitsISaIfEE10deallocateERS0_Pfm: # @_ZNSt16allocator_traitsISaIfEE10deallocateERS0_Pfm
.Lfunc_begin87:
	.loc	2 470 0                 # /usr/lib/gcc/x86_64-linux-gnu/9/../../../../include/c++/9/bits/alloc_traits.h:470:0
	.cfi_startproc
# %bb.0:
	#DEBUG_VALUE: deallocate:__a <- %rdi
	#DEBUG_VALUE: deallocate:__a <- %rdi
	#DEBUG_VALUE: deallocate:__a <- %rdi
	#DEBUG_VALUE: deallocate:__p <- %rsi
	#DEBUG_VALUE: deallocate:__p <- %rsi
	#DEBUG_VALUE: deallocate:__p <- %rsi
	#DEBUG_VALUE: deallocate:__n <- %rdx
	#DEBUG_VALUE: deallocate:__n <- %rdx
	#DEBUG_VALUE: deallocate:__n <- %rdx
	.loc	2 470 13 prologue_end   # /usr/lib/gcc/x86_64-linux-gnu/9/../../../../include/c++/9/bits/alloc_traits.h:470:13
	jmp	_ZN9__gnu_cxx13new_allocatorIfE10deallocateEPfm # TAILCALL
.Ltmp470:
.Lfunc_end87:
	.size	_ZNSt16allocator_traitsISaIfEE10deallocateERS0_Pfm, .Lfunc_end87-_ZNSt16allocator_traitsISaIfEE10deallocateERS0_Pfm
	.cfi_endproc
                                        # -- End function
	.section	.text._ZN9__gnu_cxx13new_allocatorIfE10deallocateEPfm,"axG",@progbits,_ZN9__gnu_cxx13new_allocatorIfE10deallocateEPfm,comdat
	.weak	_ZN9__gnu_cxx13new_allocatorIfE10deallocateEPfm # -- Begin function _ZN9__gnu_cxx13new_allocatorIfE10deallocateEPfm
	.p2align	4, 0x90
	.type	_ZN9__gnu_cxx13new_allocatorIfE10deallocateEPfm,@function
_ZN9__gnu_cxx13new_allocatorIfE10deallocateEPfm: # @_ZN9__gnu_cxx13new_allocatorIfE10deallocateEPfm
.Lfunc_begin88:
	.loc	7 120 0                 # /usr/lib/gcc/x86_64-linux-gnu/9/../../../../include/c++/9/ext/new_allocator.h:120:0
	.cfi_startproc
# %bb.0:
	#DEBUG_VALUE: deallocate:this <- %rdi
	#DEBUG_VALUE: deallocate:__p <- %rsi
	#DEBUG_VALUE: deallocate:__p <- %rsi
	#DEBUG_VALUE: deallocate: <- %rdx
	.loc	7 128 2 prologue_end    # /usr/lib/gcc/x86_64-linux-gnu/9/../../../../include/c++/9/ext/new_allocator.h:128:2
	movq	%rsi, %rdi
.Ltmp471:
	#DEBUG_VALUE: deallocate:__p <- %rdi
	jmp	_ZdlPv                  # TAILCALL
.Ltmp472:
.Lfunc_end88:
	.size	_ZN9__gnu_cxx13new_allocatorIfE10deallocateEPfm, .Lfunc_end88-_ZN9__gnu_cxx13new_allocatorIfE10deallocateEPfm
	.cfi_endproc
                                        # -- End function
	.section	.text._ZSt8_DestroyIPfEvT_S1_,"axG",@progbits,_ZSt8_DestroyIPfEvT_S1_,comdat
	.weak	_ZSt8_DestroyIPfEvT_S1_ # -- Begin function _ZSt8_DestroyIPfEvT_S1_
	.p2align	4, 0x90
	.type	_ZSt8_DestroyIPfEvT_S1_,@function
_ZSt8_DestroyIPfEvT_S1_:                # @_ZSt8_DestroyIPfEvT_S1_
.Lfunc_begin89:
	.loc	72 128 0                # /usr/lib/gcc/x86_64-linux-gnu/9/../../../../include/c++/9/bits/stl_construct.h:128:0
	.cfi_startproc
# %bb.0:
	#DEBUG_VALUE: _Destroy<float *>:__first <- %rdi
	#DEBUG_VALUE: _Destroy<float *>:__first <- %rdi
	#DEBUG_VALUE: _Destroy<float *>:__first <- %rdi
	#DEBUG_VALUE: _Destroy<float *>:__last <- %rsi
	#DEBUG_VALUE: _Destroy<float *>:__last <- %rsi
	#DEBUG_VALUE: _Destroy<float *>:__last <- %rsi
	.loc	72 136 7 prologue_end   # /usr/lib/gcc/x86_64-linux-gnu/9/../../../../include/c++/9/bits/stl_construct.h:136:7
	jmp	_ZNSt12_Destroy_auxILb1EE9__destroyIPfEEvT_S3_ # TAILCALL
.Ltmp473:
.Lfunc_end89:
	.size	_ZSt8_DestroyIPfEvT_S1_, .Lfunc_end89-_ZSt8_DestroyIPfEvT_S1_
	.cfi_endproc
                                        # -- End function
	.section	.text._ZNSt12_Destroy_auxILb1EE9__destroyIPfEEvT_S3_,"axG",@progbits,_ZNSt12_Destroy_auxILb1EE9__destroyIPfEEvT_S3_,comdat
	.weak	_ZNSt12_Destroy_auxILb1EE9__destroyIPfEEvT_S3_ # -- Begin function _ZNSt12_Destroy_auxILb1EE9__destroyIPfEEvT_S3_
	.p2align	4, 0x90
	.type	_ZNSt12_Destroy_auxILb1EE9__destroyIPfEEvT_S3_,@function
_ZNSt12_Destroy_auxILb1EE9__destroyIPfEEvT_S3_: # @_ZNSt12_Destroy_auxILb1EE9__destroyIPfEEvT_S3_
.Lfunc_begin90:
	.loc	72 117 0                # /usr/lib/gcc/x86_64-linux-gnu/9/../../../../include/c++/9/bits/stl_construct.h:117:0
	.cfi_startproc
# %bb.0:
	#DEBUG_VALUE: __destroy<float *>: <- %rdi
	#DEBUG_VALUE: __destroy<float *>: <- %rsi
	.loc	72 117 57 prologue_end  # /usr/lib/gcc/x86_64-linux-gnu/9/../../../../include/c++/9/bits/stl_construct.h:117:57
	retq
.Ltmp474:
.Lfunc_end90:
	.size	_ZNSt12_Destroy_auxILb1EE9__destroyIPfEEvT_S3_, .Lfunc_end90-_ZNSt12_Destroy_auxILb1EE9__destroyIPfEEvT_S3_
	.cfi_endproc
                                        # -- End function
	.section	.text._ZNSt15__uniq_ptr_implIPfSt14default_deleteIA_S0_EE6_M_ptrEv,"axG",@progbits,_ZNSt15__uniq_ptr_implIPfSt14default_deleteIA_S0_EE6_M_ptrEv,comdat
	.weak	_ZNSt15__uniq_ptr_implIPfSt14default_deleteIA_S0_EE6_M_ptrEv # -- Begin function _ZNSt15__uniq_ptr_implIPfSt14default_deleteIA_S0_EE6_M_ptrEv
	.p2align	4, 0x90
	.type	_ZNSt15__uniq_ptr_implIPfSt14default_deleteIA_S0_EE6_M_ptrEv,@function
_ZNSt15__uniq_ptr_implIPfSt14default_deleteIA_S0_EE6_M_ptrEv: # @_ZNSt15__uniq_ptr_implIPfSt14default_deleteIA_S0_EE6_M_ptrEv
.Lfunc_begin91:
	.loc	68 153 0                # /usr/lib/gcc/x86_64-linux-gnu/9/../../../../include/c++/9/bits/unique_ptr.h:153:0
	.cfi_startproc
# %bb.0:
	#DEBUG_VALUE: _M_ptr:this <- %rdi
	#DEBUG_VALUE: _M_ptr:this <- %rdi
	#DEBUG_VALUE: _M_ptr:this <- %rdi
	.loc	68 153 36 prologue_end  # /usr/lib/gcc/x86_64-linux-gnu/9/../../../../include/c++/9/bits/unique_ptr.h:153:36
	jmp	_ZSt3getILm0EJPPfSt14default_deleteIA_S0_EEERNSt13tuple_elementIXT_ESt5tupleIJDpT0_EEE4typeERS9_ # TAILCALL
.Ltmp475:
.Lfunc_end91:
	.size	_ZNSt15__uniq_ptr_implIPfSt14default_deleteIA_S0_EE6_M_ptrEv, .Lfunc_end91-_ZNSt15__uniq_ptr_implIPfSt14default_deleteIA_S0_EE6_M_ptrEv
	.cfi_endproc
                                        # -- End function
	.section	.text._ZNSt10unique_ptrIA_PfSt14default_deleteIS1_EE11get_deleterEv,"axG",@progbits,_ZNSt10unique_ptrIA_PfSt14default_deleteIS1_EE11get_deleterEv,comdat
	.weak	_ZNSt10unique_ptrIA_PfSt14default_deleteIS1_EE11get_deleterEv # -- Begin function _ZNSt10unique_ptrIA_PfSt14default_deleteIS1_EE11get_deleterEv
	.p2align	4, 0x90
	.type	_ZNSt10unique_ptrIA_PfSt14default_deleteIS1_EE11get_deleterEv,@function
_ZNSt10unique_ptrIA_PfSt14default_deleteIS1_EE11get_deleterEv: # @_ZNSt10unique_ptrIA_PfSt14default_deleteIS1_EE11get_deleterEv
.Lfunc_begin92:
	.loc	68 625 0                # /usr/lib/gcc/x86_64-linux-gnu/9/../../../../include/c++/9/bits/unique_ptr.h:625:0
	.cfi_startproc
# %bb.0:
	#DEBUG_VALUE: get_deleter:this <- %rdi
	#DEBUG_VALUE: get_deleter:this <- %rdi
	#DEBUG_VALUE: get_deleter:this <- %rdi
	.loc	68 625 21 prologue_end  # /usr/lib/gcc/x86_64-linux-gnu/9/../../../../include/c++/9/bits/unique_ptr.h:625:21
	jmp	_ZNSt15__uniq_ptr_implIPfSt14default_deleteIA_S0_EE10_M_deleterEv # TAILCALL
.Ltmp476:
.Lfunc_end92:
	.size	_ZNSt10unique_ptrIA_PfSt14default_deleteIS1_EE11get_deleterEv, .Lfunc_end92-_ZNSt10unique_ptrIA_PfSt14default_deleteIS1_EE11get_deleterEv
	.cfi_endproc
                                        # -- End function
	.section	.text._ZNKSt14default_deleteIA_PfEclIS0_EENSt9enable_ifIXsr14is_convertibleIPA_T_PS1_EE5valueEvE4typeEPS5_,"axG",@progbits,_ZNKSt14default_deleteIA_PfEclIS0_EENSt9enable_ifIXsr14is_convertibleIPA_T_PS1_EE5valueEvE4typeEPS5_,comdat
	.weak	_ZNKSt14default_deleteIA_PfEclIS0_EENSt9enable_ifIXsr14is_convertibleIPA_T_PS1_EE5valueEvE4typeEPS5_ # -- Begin function _ZNKSt14default_deleteIA_PfEclIS0_EENSt9enable_ifIXsr14is_convertibleIPA_T_PS1_EE5valueEvE4typeEPS5_
	.p2align	4, 0x90
	.type	_ZNKSt14default_deleteIA_PfEclIS0_EENSt9enable_ifIXsr14is_convertibleIPA_T_PS1_EE5valueEvE4typeEPS5_,@function
_ZNKSt14default_deleteIA_PfEclIS0_EENSt9enable_ifIXsr14is_convertibleIPA_T_PS1_EE5valueEvE4typeEPS5_: # @_ZNKSt14default_deleteIA_PfEclIS0_EENSt9enable_ifIXsr14is_convertibleIPA_T_PS1_EE5valueEvE4typeEPS5_
.Lfunc_begin93:
	.loc	68 112 0                # /usr/lib/gcc/x86_64-linux-gnu/9/../../../../include/c++/9/bits/unique_ptr.h:112:0
	.cfi_startproc
# %bb.0:
	#DEBUG_VALUE: operator()<float *>:this <- %rdi
	#DEBUG_VALUE: operator()<float *>:__ptr <- %rsi
	#DEBUG_VALUE: operator()<float *>:__ptr <- %rsi
	.loc	68 115 2 prologue_end   # /usr/lib/gcc/x86_64-linux-gnu/9/../../../../include/c++/9/bits/unique_ptr.h:115:2
	testq	%rsi, %rsi
	je	.LBB93_1
# %bb.2:
	#DEBUG_VALUE: operator()<float *>:__ptr <- %rsi
	#DEBUG_VALUE: operator()<float *>:this <- %rdi
	movq	%rsi, %rdi
	jmp	_ZdaPv                  # TAILCALL
.LBB93_1:
	#DEBUG_VALUE: operator()<float *>:__ptr <- %rsi
	#DEBUG_VALUE: operator()<float *>:this <- %rdi
	.loc	68 116 7                # /usr/lib/gcc/x86_64-linux-gnu/9/../../../../include/c++/9/bits/unique_ptr.h:116:7
	retq
.Ltmp477:
.Lfunc_end93:
	.size	_ZNKSt14default_deleteIA_PfEclIS0_EENSt9enable_ifIXsr14is_convertibleIPA_T_PS1_EE5valueEvE4typeEPS5_, .Lfunc_end93-_ZNKSt14default_deleteIA_PfEclIS0_EENSt9enable_ifIXsr14is_convertibleIPA_T_PS1_EE5valueEvE4typeEPS5_
	.cfi_endproc
                                        # -- End function
	.section	.text._ZNSt15__uniq_ptr_implIPfSt14default_deleteIA_S0_EE10_M_deleterEv,"axG",@progbits,_ZNSt15__uniq_ptr_implIPfSt14default_deleteIA_S0_EE10_M_deleterEv,comdat
	.weak	_ZNSt15__uniq_ptr_implIPfSt14default_deleteIA_S0_EE10_M_deleterEv # -- Begin function _ZNSt15__uniq_ptr_implIPfSt14default_deleteIA_S0_EE10_M_deleterEv
	.p2align	4, 0x90
	.type	_ZNSt15__uniq_ptr_implIPfSt14default_deleteIA_S0_EE10_M_deleterEv,@function
_ZNSt15__uniq_ptr_implIPfSt14default_deleteIA_S0_EE10_M_deleterEv: # @_ZNSt15__uniq_ptr_implIPfSt14default_deleteIA_S0_EE10_M_deleterEv
.Lfunc_begin94:
	.loc	68 155 0                # /usr/lib/gcc/x86_64-linux-gnu/9/../../../../include/c++/9/bits/unique_ptr.h:155:0
	.cfi_startproc
# %bb.0:
	#DEBUG_VALUE: _M_deleter:this <- %rdi
	#DEBUG_VALUE: _M_deleter:this <- %rdi
	#DEBUG_VALUE: _M_deleter:this <- %rdi
	.loc	68 155 40 prologue_end  # /usr/lib/gcc/x86_64-linux-gnu/9/../../../../include/c++/9/bits/unique_ptr.h:155:40
	jmp	_ZSt3getILm1EJPPfSt14default_deleteIA_S0_EEERNSt13tuple_elementIXT_ESt5tupleIJDpT0_EEE4typeERS9_ # TAILCALL
.Ltmp478:
.Lfunc_end94:
	.size	_ZNSt15__uniq_ptr_implIPfSt14default_deleteIA_S0_EE10_M_deleterEv, .Lfunc_end94-_ZNSt15__uniq_ptr_implIPfSt14default_deleteIA_S0_EE10_M_deleterEv
	.cfi_endproc
                                        # -- End function
	.section	.text._ZSt3getILm1EJPPfSt14default_deleteIA_S0_EEERNSt13tuple_elementIXT_ESt5tupleIJDpT0_EEE4typeERS9_,"axG",@progbits,_ZSt3getILm1EJPPfSt14default_deleteIA_S0_EEERNSt13tuple_elementIXT_ESt5tupleIJDpT0_EEE4typeERS9_,comdat
	.weak	_ZSt3getILm1EJPPfSt14default_deleteIA_S0_EEERNSt13tuple_elementIXT_ESt5tupleIJDpT0_EEE4typeERS9_ # -- Begin function _ZSt3getILm1EJPPfSt14default_deleteIA_S0_EEERNSt13tuple_elementIXT_ESt5tupleIJDpT0_EEE4typeERS9_
	.p2align	4, 0x90
	.type	_ZSt3getILm1EJPPfSt14default_deleteIA_S0_EEERNSt13tuple_elementIXT_ESt5tupleIJDpT0_EEE4typeERS9_,@function
_ZSt3getILm1EJPPfSt14default_deleteIA_S0_EEERNSt13tuple_elementIXT_ESt5tupleIJDpT0_EEE4typeERS9_: # @_ZSt3getILm1EJPPfSt14default_deleteIA_S0_EEERNSt13tuple_elementIXT_ESt5tupleIJDpT0_EEE4typeERS9_
.Lfunc_begin95:
	.loc	69 1321 0               # /usr/lib/gcc/x86_64-linux-gnu/9/../../../../include/c++/9/tuple:1321:0
	.cfi_startproc
# %bb.0:
	#DEBUG_VALUE: get<1, float **, std::default_delete<float *[]> >:__t <- %rdi
	#DEBUG_VALUE: get<1, float **, std::default_delete<float *[]> >:__t <- %rdi
	#DEBUG_VALUE: get<1, float **, std::default_delete<float *[]> >:__t <- %rdi
	.loc	69 1321 14 prologue_end # /usr/lib/gcc/x86_64-linux-gnu/9/../../../../include/c++/9/tuple:1321:14
	jmp	_ZSt12__get_helperILm1ESt14default_deleteIA_PfEJEERT0_RSt11_Tuple_implIXT_EJS4_DpT1_EE # TAILCALL
.Ltmp479:
.Lfunc_end95:
	.size	_ZSt3getILm1EJPPfSt14default_deleteIA_S0_EEERNSt13tuple_elementIXT_ESt5tupleIJDpT0_EEE4typeERS9_, .Lfunc_end95-_ZSt3getILm1EJPPfSt14default_deleteIA_S0_EEERNSt13tuple_elementIXT_ESt5tupleIJDpT0_EEE4typeERS9_
	.cfi_endproc
                                        # -- End function
	.section	.text._ZSt12__get_helperILm1ESt14default_deleteIA_PfEJEERT0_RSt11_Tuple_implIXT_EJS4_DpT1_EE,"axG",@progbits,_ZSt12__get_helperILm1ESt14default_deleteIA_PfEJEERT0_RSt11_Tuple_implIXT_EJS4_DpT1_EE,comdat
	.weak	_ZSt12__get_helperILm1ESt14default_deleteIA_PfEJEERT0_RSt11_Tuple_implIXT_EJS4_DpT1_EE # -- Begin function _ZSt12__get_helperILm1ESt14default_deleteIA_PfEJEERT0_RSt11_Tuple_implIXT_EJS4_DpT1_EE
	.p2align	4, 0x90
	.type	_ZSt12__get_helperILm1ESt14default_deleteIA_PfEJEERT0_RSt11_Tuple_implIXT_EJS4_DpT1_EE,@function
_ZSt12__get_helperILm1ESt14default_deleteIA_PfEJEERT0_RSt11_Tuple_implIXT_EJS4_DpT1_EE: # @_ZSt12__get_helperILm1ESt14default_deleteIA_PfEJEERT0_RSt11_Tuple_implIXT_EJS4_DpT1_EE
.Lfunc_begin96:
	.loc	69 1310 0               # /usr/lib/gcc/x86_64-linux-gnu/9/../../../../include/c++/9/tuple:1310:0
	.cfi_startproc
# %bb.0:
	#DEBUG_VALUE: __get_helper<1, std::default_delete<float *[]>>:__t <- %rdi
	#DEBUG_VALUE: __get_helper<1, std::default_delete<float *[]>>:__t <- %rdi
	#DEBUG_VALUE: __get_helper<1, std::default_delete<float *[]>>:__t <- %rdi
	.loc	69 1310 14 prologue_end # /usr/lib/gcc/x86_64-linux-gnu/9/../../../../include/c++/9/tuple:1310:14
	jmp	_ZNSt11_Tuple_implILm1EJSt14default_deleteIA_PfEEE7_M_headERS4_ # TAILCALL
.Ltmp480:
.Lfunc_end96:
	.size	_ZSt12__get_helperILm1ESt14default_deleteIA_PfEJEERT0_RSt11_Tuple_implIXT_EJS4_DpT1_EE, .Lfunc_end96-_ZSt12__get_helperILm1ESt14default_deleteIA_PfEJEERT0_RSt11_Tuple_implIXT_EJS4_DpT1_EE
	.cfi_endproc
                                        # -- End function
	.section	.text._ZNSt11_Tuple_implILm1EJSt14default_deleteIA_PfEEE7_M_headERS4_,"axG",@progbits,_ZNSt11_Tuple_implILm1EJSt14default_deleteIA_PfEEE7_M_headERS4_,comdat
	.weak	_ZNSt11_Tuple_implILm1EJSt14default_deleteIA_PfEEE7_M_headERS4_ # -- Begin function _ZNSt11_Tuple_implILm1EJSt14default_deleteIA_PfEEE7_M_headERS4_
	.p2align	4, 0x90
	.type	_ZNSt11_Tuple_implILm1EJSt14default_deleteIA_PfEEE7_M_headERS4_,@function
_ZNSt11_Tuple_implILm1EJSt14default_deleteIA_PfEEE7_M_headERS4_: # @_ZNSt11_Tuple_implILm1EJSt14default_deleteIA_PfEEE7_M_headERS4_
.Lfunc_begin97:
	.loc	69 334 0                # /usr/lib/gcc/x86_64-linux-gnu/9/../../../../include/c++/9/tuple:334:0
	.cfi_startproc
# %bb.0:
	#DEBUG_VALUE: _M_head:__t <- %rdi
	#DEBUG_VALUE: _M_head:__t <- %rdi
	#DEBUG_VALUE: _M_head:__t <- %rdi
	.loc	69 334 51 prologue_end  # /usr/lib/gcc/x86_64-linux-gnu/9/../../../../include/c++/9/tuple:334:51
	jmp	_ZNSt10_Head_baseILm1ESt14default_deleteIA_PfELb1EE7_M_headERS4_ # TAILCALL
.Ltmp481:
.Lfunc_end97:
	.size	_ZNSt11_Tuple_implILm1EJSt14default_deleteIA_PfEEE7_M_headERS4_, .Lfunc_end97-_ZNSt11_Tuple_implILm1EJSt14default_deleteIA_PfEEE7_M_headERS4_
	.cfi_endproc
                                        # -- End function
	.section	.text._ZNSt10_Head_baseILm1ESt14default_deleteIA_PfELb1EE7_M_headERS4_,"axG",@progbits,_ZNSt10_Head_baseILm1ESt14default_deleteIA_PfELb1EE7_M_headERS4_,comdat
	.weak	_ZNSt10_Head_baseILm1ESt14default_deleteIA_PfELb1EE7_M_headERS4_ # -- Begin function _ZNSt10_Head_baseILm1ESt14default_deleteIA_PfELb1EE7_M_headERS4_
	.p2align	4, 0x90
	.type	_ZNSt10_Head_baseILm1ESt14default_deleteIA_PfELb1EE7_M_headERS4_,@function
_ZNSt10_Head_baseILm1ESt14default_deleteIA_PfELb1EE7_M_headERS4_: # @_ZNSt10_Head_baseILm1ESt14default_deleteIA_PfELb1EE7_M_headERS4_
.Lfunc_begin98:
	.loc	69 113 0                # /usr/lib/gcc/x86_64-linux-gnu/9/../../../../include/c++/9/tuple:113:0
	.cfi_startproc
# %bb.0:
	#DEBUG_VALUE: _M_head:__b <- %rdi
	#DEBUG_VALUE: _M_head:__b <- %rdi
	.loc	69 113 43 prologue_end  # /usr/lib/gcc/x86_64-linux-gnu/9/../../../../include/c++/9/tuple:113:43
	movq	%rdi, %rax
.Ltmp482:
	#DEBUG_VALUE: _M_head:__b <- %rax
	retq
.Ltmp483:
.Lfunc_end98:
	.size	_ZNSt10_Head_baseILm1ESt14default_deleteIA_PfELb1EE7_M_headERS4_, .Lfunc_end98-_ZNSt10_Head_baseILm1ESt14default_deleteIA_PfELb1EE7_M_headERS4_
	.cfi_endproc
                                        # -- End function
	.section	.text._ZSt3getILm0EJPPfSt14default_deleteIA_S0_EEERNSt13tuple_elementIXT_ESt5tupleIJDpT0_EEE4typeERS9_,"axG",@progbits,_ZSt3getILm0EJPPfSt14default_deleteIA_S0_EEERNSt13tuple_elementIXT_ESt5tupleIJDpT0_EEE4typeERS9_,comdat
	.weak	_ZSt3getILm0EJPPfSt14default_deleteIA_S0_EEERNSt13tuple_elementIXT_ESt5tupleIJDpT0_EEE4typeERS9_ # -- Begin function _ZSt3getILm0EJPPfSt14default_deleteIA_S0_EEERNSt13tuple_elementIXT_ESt5tupleIJDpT0_EEE4typeERS9_
	.p2align	4, 0x90
	.type	_ZSt3getILm0EJPPfSt14default_deleteIA_S0_EEERNSt13tuple_elementIXT_ESt5tupleIJDpT0_EEE4typeERS9_,@function
_ZSt3getILm0EJPPfSt14default_deleteIA_S0_EEERNSt13tuple_elementIXT_ESt5tupleIJDpT0_EEE4typeERS9_: # @_ZSt3getILm0EJPPfSt14default_deleteIA_S0_EEERNSt13tuple_elementIXT_ESt5tupleIJDpT0_EEE4typeERS9_
.Lfunc_begin99:
	.loc	69 1321 0               # /usr/lib/gcc/x86_64-linux-gnu/9/../../../../include/c++/9/tuple:1321:0
	.cfi_startproc
# %bb.0:
	#DEBUG_VALUE: get<0, float **, std::default_delete<float *[]> >:__t <- %rdi
	#DEBUG_VALUE: get<0, float **, std::default_delete<float *[]> >:__t <- %rdi
	#DEBUG_VALUE: get<0, float **, std::default_delete<float *[]> >:__t <- %rdi
	.loc	69 1321 14 prologue_end # /usr/lib/gcc/x86_64-linux-gnu/9/../../../../include/c++/9/tuple:1321:14
	jmp	_ZSt12__get_helperILm0EPPfJSt14default_deleteIA_S0_EEERT0_RSt11_Tuple_implIXT_EJS5_DpT1_EE # TAILCALL
.Ltmp484:
.Lfunc_end99:
	.size	_ZSt3getILm0EJPPfSt14default_deleteIA_S0_EEERNSt13tuple_elementIXT_ESt5tupleIJDpT0_EEE4typeERS9_, .Lfunc_end99-_ZSt3getILm0EJPPfSt14default_deleteIA_S0_EEERNSt13tuple_elementIXT_ESt5tupleIJDpT0_EEE4typeERS9_
	.cfi_endproc
                                        # -- End function
	.section	.text._ZSt12__get_helperILm0EPPfJSt14default_deleteIA_S0_EEERT0_RSt11_Tuple_implIXT_EJS5_DpT1_EE,"axG",@progbits,_ZSt12__get_helperILm0EPPfJSt14default_deleteIA_S0_EEERT0_RSt11_Tuple_implIXT_EJS5_DpT1_EE,comdat
	.weak	_ZSt12__get_helperILm0EPPfJSt14default_deleteIA_S0_EEERT0_RSt11_Tuple_implIXT_EJS5_DpT1_EE # -- Begin function _ZSt12__get_helperILm0EPPfJSt14default_deleteIA_S0_EEERT0_RSt11_Tuple_implIXT_EJS5_DpT1_EE
	.p2align	4, 0x90
	.type	_ZSt12__get_helperILm0EPPfJSt14default_deleteIA_S0_EEERT0_RSt11_Tuple_implIXT_EJS5_DpT1_EE,@function
_ZSt12__get_helperILm0EPPfJSt14default_deleteIA_S0_EEERT0_RSt11_Tuple_implIXT_EJS5_DpT1_EE: # @_ZSt12__get_helperILm0EPPfJSt14default_deleteIA_S0_EEERT0_RSt11_Tuple_implIXT_EJS5_DpT1_EE
.Lfunc_begin100:
	.loc	69 1310 0               # /usr/lib/gcc/x86_64-linux-gnu/9/../../../../include/c++/9/tuple:1310:0
	.cfi_startproc
# %bb.0:
	#DEBUG_VALUE: __get_helper<0, float **, std::default_delete<float *[]> >:__t <- %rdi
	#DEBUG_VALUE: __get_helper<0, float **, std::default_delete<float *[]> >:__t <- %rdi
	#DEBUG_VALUE: __get_helper<0, float **, std::default_delete<float *[]> >:__t <- %rdi
	.loc	69 1310 14 prologue_end # /usr/lib/gcc/x86_64-linux-gnu/9/../../../../include/c++/9/tuple:1310:14
	jmp	_ZNSt11_Tuple_implILm0EJPPfSt14default_deleteIA_S0_EEE7_M_headERS5_ # TAILCALL
.Ltmp485:
.Lfunc_end100:
	.size	_ZSt12__get_helperILm0EPPfJSt14default_deleteIA_S0_EEERT0_RSt11_Tuple_implIXT_EJS5_DpT1_EE, .Lfunc_end100-_ZSt12__get_helperILm0EPPfJSt14default_deleteIA_S0_EEERT0_RSt11_Tuple_implIXT_EJS5_DpT1_EE
	.cfi_endproc
                                        # -- End function
	.section	.text._ZNSt11_Tuple_implILm0EJPPfSt14default_deleteIA_S0_EEE7_M_headERS5_,"axG",@progbits,_ZNSt11_Tuple_implILm0EJPPfSt14default_deleteIA_S0_EEE7_M_headERS5_,comdat
	.weak	_ZNSt11_Tuple_implILm0EJPPfSt14default_deleteIA_S0_EEE7_M_headERS5_ # -- Begin function _ZNSt11_Tuple_implILm0EJPPfSt14default_deleteIA_S0_EEE7_M_headERS5_
	.p2align	4, 0x90
	.type	_ZNSt11_Tuple_implILm0EJPPfSt14default_deleteIA_S0_EEE7_M_headERS5_,@function
_ZNSt11_Tuple_implILm0EJPPfSt14default_deleteIA_S0_EEE7_M_headERS5_: # @_ZNSt11_Tuple_implILm0EJPPfSt14default_deleteIA_S0_EEE7_M_headERS5_
.Lfunc_begin101:
	.loc	69 195 0                # /usr/lib/gcc/x86_64-linux-gnu/9/../../../../include/c++/9/tuple:195:0
	.cfi_startproc
# %bb.0:
	#DEBUG_VALUE: _M_head:__t <- %rdi
	#DEBUG_VALUE: _M_head:__t <- %rdi
	#DEBUG_VALUE: _M_head:__t <- %rdi
	.loc	69 195 51 prologue_end  # /usr/lib/gcc/x86_64-linux-gnu/9/../../../../include/c++/9/tuple:195:51
	jmp	_ZNSt10_Head_baseILm0EPPfLb0EE7_M_headERS2_ # TAILCALL
.Ltmp486:
.Lfunc_end101:
	.size	_ZNSt11_Tuple_implILm0EJPPfSt14default_deleteIA_S0_EEE7_M_headERS5_, .Lfunc_end101-_ZNSt11_Tuple_implILm0EJPPfSt14default_deleteIA_S0_EEE7_M_headERS5_
	.cfi_endproc
                                        # -- End function
	.section	.text._ZNSt10_Head_baseILm0EPPfLb0EE7_M_headERS2_,"axG",@progbits,_ZNSt10_Head_baseILm0EPPfLb0EE7_M_headERS2_,comdat
	.weak	_ZNSt10_Head_baseILm0EPPfLb0EE7_M_headERS2_ # -- Begin function _ZNSt10_Head_baseILm0EPPfLb0EE7_M_headERS2_
	.p2align	4, 0x90
	.type	_ZNSt10_Head_baseILm0EPPfLb0EE7_M_headERS2_,@function
_ZNSt10_Head_baseILm0EPPfLb0EE7_M_headERS2_: # @_ZNSt10_Head_baseILm0EPPfLb0EE7_M_headERS2_
.Lfunc_begin102:
	.loc	69 160 0                # /usr/lib/gcc/x86_64-linux-gnu/9/../../../../include/c++/9/tuple:160:0
	.cfi_startproc
# %bb.0:
	#DEBUG_VALUE: _M_head:__b <- %rdi
	#DEBUG_VALUE: _M_head:__b <- %rdi
	.loc	69 160 43 prologue_end  # /usr/lib/gcc/x86_64-linux-gnu/9/../../../../include/c++/9/tuple:160:43
	movq	%rdi, %rax
.Ltmp487:
	#DEBUG_VALUE: _M_head:__b <- %rax
	retq
.Ltmp488:
.Lfunc_end102:
	.size	_ZNSt10_Head_baseILm0EPPfLb0EE7_M_headERS2_, .Lfunc_end102-_ZNSt10_Head_baseILm0EPPfLb0EE7_M_headERS2_
	.cfi_endproc
                                        # -- End function
	.text
	.globl	_ZN12ILLIXR_AUDIO5SoundC2ENSt7__cxx1112basic_stringIcSt11char_traitsIcESaIcEEEjb # -- Begin function _ZN12ILLIXR_AUDIO5SoundC2ENSt7__cxx1112basic_stringIcSt11char_traitsIcESaIcEEEjb
	.p2align	4, 0x90
	.type	_ZN12ILLIXR_AUDIO5SoundC2ENSt7__cxx1112basic_stringIcSt11char_traitsIcESaIcEEEjb,@function
_ZN12ILLIXR_AUDIO5SoundC2ENSt7__cxx1112basic_stringIcSt11char_traitsIcESaIcEEEjb: # @_ZN12ILLIXR_AUDIO5SoundC2ENSt7__cxx1112basic_stringIcSt11char_traitsIcESaIcEEEjb
.Lfunc_begin103:
	.file	73 "/home/yingj4/Desktop/cs598jtfa20/project/audio_pipeline/src/sound.cpp"
	.loc	73 5 0                  # src/sound.cpp:5:0
	.cfi_startproc
	.cfi_personality 3, __gxx_personality_v0
	.cfi_lsda 3, .Lexception5
# %bb.0:
	pushq	%rbp
	.cfi_def_cfa_offset 16
	pushq	%r15
	.cfi_def_cfa_offset 24
	pushq	%r14
	.cfi_def_cfa_offset 32
	pushq	%rbx
	.cfi_def_cfa_offset 40
	subq	$56, %rsp
	.cfi_def_cfa_offset 96
	.cfi_offset %rbx, -40
	.cfi_offset %r14, -32
	.cfi_offset %r15, -24
	.cfi_offset %rbp, -16
	#DEBUG_VALUE: Sound:this <- %rdi
	#DEBUG_VALUE: Sound:srcFilename <- [%rsi+0]
	#DEBUG_VALUE: Sound:nOrder <- %edx
	#DEBUG_VALUE: Sound:b3D <- %ecx
	movl	%edx, %r14d
	movq	%rsi, %r15
	movq	%rdi, %rbx
.Ltmp498:
	#DEBUG_VALUE: Sound:nOrder <- %r14d
	#DEBUG_VALUE: Sound:srcFilename <- [%r15+0]
	#DEBUG_VALUE: Sound:this <- %rbx
	.loc	73 6 9 prologue_end     # src/sound.cpp:6:9
	movl	$1065353216, 4132(%rbx) # imm = 0x3F800000
	.loc	73 7 15                 # src/sound.cpp:7:15
	movl	$528, %edi              # imm = 0x210
	callq	_Znwm
.Ltmp499:
	movq	%rax, %rbp
.Ltmp489:
	.loc	73 7 19 is_stmt 0       # src/sound.cpp:7:19
	movl	$8, %edx
	movq	%rbp, %rdi
	movq	%r15, %rsi
.Ltmp500:
	#DEBUG_VALUE: Sound:srcFilename <- [%rsi+0]
	callq	_ZNSt13basic_fstreamIcSt11char_traitsIcEEC1ERKNSt7__cxx1112basic_stringIcS1_SaIcEEESt13_Ios_Openmode
.Ltmp501:
.Ltmp490:
# %bb.1:
	#DEBUG_VALUE: Sound:this <- %rbx
	#DEBUG_VALUE: Sound:nOrder <- %r14d
	.loc	73 7 13                 # src/sound.cpp:7:13
	movq	%rbp, (%rbx)
	movq	%rsp, %rsi
	.loc	73 12 14 is_stmt 1      # src/sound.cpp:12:14
	movl	$44, %edx
	movq	%rbp, %rdi
	callq	_ZNSi4readEPcl
	.loc	73 15 15                # src/sound.cpp:15:15
	movl	$64, %edi
	callq	_Znwm
	movq	%rax, %rbp
.Ltmp492:
	.loc	73 15 19 is_stmt 0      # src/sound.cpp:15:19
	movq	%rbp, %rdi
	callq	_ZN8CBFormatC1Ev
.Ltmp493:
.Ltmp502:
# %bb.2:
	#DEBUG_VALUE: Sound:this <- %rbx
	#DEBUG_VALUE: Sound:nOrder <- %r14d
	.loc	73 15 13                # src/sound.cpp:15:13
	movq	%rbp, 4104(%rbx)
	.loc	73 16 24 is_stmt 1      # src/sound.cpp:16:24
	movq	(%rbp), %rax
	movl	$1, %edx
	movl	$1024, %ecx             # imm = 0x400
	movq	%rbp, %rdi
	movl	%r14d, %esi
	callq	*16(%rax)
	.loc	73 17 5                 # src/sound.cpp:17:5
	movq	4104(%rbx), %rdi
	.loc	73 17 14 is_stmt 0      # src/sound.cpp:17:14
	movq	(%rdi), %rax
	callq	*32(%rax)
	.loc	73 20 16 is_stmt 1      # src/sound.cpp:20:16
	movl	$136, %edi
	callq	_Znwm
	movq	%rax, %rbp
.Ltmp495:
	.loc	73 20 20 is_stmt 0      # src/sound.cpp:20:20
	movq	%rbp, %rdi
	callq	_ZN21CAmbisonicEncoderDistC1Ev
.Ltmp496:
.Ltmp503:
# %bb.3:
	#DEBUG_VALUE: Sound:this <- %rbx
	#DEBUG_VALUE: Sound:nOrder <- %r14d
	.loc	73 20 14                # src/sound.cpp:20:14
	movq	%rbp, 4112(%rbx)
	.loc	73 21 21 is_stmt 1      # src/sound.cpp:21:21
	movq	(%rbp), %rax
	movl	$1, %edx
	movl	$48000, %ecx            # imm = 0xBB80
	movq	%rbp, %rdi
	movl	%r14d, %esi
	callq	*16(%rax)
	.loc	73 22 5                 # src/sound.cpp:22:5
	movq	4112(%rbx), %rdi
	.loc	73 22 15 is_stmt 0      # src/sound.cpp:22:15
	movq	(%rdi), %rax
	callq	*32(%rax)
	.loc	73 23 21 is_stmt 1      # src/sound.cpp:23:21
	movq	$0, 4120(%rbx)
	.loc	73 25 22                # src/sound.cpp:25:22
	movl	$0, 4128(%rbx)
	.loc	73 26 5                 # src/sound.cpp:26:5
	movq	4112(%rbx), %rdi
	.loc	73 26 15 is_stmt 0      # src/sound.cpp:26:15
	movq	(%rdi), %rax
	xorl	%ecx, %ecx
	.loc	73 26 27                # src/sound.cpp:26:27
	movq	%rcx, %xmm0
	.loc	73 26 15                # src/sound.cpp:26:15
	xorps	%xmm1, %xmm1
	callq	*40(%rax)
	.loc	73 27 5 is_stmt 1       # src/sound.cpp:27:5
	movq	4112(%rbx), %rdi
	.loc	73 27 15 is_stmt 0      # src/sound.cpp:27:15
	movq	(%rdi), %rax
	callq	*32(%rax)
.Ltmp504:
	.loc	73 28 1 is_stmt 1       # src/sound.cpp:28:1
	addq	$56, %rsp
	popq	%rbx
.Ltmp505:
	popq	%r14
.Ltmp506:
	popq	%r15
	popq	%rbp
	retq
.Ltmp507:
.LBB103_6:
	#DEBUG_VALUE: Sound:this <- %rbx
	#DEBUG_VALUE: Sound:nOrder <- %r14d
.Ltmp497:
	.loc	73 0 1 is_stmt 0        # src/sound.cpp:0:1
	jmp	.LBB103_7
.Ltmp508:
.LBB103_5:
	#DEBUG_VALUE: Sound:this <- %rbx
	#DEBUG_VALUE: Sound:nOrder <- %r14d
.Ltmp494:
	jmp	.LBB103_7
.Ltmp509:
.LBB103_4:
	#DEBUG_VALUE: Sound:this <- %rbx
	#DEBUG_VALUE: Sound:nOrder <- %r14d
.Ltmp491:
.LBB103_7:
	#DEBUG_VALUE: Sound:this <- %rbx
	#DEBUG_VALUE: Sound:nOrder <- %r14d
	movq	%rax, %rbx
.Ltmp510:
	movq	%rbp, %rdi
	callq	_ZdlPv
	movq	%rbx, %rdi
	callq	_Unwind_Resume
.Lfunc_end103:
	.size	_ZN12ILLIXR_AUDIO5SoundC2ENSt7__cxx1112basic_stringIcSt11char_traitsIcESaIcEEEjb, .Lfunc_end103-_ZN12ILLIXR_AUDIO5SoundC2ENSt7__cxx1112basic_stringIcSt11char_traitsIcESaIcEEEjb
	.cfi_endproc
	.section	.gcc_except_table,"a",@progbits
	.p2align	2
GCC_except_table103:
.Lexception5:
	.byte	255                     # @LPStart Encoding = omit
	.byte	3                       # @TType Encoding = udata4
	.byte	93                      # @TType base offset
	.byte	3                       # Call site Encoding = udata4
	.byte	91                      # Call site table length
	.long	.Lfunc_begin103-.Lfunc_begin103 # >> Call Site 1 <<
	.long	.Ltmp489-.Lfunc_begin103 #   Call between .Lfunc_begin103 and .Ltmp489
	.long	0                       #     has no landing pad
	.byte	0                       #   On action: cleanup
	.long	.Ltmp489-.Lfunc_begin103 # >> Call Site 2 <<
	.long	.Ltmp490-.Ltmp489       #   Call between .Ltmp489 and .Ltmp490
	.long	.Ltmp491-.Lfunc_begin103 #     jumps to .Ltmp491
	.byte	0                       #   On action: cleanup
	.long	.Ltmp490-.Lfunc_begin103 # >> Call Site 3 <<
	.long	.Ltmp492-.Ltmp490       #   Call between .Ltmp490 and .Ltmp492
	.long	0                       #     has no landing pad
	.byte	0                       #   On action: cleanup
	.long	.Ltmp492-.Lfunc_begin103 # >> Call Site 4 <<
	.long	.Ltmp493-.Ltmp492       #   Call between .Ltmp492 and .Ltmp493
	.long	.Ltmp494-.Lfunc_begin103 #     jumps to .Ltmp494
	.byte	0                       #   On action: cleanup
	.long	.Ltmp493-.Lfunc_begin103 # >> Call Site 5 <<
	.long	.Ltmp495-.Ltmp493       #   Call between .Ltmp493 and .Ltmp495
	.long	0                       #     has no landing pad
	.byte	0                       #   On action: cleanup
	.long	.Ltmp495-.Lfunc_begin103 # >> Call Site 6 <<
	.long	.Ltmp496-.Ltmp495       #   Call between .Ltmp495 and .Ltmp496
	.long	.Ltmp497-.Lfunc_begin103 #     jumps to .Ltmp497
	.byte	0                       #   On action: cleanup
	.long	.Ltmp496-.Lfunc_begin103 # >> Call Site 7 <<
	.long	.Lfunc_end103-.Ltmp496  #   Call between .Ltmp496 and .Lfunc_end103
	.long	0                       #     has no landing pad
	.byte	0                       #   On action: cleanup
	.p2align	2
                                        # -- End function
	.text
	.globl	_ZN12ILLIXR_AUDIO5Sound9setSrcPosER10PolarPoint # -- Begin function _ZN12ILLIXR_AUDIO5Sound9setSrcPosER10PolarPoint
	.p2align	4, 0x90
	.type	_ZN12ILLIXR_AUDIO5Sound9setSrcPosER10PolarPoint,@function
_ZN12ILLIXR_AUDIO5Sound9setSrcPosER10PolarPoint: # @_ZN12ILLIXR_AUDIO5Sound9setSrcPosER10PolarPoint
.Lfunc_begin104:
	.loc	73 30 0 is_stmt 1       # src/sound.cpp:30:0
	.cfi_startproc
# %bb.0:
	pushq	%rbx
	.cfi_def_cfa_offset 16
	.cfi_offset %rbx, -16
	#DEBUG_VALUE: setSrcPos:this <- %rdi
	#DEBUG_VALUE: setSrcPos:pos <- %rsi
	movq	%rdi, %rbx
	#DEBUG_VALUE: setSrcPos:pos <- %rsi
.Ltmp511:
	#DEBUG_VALUE: setSrcPos:this <- %rbx
	.loc	73 31 27 prologue_end   # src/sound.cpp:31:27
	movl	(%rsi), %eax
	.loc	73 31 21 is_stmt 0      # src/sound.cpp:31:21
	movl	%eax, 4120(%rbx)
	.loc	73 32 29 is_stmt 1      # src/sound.cpp:32:29
	movl	4(%rsi), %eax
	.loc	73 32 23 is_stmt 0      # src/sound.cpp:32:23
	movl	%eax, 4124(%rbx)
	.loc	73 33 28 is_stmt 1      # src/sound.cpp:33:28
	movl	8(%rsi), %eax
	.loc	73 33 22 is_stmt 0      # src/sound.cpp:33:22
	movl	%eax, 4128(%rbx)
	.loc	73 34 5 is_stmt 1       # src/sound.cpp:34:5
	movq	4112(%rbx), %rdi
	.loc	73 34 15 is_stmt 0      # src/sound.cpp:34:15
	movq	(%rdi), %rax
	.loc	73 34 27                # src/sound.cpp:34:27
	movsd	4120(%rbx), %xmm0       # xmm0 = mem[0],zero
	movss	4128(%rbx), %xmm1       # xmm1 = mem[0],zero,zero,zero
	.loc	73 34 15                # src/sound.cpp:34:15
	callq	*40(%rax)
.Ltmp512:
	.loc	73 35 5 is_stmt 1       # src/sound.cpp:35:5
	movq	4112(%rbx), %rdi
	.loc	73 35 15 is_stmt 0      # src/sound.cpp:35:15
	movq	(%rdi), %rax
	popq	%rbx
.Ltmp513:
	jmpq	*32(%rax)               # TAILCALL
.Ltmp514:
.Lfunc_end104:
	.size	_ZN12ILLIXR_AUDIO5Sound9setSrcPosER10PolarPoint, .Lfunc_end104-_ZN12ILLIXR_AUDIO5Sound9setSrcPosER10PolarPoint
	.cfi_endproc
                                        # -- End function
	.globl	_ZN12ILLIXR_AUDIO5Sound9setSrcAmpEf # -- Begin function _ZN12ILLIXR_AUDIO5Sound9setSrcAmpEf
	.p2align	4, 0x90
	.type	_ZN12ILLIXR_AUDIO5Sound9setSrcAmpEf,@function
_ZN12ILLIXR_AUDIO5Sound9setSrcAmpEf:    # @_ZN12ILLIXR_AUDIO5Sound9setSrcAmpEf
.Lfunc_begin105:
	.loc	73 38 0 is_stmt 1       # src/sound.cpp:38:0
	.cfi_startproc
# %bb.0:
	#DEBUG_VALUE: setSrcAmp:this <- %rdi
	#DEBUG_VALUE: setSrcAmp:this <- %rdi
	#DEBUG_VALUE: setSrcAmp:ampScale <- %xmm0
	#DEBUG_VALUE: setSrcAmp:ampScale <- %xmm0
	.loc	73 39 9 prologue_end    # src/sound.cpp:39:9
	movss	%xmm0, 4132(%rdi)
	.loc	73 40 1                 # src/sound.cpp:40:1
	retq
.Ltmp515:
.Lfunc_end105:
	.size	_ZN12ILLIXR_AUDIO5Sound9setSrcAmpEf, .Lfunc_end105-_ZN12ILLIXR_AUDIO5Sound9setSrcAmpEf
	.cfi_endproc
                                        # -- End function
	.section	.rodata.cst8,"aM",@progbits,8
	.p2align	3               # -- Begin function _ZN12ILLIXR_AUDIO5Sound13readInBFormatEv
.LCPI106_0:
	.quad	4674736138332667904     # double 32767
	.text
	.globl	_ZN12ILLIXR_AUDIO5Sound13readInBFormatEv
	.p2align	4, 0x90
	.type	_ZN12ILLIXR_AUDIO5Sound13readInBFormatEv,@function
_ZN12ILLIXR_AUDIO5Sound13readInBFormatEv: # @_ZN12ILLIXR_AUDIO5Sound13readInBFormatEv
.Lfunc_begin106:
	.loc	73 43 0                 # src/sound.cpp:43:0
	.cfi_startproc
# %bb.0:
	pushq	%rbx
	.cfi_def_cfa_offset 16
	subq	$2048, %rsp             # imm = 0x800
	.cfi_def_cfa_offset 2064
	.cfi_offset %rbx, -16
	#DEBUG_VALUE: readInBFormat:this <- %rdi
	movq	%rdi, %rbx
.Ltmp516:
	#DEBUG_VALUE: readInBFormat:this <- %rbx
	.loc	73 45 5 prologue_end    # src/sound.cpp:45:5
	movq	(%rbx), %rdi
	movq	%rsp, %rsi
	.loc	73 45 14 is_stmt 0      # src/sound.cpp:45:14
	movl	$2048, %edx             # imm = 0x800
	callq	_ZNSi4readEPcl
	movq	$-2048, %rax            # imm = 0xF800
	movsd	.LCPI106_0(%rip), %xmm0 # xmm0 = mem[0],zero
.Ltmp517:
	#DEBUG_VALUE: i <- 0
	.p2align	4, 0x90
.LBB106_1:                              # =>This Inner Loop Header: Depth=1
	#DEBUG_VALUE: readInBFormat:this <- %rbx
	.loc	73 48 21 is_stmt 1      # src/sound.cpp:48:21
	movss	4132(%rbx), %xmm1       # xmm1 = mem[0],zero,zero,zero
	cvtss2sd	%xmm1, %xmm1
	.loc	73 48 28 is_stmt 0      # src/sound.cpp:48:28
	movswl	2048(%rsp,%rax), %ecx
	xorps	%xmm2, %xmm2
	cvtsi2sdl	%ecx, %xmm2
	.loc	73 48 42                # src/sound.cpp:48:42
	divsd	%xmm0, %xmm2
	.loc	73 48 25                # src/sound.cpp:48:25
	mulsd	%xmm1, %xmm2
	.loc	73 48 21                # src/sound.cpp:48:21
	xorps	%xmm1, %xmm1
	cvtsd2ss	%xmm2, %xmm1
	.loc	73 48 19                # src/sound.cpp:48:19
	movss	%xmm1, 4104(%rbx,%rax,2)
.Ltmp518:
	.loc	73 47 23 is_stmt 1      # src/sound.cpp:47:23
	addq	$2, %rax
.Ltmp519:
	.loc	73 47 5 is_stmt 0       # src/sound.cpp:47:5
	jne	.LBB106_1
.Ltmp520:
# %bb.2:
	#DEBUG_VALUE: readInBFormat:this <- %rbx
	.loc	73 50 43 is_stmt 1      # src/sound.cpp:50:43
	movq	4104(%rbx), %rcx
	.loc	73 50 5 is_stmt 0       # src/sound.cpp:50:5
	movq	4112(%rbx), %rdi
	.loc	73 50 23                # src/sound.cpp:50:23
	leaq	8(%rbx), %rsi
	.loc	73 50 15                # src/sound.cpp:50:15
	movl	$1024, %edx             # imm = 0x400
	callq	_ZN21CAmbisonicEncoderDist7ProcessEPfjP8CBFormat
	.loc	73 51 12 is_stmt 1      # src/sound.cpp:51:12
	movq	4104(%rbx), %rax
	.loc	73 51 5 is_stmt 0       # src/sound.cpp:51:5
	addq	$2048, %rsp             # imm = 0x800
	popq	%rbx
.Ltmp521:
	retq
.Ltmp522:
.Lfunc_end106:
	.size	_ZN12ILLIXR_AUDIO5Sound13readInBFormatEv, .Lfunc_end106-_ZN12ILLIXR_AUDIO5Sound13readInBFormatEv
	.cfi_endproc
                                        # -- End function
	.globl	_ZN12ILLIXR_AUDIO5SoundD2Ev # -- Begin function _ZN12ILLIXR_AUDIO5SoundD2Ev
	.p2align	4, 0x90
	.type	_ZN12ILLIXR_AUDIO5SoundD2Ev,@function
_ZN12ILLIXR_AUDIO5SoundD2Ev:            # @_ZN12ILLIXR_AUDIO5SoundD2Ev
.Lfunc_begin107:
	.loc	73 54 0 is_stmt 1       # src/sound.cpp:54:0
	.cfi_startproc
	.cfi_personality 3, __gxx_personality_v0
	.cfi_lsda 3, .Lexception6
# %bb.0:
	pushq	%rbx
	.cfi_def_cfa_offset 16
	.cfi_offset %rbx, -16
	#DEBUG_VALUE: ~Sound:this <- %rdi
	movq	%rdi, %rbx
.Ltmp526:
	#DEBUG_VALUE: ~Sound:this <- %rbx
	.loc	73 55 5 prologue_end    # src/sound.cpp:55:5
	movq	(%rbx), %rdi
.Ltmp523:
	.loc	73 55 14 is_stmt 0      # src/sound.cpp:55:14
	callq	_ZNSt13basic_fstreamIcSt11char_traitsIcEE5closeEv
.Ltmp524:
.Ltmp527:
# %bb.1:
	#DEBUG_VALUE: ~Sound:this <- %rbx
	.loc	73 56 12 is_stmt 1      # src/sound.cpp:56:12
	movq	(%rbx), %rdi
	.loc	73 56 5 is_stmt 0       # src/sound.cpp:56:5
	testq	%rdi, %rdi
	je	.LBB107_3
.Ltmp528:
# %bb.2:
	#DEBUG_VALUE: ~Sound:this <- %rbx
	movq	(%rdi), %rax
	callq	*8(%rax)
.Ltmp529:
.LBB107_3:
	#DEBUG_VALUE: ~Sound:this <- %rbx
	.loc	73 57 12 is_stmt 1      # src/sound.cpp:57:12
	movq	4104(%rbx), %rdi
	.loc	73 57 5 is_stmt 0       # src/sound.cpp:57:5
	testq	%rdi, %rdi
	je	.LBB107_5
.Ltmp530:
# %bb.4:
	#DEBUG_VALUE: ~Sound:this <- %rbx
	movq	(%rdi), %rax
	callq	*8(%rax)
.Ltmp531:
.LBB107_5:
	#DEBUG_VALUE: ~Sound:this <- %rbx
	.loc	73 58 12 is_stmt 1      # src/sound.cpp:58:12
	movq	4112(%rbx), %rdi
	.loc	73 58 5 is_stmt 0       # src/sound.cpp:58:5
	testq	%rdi, %rdi
	je	.LBB107_6
.Ltmp532:
# %bb.8:
	#DEBUG_VALUE: ~Sound:this <- %rbx
	movq	(%rdi), %rax
	popq	%rbx
.Ltmp533:
	jmpq	*8(%rax)                # TAILCALL
.Ltmp534:
.LBB107_6:
	#DEBUG_VALUE: ~Sound:this <- %rbx
	.loc	73 59 1 is_stmt 1       # src/sound.cpp:59:1
	popq	%rbx
.Ltmp535:
	retq
.LBB107_7:
.Ltmp536:
	#DEBUG_VALUE: ~Sound:this <- %rbx
.Ltmp525:
	.loc	73 55 14                # src/sound.cpp:55:14
	movq	%rax, %rdi
	callq	__clang_call_terminate
.Ltmp537:
.Lfunc_end107:
	.size	_ZN12ILLIXR_AUDIO5SoundD2Ev, .Lfunc_end107-_ZN12ILLIXR_AUDIO5SoundD2Ev
	.cfi_endproc
	.section	.gcc_except_table,"a",@progbits
	.p2align	2
GCC_except_table107:
.Lexception6:
	.byte	255                     # @LPStart Encoding = omit
	.byte	3                       # @TType Encoding = udata4
	.asciz	"\242\200\200"          # @TType base offset
	.byte	3                       # Call site Encoding = udata4
	.byte	26                      # Call site table length
	.long	.Ltmp523-.Lfunc_begin107 # >> Call Site 1 <<
	.long	.Ltmp524-.Ltmp523       #   Call between .Ltmp523 and .Ltmp524
	.long	.Ltmp525-.Lfunc_begin107 #     jumps to .Ltmp525
	.byte	1                       #   On action: 1
	.long	.Ltmp524-.Lfunc_begin107 # >> Call Site 2 <<
	.long	.Lfunc_end107-.Ltmp524  #   Call between .Ltmp524 and .Lfunc_end107
	.long	0                       #     has no landing pad
	.byte	0                       #   On action: cleanup
	.byte	1                       # >> Action Record 1 <<
                                        #   Catch TypeInfo 1
	.byte	0                       #   No further actions
                                        # >> Catch TypeInfos <<
	.long	0                       # TypeInfo 1
	.p2align	2
                                        # -- End function
	.section	.text.startup,"ax",@progbits
	.p2align	4, 0x90         # -- Begin function _GLOBAL__sub_I_trace_logger.cpp
	.type	_GLOBAL__sub_I_trace_logger.cpp,@function
_GLOBAL__sub_I_trace_logger.cpp:        # @_GLOBAL__sub_I_trace_logger.cpp
.Lfunc_begin108:
	.cfi_startproc
# %bb.0:
	pushq	%rax
	.cfi_def_cfa_offset 16
	callq	__cxx_global_var_init
	popq	%rax
	jmp	__cxx_global_var_init.1 # TAILCALL
.Lfunc_end108:
	.size	_GLOBAL__sub_I_trace_logger.cpp, .Lfunc_end108-_GLOBAL__sub_I_trace_logger.cpp
	.cfi_endproc
                                        # -- End function
	.p2align	4, 0x90         # -- Begin function __cxx_global_var_init
	.type	__cxx_global_var_init,@function
__cxx_global_var_init:                  # @__cxx_global_var_init
.Lfunc_begin109:
	.cfi_startproc
# %bb.0:
	pushq	%rax
	.cfi_def_cfa_offset 16
	movl	$_Z8gz_filesB5cxx11, %edi
	callq	_ZNSt3mapINSt7__cxx1112basic_stringIcSt11char_traitsIcESaIcEEEP8gzFile_sSt4lessIS5_ESaISt4pairIKS5_S7_EEEC2Ev
	movl	$__dtor__Z8gz_filesB5cxx11, %edi
	popq	%rax
	jmp	atexit                  # TAILCALL
.Lfunc_end109:
	.size	__cxx_global_var_init, .Lfunc_end109-__cxx_global_var_init
	.cfi_endproc
                                        # -- End function
	.p2align	4, 0x90         # -- Begin function __cxx_global_var_init.1
	.type	__cxx_global_var_init.1,@function
__cxx_global_var_init.1:                # @__cxx_global_var_init.1
.Lfunc_begin110:
	.cfi_startproc
# %bb.0:
	pushq	%rax
	.cfi_def_cfa_offset 16
	movl	$_Z12labelmap_strB5cxx11, %edi
	callq	_ZNSt7__cxx1112basic_stringIcSt11char_traitsIcESaIcEEC2Ev
	movl	$__dtor__Z12labelmap_strB5cxx11, %edi
	popq	%rax
	jmp	atexit                  # TAILCALL
.Lfunc_end110:
	.size	__cxx_global_var_init.1, .Lfunc_end110-__cxx_global_var_init.1
	.cfi_endproc
                                        # -- End function
	.p2align	4, 0x90         # -- Begin function __dtor__Z12labelmap_strB5cxx11
	.type	__dtor__Z12labelmap_strB5cxx11,@function
__dtor__Z12labelmap_strB5cxx11:         # @__dtor__Z12labelmap_strB5cxx11
.Lfunc_begin111:
	.cfi_startproc
# %bb.0:
	movl	$_Z12labelmap_strB5cxx11, %edi
	jmp	_ZNSt7__cxx1112basic_stringIcSt11char_traitsIcESaIcEED2Ev # TAILCALL
.Lfunc_end111:
	.size	__dtor__Z12labelmap_strB5cxx11, .Lfunc_end111-__dtor__Z12labelmap_strB5cxx11
	.cfi_endproc
                                        # -- End function
	.section	.text._ZNSt3mapINSt7__cxx1112basic_stringIcSt11char_traitsIcESaIcEEEP8gzFile_sSt4lessIS5_ESaISt4pairIKS5_S7_EEEC2Ev,"axG",@progbits,_ZNSt3mapINSt7__cxx1112basic_stringIcSt11char_traitsIcESaIcEEEP8gzFile_sSt4lessIS5_ESaISt4pairIKS5_S7_EEEC2Ev,comdat
	.weak	_ZNSt3mapINSt7__cxx1112basic_stringIcSt11char_traitsIcESaIcEEEP8gzFile_sSt4lessIS5_ESaISt4pairIKS5_S7_EEEC2Ev # -- Begin function _ZNSt3mapINSt7__cxx1112basic_stringIcSt11char_traitsIcESaIcEEEP8gzFile_sSt4lessIS5_ESaISt4pairIKS5_S7_EEEC2Ev
	.p2align	4, 0x90
	.type	_ZNSt3mapINSt7__cxx1112basic_stringIcSt11char_traitsIcESaIcEEEP8gzFile_sSt4lessIS5_ESaISt4pairIKS5_S7_EEEC2Ev,@function
_ZNSt3mapINSt7__cxx1112basic_stringIcSt11char_traitsIcESaIcEEEP8gzFile_sSt4lessIS5_ESaISt4pairIKS5_S7_EEEC2Ev: # @_ZNSt3mapINSt7__cxx1112basic_stringIcSt11char_traitsIcESaIcEEEP8gzFile_sSt4lessIS5_ESaISt4pairIKS5_S7_EEEC2Ev
.Lfunc_begin112:
	.cfi_startproc
# %bb.0:
	jmp	_ZNSt8_Rb_treeINSt7__cxx1112basic_stringIcSt11char_traitsIcESaIcEEESt4pairIKS5_P8gzFile_sESt10_Select1stISA_ESt4lessIS5_ESaISA_EEC2Ev # TAILCALL
.Lfunc_end112:
	.size	_ZNSt3mapINSt7__cxx1112basic_stringIcSt11char_traitsIcESaIcEEEP8gzFile_sSt4lessIS5_ESaISt4pairIKS5_S7_EEEC2Ev, .Lfunc_end112-_ZNSt3mapINSt7__cxx1112basic_stringIcSt11char_traitsIcESaIcEEEP8gzFile_sSt4lessIS5_ESaISt4pairIKS5_S7_EEEC2Ev
	.cfi_endproc
                                        # -- End function
	.section	.text.startup,"ax",@progbits
	.p2align	4, 0x90         # -- Begin function __dtor__Z8gz_filesB5cxx11
	.type	__dtor__Z8gz_filesB5cxx11,@function
__dtor__Z8gz_filesB5cxx11:              # @__dtor__Z8gz_filesB5cxx11
.Lfunc_begin113:
	.cfi_startproc
# %bb.0:
	movl	$_Z8gz_filesB5cxx11, %edi
	jmp	_ZNSt3mapINSt7__cxx1112basic_stringIcSt11char_traitsIcESaIcEEEP8gzFile_sSt4lessIS5_ESaISt4pairIKS5_S7_EEED2Ev # TAILCALL
.Lfunc_end113:
	.size	__dtor__Z8gz_filesB5cxx11, .Lfunc_end113-__dtor__Z8gz_filesB5cxx11
	.cfi_endproc
                                        # -- End function
	.section	.text._ZNSt3mapINSt7__cxx1112basic_stringIcSt11char_traitsIcESaIcEEEP8gzFile_sSt4lessIS5_ESaISt4pairIKS5_S7_EEED2Ev,"axG",@progbits,_ZNSt3mapINSt7__cxx1112basic_stringIcSt11char_traitsIcESaIcEEEP8gzFile_sSt4lessIS5_ESaISt4pairIKS5_S7_EEED2Ev,comdat
	.weak	_ZNSt3mapINSt7__cxx1112basic_stringIcSt11char_traitsIcESaIcEEEP8gzFile_sSt4lessIS5_ESaISt4pairIKS5_S7_EEED2Ev # -- Begin function _ZNSt3mapINSt7__cxx1112basic_stringIcSt11char_traitsIcESaIcEEEP8gzFile_sSt4lessIS5_ESaISt4pairIKS5_S7_EEED2Ev
	.p2align	4, 0x90
	.type	_ZNSt3mapINSt7__cxx1112basic_stringIcSt11char_traitsIcESaIcEEEP8gzFile_sSt4lessIS5_ESaISt4pairIKS5_S7_EEED2Ev,@function
_ZNSt3mapINSt7__cxx1112basic_stringIcSt11char_traitsIcESaIcEEEP8gzFile_sSt4lessIS5_ESaISt4pairIKS5_S7_EEED2Ev: # @_ZNSt3mapINSt7__cxx1112basic_stringIcSt11char_traitsIcESaIcEEEP8gzFile_sSt4lessIS5_ESaISt4pairIKS5_S7_EEED2Ev
.Lfunc_begin114:
	.cfi_startproc
# %bb.0:
	jmp	_ZNSt8_Rb_treeINSt7__cxx1112basic_stringIcSt11char_traitsIcESaIcEEESt4pairIKS5_P8gzFile_sESt10_Select1stISA_ESt4lessIS5_ESaISA_EED2Ev # TAILCALL
.Lfunc_end114:
	.size	_ZNSt3mapINSt7__cxx1112basic_stringIcSt11char_traitsIcESaIcEEEP8gzFile_sSt4lessIS5_ESaISt4pairIKS5_S7_EEED2Ev, .Lfunc_end114-_ZNSt3mapINSt7__cxx1112basic_stringIcSt11char_traitsIcESaIcEEEP8gzFile_sSt4lessIS5_ESaISt4pairIKS5_S7_EEED2Ev
	.cfi_endproc
                                        # -- End function
	.section	.text._ZNSt8_Rb_treeINSt7__cxx1112basic_stringIcSt11char_traitsIcESaIcEEESt4pairIKS5_P8gzFile_sESt10_Select1stISA_ESt4lessIS5_ESaISA_EED2Ev,"axG",@progbits,_ZNSt8_Rb_treeINSt7__cxx1112basic_stringIcSt11char_traitsIcESaIcEEESt4pairIKS5_P8gzFile_sESt10_Select1stISA_ESt4lessIS5_ESaISA_EED2Ev,comdat
	.weak	_ZNSt8_Rb_treeINSt7__cxx1112basic_stringIcSt11char_traitsIcESaIcEEESt4pairIKS5_P8gzFile_sESt10_Select1stISA_ESt4lessIS5_ESaISA_EED2Ev # -- Begin function _ZNSt8_Rb_treeINSt7__cxx1112basic_stringIcSt11char_traitsIcESaIcEEESt4pairIKS5_P8gzFile_sESt10_Select1stISA_ESt4lessIS5_ESaISA_EED2Ev
	.p2align	4, 0x90
	.type	_ZNSt8_Rb_treeINSt7__cxx1112basic_stringIcSt11char_traitsIcESaIcEEESt4pairIKS5_P8gzFile_sESt10_Select1stISA_ESt4lessIS5_ESaISA_EED2Ev,@function
_ZNSt8_Rb_treeINSt7__cxx1112basic_stringIcSt11char_traitsIcESaIcEEESt4pairIKS5_P8gzFile_sESt10_Select1stISA_ESt4lessIS5_ESaISA_EED2Ev: # @_ZNSt8_Rb_treeINSt7__cxx1112basic_stringIcSt11char_traitsIcESaIcEEESt4pairIKS5_P8gzFile_sESt10_Select1stISA_ESt4lessIS5_ESaISA_EED2Ev
.Lfunc_begin115:
	.cfi_startproc
	.cfi_personality 3, __gxx_personality_v0
	.cfi_lsda 3, .Lexception7
# %bb.0:
	pushq	%r14
	.cfi_def_cfa_offset 16
	pushq	%rbx
	.cfi_def_cfa_offset 24
	pushq	%rax
	.cfi_def_cfa_offset 32
	.cfi_offset %rbx, -24
	.cfi_offset %r14, -16
	movq	%rdi, %rbx
	callq	_ZNSt8_Rb_treeINSt7__cxx1112basic_stringIcSt11char_traitsIcESaIcEEESt4pairIKS5_P8gzFile_sESt10_Select1stISA_ESt4lessIS5_ESaISA_EE8_M_beginEv
.Ltmp538:
	movq	%rbx, %rdi
	movq	%rax, %rsi
	callq	_ZNSt8_Rb_treeINSt7__cxx1112basic_stringIcSt11char_traitsIcESaIcEEESt4pairIKS5_P8gzFile_sESt10_Select1stISA_ESt4lessIS5_ESaISA_EE8_M_eraseEPSt13_Rb_tree_nodeISA_E
.Ltmp539:
# %bb.1:
	movq	%rbx, %rdi
	addq	$8, %rsp
	popq	%rbx
	popq	%r14
	jmp	_ZN9__gnu_cxx13new_allocatorISt13_Rb_tree_nodeISt4pairIKNSt7__cxx1112basic_stringIcSt11char_traitsIcESaIcEEEP8gzFile_sEEED2Ev # TAILCALL
.LBB115_2:
.Ltmp540:
	movq	%rax, %r14
	movq	%rbx, %rdi
	callq	_ZN9__gnu_cxx13new_allocatorISt13_Rb_tree_nodeISt4pairIKNSt7__cxx1112basic_stringIcSt11char_traitsIcESaIcEEEP8gzFile_sEEED2Ev
	movq	%r14, %rdi
	callq	__clang_call_terminate
.Lfunc_end115:
	.size	_ZNSt8_Rb_treeINSt7__cxx1112basic_stringIcSt11char_traitsIcESaIcEEESt4pairIKS5_P8gzFile_sESt10_Select1stISA_ESt4lessIS5_ESaISA_EED2Ev, .Lfunc_end115-_ZNSt8_Rb_treeINSt7__cxx1112basic_stringIcSt11char_traitsIcESaIcEEESt4pairIKS5_P8gzFile_sESt10_Select1stISA_ESt4lessIS5_ESaISA_EED2Ev
	.cfi_endproc
	.section	.gcc_except_table,"a",@progbits
	.p2align	2
GCC_except_table115:
.Lexception7:
	.byte	255                     # @LPStart Encoding = omit
	.byte	3                       # @TType Encoding = udata4
	.byte	21                      # @TType base offset
	.byte	3                       # Call site Encoding = udata4
	.byte	13                      # Call site table length
	.long	.Ltmp538-.Lfunc_begin115 # >> Call Site 1 <<
	.long	.Ltmp539-.Ltmp538       #   Call between .Ltmp538 and .Ltmp539
	.long	.Ltmp540-.Lfunc_begin115 #     jumps to .Ltmp540
	.byte	1                       #   On action: 1
	.byte	1                       # >> Action Record 1 <<
                                        #   Catch TypeInfo 1
	.byte	0                       #   No further actions
                                        # >> Catch TypeInfos <<
	.long	0                       # TypeInfo 1
	.p2align	2
                                        # -- End function
