	.text
	.file	"llvm-link"
	.file	1 "/usr/lib/gcc/x86_64-linux-gnu/9/../../../../include/c++/9/ext/concurrence.h"
	.file	2 "/usr/lib/gcc/x86_64-linux-gnu/9/../../../../include/c++/9/bits/ios_base.h"
	.file	3 "/usr/lib/gcc/x86_64-linux-gnu/9/../../../../include/x86_64-linux-gnu/c++/9/bits/c++config.h"
	.file	4 "/usr/lib/gcc/x86_64-linux-gnu/9/../../../../include/c++/9/bits/postypes.h"
	.file	5 "/usr/include/stdlib.h"
	.file	6 "/usr/lib/gcc/x86_64-linux-gnu/9/../../../../include/c++/9/bits/std_abs.h"
	.file	7 "/usr/include/x86_64-linux-gnu/bits/mathcalls.h"
	.file	8 "/usr/lib/gcc/x86_64-linux-gnu/9/../../../../include/c++/9/cmath"
	.file	9 "/usr/include/math.h"
	.file	10 "/usr/lib/gcc/x86_64-linux-gnu/9/../../../../include/c++/9/math.h"
	.file	11 "/usr/lib/gcc/x86_64-linux-gnu/9/../../../../include/c++/9/debug/debug.h"
	.file	12 "/usr/lib/gcc/x86_64-linux-gnu/9/../../../../include/c++/9/bits/exception_ptr.h"
	.file	13 "/usr/lib/gcc/x86_64-linux-gnu/9/../../../../include/c++/9/ext/new_allocator.h"
	.file	14 "/usr/include/x86_64-linux-gnu/bits/types/__mbstate_t.h"
	.file	15 "/usr/include/x86_64-linux-gnu/bits/types/mbstate_t.h"
	.file	16 "/usr/lib/gcc/x86_64-linux-gnu/9/../../../../include/c++/9/cwchar"
	.file	17 "/usr/include/x86_64-linux-gnu/bits/types/wint_t.h"
	.file	18 "/usr/include/wchar.h"
	.file	19 "/usr/include/x86_64-linux-gnu/bits/types/__FILE.h"
	.file	20 "/home/yingj4/llvm-6.0/builtLLVM/lib/clang/6.0.1/include/stddef.h"
	.file	21 "/usr/include/x86_64-linux-gnu/bits/types.h"
	.file	22 "/usr/include/x86_64-linux-gnu/bits/stdint-intn.h"
	.file	23 "/usr/lib/gcc/x86_64-linux-gnu/9/../../../../include/c++/9/cstdint"
	.file	24 "/usr/include/stdint.h"
	.file	25 "/usr/include/x86_64-linux-gnu/bits/stdint-uintn.h"
	.file	26 "/usr/lib/gcc/x86_64-linux-gnu/9/../../../../include/c++/9/clocale"
	.file	27 "/usr/include/locale.h"
	.file	28 "/usr/include/ctype.h"
	.file	29 "/usr/lib/gcc/x86_64-linux-gnu/9/../../../../include/c++/9/cctype"
	.file	30 "/usr/lib/gcc/x86_64-linux-gnu/9/../../../../include/c++/9/cstdlib"
	.file	31 "/usr/include/x86_64-linux-gnu/bits/types/FILE.h"
	.file	32 "/usr/lib/gcc/x86_64-linux-gnu/9/../../../../include/c++/9/cstdio"
	.file	33 "/usr/include/x86_64-linux-gnu/bits/types/__fpos_t.h"
	.file	34 "/usr/include/stdio.h"
	.file	35 "/usr/lib/gcc/x86_64-linux-gnu/9/../../../../include/c++/9/bits/shared_ptr_base.h"
	.file	36 "/usr/lib/gcc/x86_64-linux-gnu/9/../../../../include/c++/9/stdlib.h"
	.file	37 "/usr/include/wctype.h"
	.file	38 "/usr/lib/gcc/x86_64-linux-gnu/9/../../../../include/c++/9/cwctype"
	.file	39 "/usr/include/x86_64-linux-gnu/bits/wctype-wchar.h"
	.file	40 "/home/yingj4/Desktop/cs598jtfa20/project/audio_pipeline/./include/audio.h"
	.file	41 "/usr/lib/gcc/x86_64-linux-gnu/9/../../../../include/c++/9/bits/alloc_traits.h"
	.file	42 "/usr/lib/gcc/x86_64-linux-gnu/9/../../../../include/c++/9/iosfwd"
	.file	43 "/home/yingj4/Desktop/cs598jtfa20/project/audio_pipeline/./include/sound.h"
	.file	44 "/home/yingj4/Desktop/cs598jtfa20/project/audio_pipeline/./libspatialaudio/build/Release/include/spatialaudio/AmbisonicCommons.h"
	.file	45 "/usr/lib/gcc/x86_64-linux-gnu/9/../../../../include/c++/9/bits/stringfwd.h"
	.file	46 "/usr/lib/gcc/x86_64-linux-gnu/9/../../../../include/x86_64-linux-gnu/c++/9/bits/c++allocator.h"
	.file	47 "/usr/lib/gcc/x86_64-linux-gnu/9/../../../../include/c++/9/bits/allocator.h"
	.file	48 "/usr/lib/gcc/x86_64-linux-gnu/9/../../../../include/c++/9/ext/alloc_traits.h"
	.file	49 "/usr/lib/gcc/x86_64-linux-gnu/9/../../../../include/c++/9/bits/stl_vector.h"
	.file	50 "/usr/lib/gcc/x86_64-linux-gnu/9/../../../../include/c++/9/type_traits"
	.file	51 "/usr/lib/gcc/x86_64-linux-gnu/9/../../../../include/c++/9/bits/stl_iterator.h"
	.file	52 "/usr/lib/gcc/x86_64-linux-gnu/9/../../../../include/c++/9/bits/stl_iterator_base_types.h"
	.file	53 "/home/yingj4/Desktop/cs598jtfa20/project/audio_pipeline/src/audio.cpp"
	.file	54 "/usr/lib/gcc/x86_64-linux-gnu/9/../../../../include/c++/9/bits/basic_string.h"
	.file	55 "/usr/lib/gcc/x86_64-linux-gnu/9/../../../../include/c++/9/bits/char_traits.h"
	.file	56 "/usr/lib/gcc/x86_64-linux-gnu/9/../../../../include/c++/9/ext/numeric_traits.h"
	.file	57 "/usr/lib/gcc/x86_64-linux-gnu/9/../../../../include/x86_64-linux-gnu/c++/9/bits/atomic_word.h"
	.file	58 "/usr/lib/gcc/x86_64-linux-gnu/9/../../../../include/c++/9/iostream"
	.file	59 "/usr/include/x86_64-linux-gnu/bits/types/clock_t.h"
	.file	60 "/usr/lib/gcc/x86_64-linux-gnu/9/../../../../include/c++/9/ctime"
	.file	61 "/usr/include/x86_64-linux-gnu/bits/types/time_t.h"
	.file	62 "/usr/include/time.h"
	.file	63 "/usr/lib/gcc/x86_64-linux-gnu/9/../../../../include/c++/9/chrono"
	.globl	_ZN12ILLIXR_AUDIO5SoundC2ENSt7__cxx1112basic_stringIcSt11char_traitsIcESaIcEEEjb # -- Begin function _ZN12ILLIXR_AUDIO5SoundC2ENSt7__cxx1112basic_stringIcSt11char_traitsIcESaIcEEEjb
	.p2align	4, 0x90
	.type	_ZN12ILLIXR_AUDIO5SoundC2ENSt7__cxx1112basic_stringIcSt11char_traitsIcESaIcEEEjb,@function
_ZN12ILLIXR_AUDIO5SoundC2ENSt7__cxx1112basic_stringIcSt11char_traitsIcESaIcEEEjb: # @_ZN12ILLIXR_AUDIO5SoundC2ENSt7__cxx1112basic_stringIcSt11char_traitsIcESaIcEEEjb
.Lfunc_begin0:
	.file	64 "/home/yingj4/Desktop/cs598jtfa20/project/audio_pipeline/src/sound.cpp"
	.loc	64 5 0                  # src/sound.cpp:5:0
	.cfi_startproc
	.cfi_personality 3, __gxx_personality_v0
	.cfi_lsda 3, .Lexception0
# %bb.0:
	pushq	%rbp
	.cfi_def_cfa_offset 16
	pushq	%r15
	.cfi_def_cfa_offset 24
	pushq	%r14
	.cfi_def_cfa_offset 32
	pushq	%rbx
	.cfi_def_cfa_offset 40
	subq	$56, %rsp
	.cfi_def_cfa_offset 96
	.cfi_offset %rbx, -40
	.cfi_offset %r14, -32
	.cfi_offset %r15, -24
	.cfi_offset %rbp, -16
	#DEBUG_VALUE: Sound:this <- %rdi
	#DEBUG_VALUE: Sound:srcFilename <- [%rsi+0]
	#DEBUG_VALUE: Sound:nOrder <- %edx
	#DEBUG_VALUE: Sound:b3D <- %ecx
	movl	%edx, %r14d
	movq	%rsi, %r15
	movq	%rdi, %rbx
.Ltmp9:
	#DEBUG_VALUE: Sound:nOrder <- %r14d
	#DEBUG_VALUE: Sound:srcFilename <- [%r15+0]
	#DEBUG_VALUE: Sound:this <- %rbx
	.loc	64 6 9 prologue_end     # src/sound.cpp:6:9
	movl	$1065353216, 4132(%rbx) # imm = 0x3F800000
	.loc	64 7 15                 # src/sound.cpp:7:15
	movl	$528, %edi              # imm = 0x210
	callq	_Znwm
.Ltmp10:
	movq	%rax, %rbp
.Ltmp0:
	.loc	64 7 19 is_stmt 0       # src/sound.cpp:7:19
	movl	$8, %edx
	movq	%rbp, %rdi
	movq	%r15, %rsi
.Ltmp11:
	#DEBUG_VALUE: Sound:srcFilename <- [%rsi+0]
	callq	_ZNSt13basic_fstreamIcSt11char_traitsIcEEC1ERKNSt7__cxx1112basic_stringIcS1_SaIcEEESt13_Ios_Openmode
.Ltmp12:
.Ltmp1:
# %bb.1:
	#DEBUG_VALUE: Sound:this <- %rbx
	#DEBUG_VALUE: Sound:nOrder <- %r14d
	.loc	64 7 13                 # src/sound.cpp:7:13
	movq	%rbp, (%rbx)
	movq	%rsp, %rsi
	.loc	64 12 14 is_stmt 1      # src/sound.cpp:12:14
	movl	$44, %edx
	movq	%rbp, %rdi
	callq	_ZNSi4readEPcl
	.loc	64 15 15                # src/sound.cpp:15:15
	movl	$64, %edi
	callq	_Znwm
	movq	%rax, %rbp
.Ltmp3:
	.loc	64 15 19 is_stmt 0      # src/sound.cpp:15:19
	movq	%rbp, %rdi
	callq	_ZN8CBFormatC1Ev
.Ltmp4:
.Ltmp13:
# %bb.2:
	#DEBUG_VALUE: Sound:this <- %rbx
	#DEBUG_VALUE: Sound:nOrder <- %r14d
	.loc	64 15 13                # src/sound.cpp:15:13
	movq	%rbp, 4104(%rbx)
	.loc	64 16 24 is_stmt 1      # src/sound.cpp:16:24
	movq	(%rbp), %rax
	movl	$1, %edx
	movl	$1024, %ecx             # imm = 0x400
	movq	%rbp, %rdi
	movl	%r14d, %esi
	callq	*16(%rax)
	.loc	64 17 5                 # src/sound.cpp:17:5
	movq	4104(%rbx), %rdi
	.loc	64 17 14 is_stmt 0      # src/sound.cpp:17:14
	movq	(%rdi), %rax
	callq	*32(%rax)
	.loc	64 20 16 is_stmt 1      # src/sound.cpp:20:16
	movl	$136, %edi
	callq	_Znwm
	movq	%rax, %rbp
.Ltmp6:
	.loc	64 20 20 is_stmt 0      # src/sound.cpp:20:20
	movq	%rbp, %rdi
	callq	_ZN21CAmbisonicEncoderDistC1Ev
.Ltmp7:
.Ltmp14:
# %bb.3:
	#DEBUG_VALUE: Sound:this <- %rbx
	#DEBUG_VALUE: Sound:nOrder <- %r14d
	.loc	64 20 14                # src/sound.cpp:20:14
	movq	%rbp, 4112(%rbx)
	.loc	64 21 21 is_stmt 1      # src/sound.cpp:21:21
	movq	(%rbp), %rax
	movl	$1, %edx
	movl	$48000, %ecx            # imm = 0xBB80
	movq	%rbp, %rdi
	movl	%r14d, %esi
	callq	*16(%rax)
	.loc	64 22 5                 # src/sound.cpp:22:5
	movq	4112(%rbx), %rdi
	.loc	64 22 15 is_stmt 0      # src/sound.cpp:22:15
	movq	(%rdi), %rax
	callq	*32(%rax)
	.loc	64 23 21 is_stmt 1      # src/sound.cpp:23:21
	movq	$0, 4120(%rbx)
	.loc	64 25 22                # src/sound.cpp:25:22
	movl	$0, 4128(%rbx)
	.loc	64 26 5                 # src/sound.cpp:26:5
	movq	4112(%rbx), %rdi
	.loc	64 26 15 is_stmt 0      # src/sound.cpp:26:15
	movq	(%rdi), %rax
	xorl	%ecx, %ecx
	.loc	64 26 27                # src/sound.cpp:26:27
	movq	%rcx, %xmm0
	.loc	64 26 15                # src/sound.cpp:26:15
	xorps	%xmm1, %xmm1
	callq	*40(%rax)
	.loc	64 27 5 is_stmt 1       # src/sound.cpp:27:5
	movq	4112(%rbx), %rdi
	.loc	64 27 15 is_stmt 0      # src/sound.cpp:27:15
	movq	(%rdi), %rax
	callq	*32(%rax)
.Ltmp15:
	.loc	64 28 1 is_stmt 1       # src/sound.cpp:28:1
	addq	$56, %rsp
	popq	%rbx
.Ltmp16:
	popq	%r14
.Ltmp17:
	popq	%r15
	popq	%rbp
	retq
.Ltmp18:
.LBB0_6:
	#DEBUG_VALUE: Sound:this <- %rbx
	#DEBUG_VALUE: Sound:nOrder <- %r14d
.Ltmp8:
	.loc	64 0 1 is_stmt 0        # src/sound.cpp:0:1
	jmp	.LBB0_7
.Ltmp19:
.LBB0_5:
	#DEBUG_VALUE: Sound:this <- %rbx
	#DEBUG_VALUE: Sound:nOrder <- %r14d
.Ltmp5:
	jmp	.LBB0_7
.Ltmp20:
.LBB0_4:
	#DEBUG_VALUE: Sound:this <- %rbx
	#DEBUG_VALUE: Sound:nOrder <- %r14d
.Ltmp2:
.LBB0_7:
	#DEBUG_VALUE: Sound:this <- %rbx
	#DEBUG_VALUE: Sound:nOrder <- %r14d
	movq	%rax, %rbx
.Ltmp21:
	movq	%rbp, %rdi
	callq	_ZdlPv
	movq	%rbx, %rdi
	callq	_Unwind_Resume
.Lfunc_end0:
	.size	_ZN12ILLIXR_AUDIO5SoundC2ENSt7__cxx1112basic_stringIcSt11char_traitsIcESaIcEEEjb, .Lfunc_end0-_ZN12ILLIXR_AUDIO5SoundC2ENSt7__cxx1112basic_stringIcSt11char_traitsIcESaIcEEEjb
	.cfi_endproc
	.section	.gcc_except_table,"a",@progbits
	.p2align	2
GCC_except_table0:
.Lexception0:
	.byte	255                     # @LPStart Encoding = omit
	.byte	3                       # @TType Encoding = udata4
	.byte	93                      # @TType base offset
	.byte	3                       # Call site Encoding = udata4
	.byte	91                      # Call site table length
	.long	.Lfunc_begin0-.Lfunc_begin0 # >> Call Site 1 <<
	.long	.Ltmp0-.Lfunc_begin0    #   Call between .Lfunc_begin0 and .Ltmp0
	.long	0                       #     has no landing pad
	.byte	0                       #   On action: cleanup
	.long	.Ltmp0-.Lfunc_begin0    # >> Call Site 2 <<
	.long	.Ltmp1-.Ltmp0           #   Call between .Ltmp0 and .Ltmp1
	.long	.Ltmp2-.Lfunc_begin0    #     jumps to .Ltmp2
	.byte	0                       #   On action: cleanup
	.long	.Ltmp1-.Lfunc_begin0    # >> Call Site 3 <<
	.long	.Ltmp3-.Ltmp1           #   Call between .Ltmp1 and .Ltmp3
	.long	0                       #     has no landing pad
	.byte	0                       #   On action: cleanup
	.long	.Ltmp3-.Lfunc_begin0    # >> Call Site 4 <<
	.long	.Ltmp4-.Ltmp3           #   Call between .Ltmp3 and .Ltmp4
	.long	.Ltmp5-.Lfunc_begin0    #     jumps to .Ltmp5
	.byte	0                       #   On action: cleanup
	.long	.Ltmp4-.Lfunc_begin0    # >> Call Site 5 <<
	.long	.Ltmp6-.Ltmp4           #   Call between .Ltmp4 and .Ltmp6
	.long	0                       #     has no landing pad
	.byte	0                       #   On action: cleanup
	.long	.Ltmp6-.Lfunc_begin0    # >> Call Site 6 <<
	.long	.Ltmp7-.Ltmp6           #   Call between .Ltmp6 and .Ltmp7
	.long	.Ltmp8-.Lfunc_begin0    #     jumps to .Ltmp8
	.byte	0                       #   On action: cleanup
	.long	.Ltmp7-.Lfunc_begin0    # >> Call Site 7 <<
	.long	.Lfunc_end0-.Ltmp7      #   Call between .Ltmp7 and .Lfunc_end0
	.long	0                       #     has no landing pad
	.byte	0                       #   On action: cleanup
	.p2align	2
                                        # -- End function
	.section	.text._ZStorSt12_Ios_IostateS_,"axG",@progbits,_ZStorSt12_Ios_IostateS_,comdat
	.weak	_ZStorSt12_Ios_IostateS_ # -- Begin function _ZStorSt12_Ios_IostateS_
	.p2align	4, 0x90
	.type	_ZStorSt12_Ios_IostateS_,@function
_ZStorSt12_Ios_IostateS_:               # @_ZStorSt12_Ios_IostateS_
.Lfunc_begin1:
	.loc	2 170 0 is_stmt 1       # /usr/lib/gcc/x86_64-linux-gnu/9/../../../../include/c++/9/bits/ios_base.h:170:0
	.cfi_startproc
# %bb.0:
	#DEBUG_VALUE: operator|:__a <- %edi
	#DEBUG_VALUE: operator|:__a <- %edi
	#DEBUG_VALUE: operator|:__b <- %esi
	#DEBUG_VALUE: operator|:__b <- %esi
	.loc	2 170 47 prologue_end   # /usr/lib/gcc/x86_64-linux-gnu/9/../../../../include/c++/9/bits/ios_base.h:170:47
	orl	%esi, %edi
.Ltmp22:
	.loc	2 170 5 is_stmt 0       # /usr/lib/gcc/x86_64-linux-gnu/9/../../../../include/c++/9/bits/ios_base.h:170:5
	movl	%edi, %eax
	retq
.Ltmp23:
.Lfunc_end1:
	.size	_ZStorSt12_Ios_IostateS_, .Lfunc_end1-_ZStorSt12_Ios_IostateS_
	.cfi_endproc
                                        # -- End function
	.text
	.globl	_ZN12ILLIXR_AUDIO5Sound9setSrcPosER10PolarPoint # -- Begin function _ZN12ILLIXR_AUDIO5Sound9setSrcPosER10PolarPoint
	.p2align	4, 0x90
	.type	_ZN12ILLIXR_AUDIO5Sound9setSrcPosER10PolarPoint,@function
_ZN12ILLIXR_AUDIO5Sound9setSrcPosER10PolarPoint: # @_ZN12ILLIXR_AUDIO5Sound9setSrcPosER10PolarPoint
.Lfunc_begin2:
	.loc	64 30 0 is_stmt 1       # src/sound.cpp:30:0
	.cfi_startproc
# %bb.0:
	pushq	%rbx
	.cfi_def_cfa_offset 16
	.cfi_offset %rbx, -16
	#DEBUG_VALUE: setSrcPos:this <- %rdi
	#DEBUG_VALUE: setSrcPos:pos <- %rsi
	movq	%rdi, %rbx
	#DEBUG_VALUE: setSrcPos:pos <- %rsi
.Ltmp24:
	#DEBUG_VALUE: setSrcPos:this <- %rbx
	.loc	64 31 27 prologue_end   # src/sound.cpp:31:27
	movl	(%rsi), %eax
	.loc	64 31 21 is_stmt 0      # src/sound.cpp:31:21
	movl	%eax, 4120(%rbx)
	.loc	64 32 29 is_stmt 1      # src/sound.cpp:32:29
	movl	4(%rsi), %eax
	.loc	64 32 23 is_stmt 0      # src/sound.cpp:32:23
	movl	%eax, 4124(%rbx)
	.loc	64 33 28 is_stmt 1      # src/sound.cpp:33:28
	movl	8(%rsi), %eax
	.loc	64 33 22 is_stmt 0      # src/sound.cpp:33:22
	movl	%eax, 4128(%rbx)
	.loc	64 34 5 is_stmt 1       # src/sound.cpp:34:5
	movq	4112(%rbx), %rdi
	.loc	64 34 15 is_stmt 0      # src/sound.cpp:34:15
	movq	(%rdi), %rax
	.loc	64 34 27                # src/sound.cpp:34:27
	movsd	4120(%rbx), %xmm0       # xmm0 = mem[0],zero
	movss	4128(%rbx), %xmm1       # xmm1 = mem[0],zero,zero,zero
	.loc	64 34 15                # src/sound.cpp:34:15
	callq	*40(%rax)
.Ltmp25:
	.loc	64 35 5 is_stmt 1       # src/sound.cpp:35:5
	movq	4112(%rbx), %rdi
	.loc	64 35 15 is_stmt 0      # src/sound.cpp:35:15
	movq	(%rdi), %rax
	popq	%rbx
.Ltmp26:
	jmpq	*32(%rax)               # TAILCALL
.Ltmp27:
.Lfunc_end2:
	.size	_ZN12ILLIXR_AUDIO5Sound9setSrcPosER10PolarPoint, .Lfunc_end2-_ZN12ILLIXR_AUDIO5Sound9setSrcPosER10PolarPoint
	.cfi_endproc
                                        # -- End function
	.globl	_ZN12ILLIXR_AUDIO5Sound9setSrcAmpEf # -- Begin function _ZN12ILLIXR_AUDIO5Sound9setSrcAmpEf
	.p2align	4, 0x90
	.type	_ZN12ILLIXR_AUDIO5Sound9setSrcAmpEf,@function
_ZN12ILLIXR_AUDIO5Sound9setSrcAmpEf:    # @_ZN12ILLIXR_AUDIO5Sound9setSrcAmpEf
.Lfunc_begin3:
	.loc	64 38 0 is_stmt 1       # src/sound.cpp:38:0
	.cfi_startproc
# %bb.0:
	#DEBUG_VALUE: setSrcAmp:this <- %rdi
	#DEBUG_VALUE: setSrcAmp:this <- %rdi
	#DEBUG_VALUE: setSrcAmp:ampScale <- %xmm0
	#DEBUG_VALUE: setSrcAmp:ampScale <- %xmm0
	.loc	64 39 9 prologue_end    # src/sound.cpp:39:9
	movss	%xmm0, 4132(%rdi)
	.loc	64 40 1                 # src/sound.cpp:40:1
	retq
.Ltmp28:
.Lfunc_end3:
	.size	_ZN12ILLIXR_AUDIO5Sound9setSrcAmpEf, .Lfunc_end3-_ZN12ILLIXR_AUDIO5Sound9setSrcAmpEf
	.cfi_endproc
                                        # -- End function
	.section	.rodata.cst8,"aM",@progbits,8
	.p2align	3               # -- Begin function _ZN12ILLIXR_AUDIO5Sound13readInBFormatEv
.LCPI4_0:
	.quad	4674736138332667904     # double 32767
	.text
	.globl	_ZN12ILLIXR_AUDIO5Sound13readInBFormatEv
	.p2align	4, 0x90
	.type	_ZN12ILLIXR_AUDIO5Sound13readInBFormatEv,@function
_ZN12ILLIXR_AUDIO5Sound13readInBFormatEv: # @_ZN12ILLIXR_AUDIO5Sound13readInBFormatEv
.Lfunc_begin4:
	.loc	64 43 0                 # src/sound.cpp:43:0
	.cfi_startproc
# %bb.0:
	pushq	%rbx
	.cfi_def_cfa_offset 16
	subq	$2048, %rsp             # imm = 0x800
	.cfi_def_cfa_offset 2064
	.cfi_offset %rbx, -16
	#DEBUG_VALUE: readInBFormat:this <- %rdi
	movq	%rdi, %rbx
.Ltmp29:
	#DEBUG_VALUE: readInBFormat:this <- %rbx
	.loc	64 45 5 prologue_end    # src/sound.cpp:45:5
	movq	(%rbx), %rdi
	movq	%rsp, %rsi
	.loc	64 45 14 is_stmt 0      # src/sound.cpp:45:14
	movl	$2048, %edx             # imm = 0x800
	callq	_ZNSi4readEPcl
	movq	$-2048, %rax            # imm = 0xF800
	movsd	.LCPI4_0(%rip), %xmm0   # xmm0 = mem[0],zero
.Ltmp30:
	#DEBUG_VALUE: i <- 0
	.p2align	4, 0x90
.LBB4_1:                                # =>This Inner Loop Header: Depth=1
	#DEBUG_VALUE: readInBFormat:this <- %rbx
	.loc	64 48 21 is_stmt 1      # src/sound.cpp:48:21
	movss	4132(%rbx), %xmm1       # xmm1 = mem[0],zero,zero,zero
	cvtss2sd	%xmm1, %xmm1
	.loc	64 48 28 is_stmt 0      # src/sound.cpp:48:28
	movswl	2048(%rsp,%rax), %ecx
	xorps	%xmm2, %xmm2
	cvtsi2sdl	%ecx, %xmm2
	.loc	64 48 42                # src/sound.cpp:48:42
	divsd	%xmm0, %xmm2
	.loc	64 48 25                # src/sound.cpp:48:25
	mulsd	%xmm1, %xmm2
	.loc	64 48 21                # src/sound.cpp:48:21
	xorps	%xmm1, %xmm1
	cvtsd2ss	%xmm2, %xmm1
	.loc	64 48 19                # src/sound.cpp:48:19
	movss	%xmm1, 4104(%rbx,%rax,2)
.Ltmp31:
	.loc	64 47 23 is_stmt 1      # src/sound.cpp:47:23
	addq	$2, %rax
.Ltmp32:
	.loc	64 47 5 is_stmt 0       # src/sound.cpp:47:5
	jne	.LBB4_1
.Ltmp33:
# %bb.2:
	#DEBUG_VALUE: readInBFormat:this <- %rbx
	.loc	64 50 43 is_stmt 1      # src/sound.cpp:50:43
	movq	4104(%rbx), %rcx
	.loc	64 50 5 is_stmt 0       # src/sound.cpp:50:5
	movq	4112(%rbx), %rdi
	.loc	64 50 23                # src/sound.cpp:50:23
	leaq	8(%rbx), %rsi
	.loc	64 50 15                # src/sound.cpp:50:15
	movl	$1024, %edx             # imm = 0x400
	callq	_ZN21CAmbisonicEncoderDist7ProcessEPfjP8CBFormat
	.loc	64 51 12 is_stmt 1      # src/sound.cpp:51:12
	movq	4104(%rbx), %rax
	.loc	64 51 5 is_stmt 0       # src/sound.cpp:51:5
	addq	$2048, %rsp             # imm = 0x800
	popq	%rbx
.Ltmp34:
	retq
.Ltmp35:
.Lfunc_end4:
	.size	_ZN12ILLIXR_AUDIO5Sound13readInBFormatEv, .Lfunc_end4-_ZN12ILLIXR_AUDIO5Sound13readInBFormatEv
	.cfi_endproc
                                        # -- End function
	.globl	_ZN12ILLIXR_AUDIO5SoundD2Ev # -- Begin function _ZN12ILLIXR_AUDIO5SoundD2Ev
	.p2align	4, 0x90
	.type	_ZN12ILLIXR_AUDIO5SoundD2Ev,@function
_ZN12ILLIXR_AUDIO5SoundD2Ev:            # @_ZN12ILLIXR_AUDIO5SoundD2Ev
.Lfunc_begin5:
	.loc	64 54 0 is_stmt 1       # src/sound.cpp:54:0
	.cfi_startproc
	.cfi_personality 3, __gxx_personality_v0
	.cfi_lsda 3, .Lexception1
# %bb.0:
	pushq	%rbx
	.cfi_def_cfa_offset 16
	.cfi_offset %rbx, -16
	#DEBUG_VALUE: ~Sound:this <- %rdi
	movq	%rdi, %rbx
.Ltmp39:
	#DEBUG_VALUE: ~Sound:this <- %rbx
	.loc	64 55 5 prologue_end    # src/sound.cpp:55:5
	movq	(%rbx), %rdi
.Ltmp36:
	.loc	64 55 14 is_stmt 0      # src/sound.cpp:55:14
	callq	_ZNSt13basic_fstreamIcSt11char_traitsIcEE5closeEv
.Ltmp37:
.Ltmp40:
# %bb.1:
	#DEBUG_VALUE: ~Sound:this <- %rbx
	.loc	64 56 12 is_stmt 1      # src/sound.cpp:56:12
	movq	(%rbx), %rdi
	.loc	64 56 5 is_stmt 0       # src/sound.cpp:56:5
	testq	%rdi, %rdi
	je	.LBB5_3
.Ltmp41:
# %bb.2:
	#DEBUG_VALUE: ~Sound:this <- %rbx
	movq	(%rdi), %rax
	callq	*8(%rax)
.Ltmp42:
.LBB5_3:
	#DEBUG_VALUE: ~Sound:this <- %rbx
	.loc	64 57 12 is_stmt 1      # src/sound.cpp:57:12
	movq	4104(%rbx), %rdi
	.loc	64 57 5 is_stmt 0       # src/sound.cpp:57:5
	testq	%rdi, %rdi
	je	.LBB5_5
.Ltmp43:
# %bb.4:
	#DEBUG_VALUE: ~Sound:this <- %rbx
	movq	(%rdi), %rax
	callq	*8(%rax)
.Ltmp44:
.LBB5_5:
	#DEBUG_VALUE: ~Sound:this <- %rbx
	.loc	64 58 12 is_stmt 1      # src/sound.cpp:58:12
	movq	4112(%rbx), %rdi
	.loc	64 58 5 is_stmt 0       # src/sound.cpp:58:5
	testq	%rdi, %rdi
	je	.LBB5_6
.Ltmp45:
# %bb.8:
	#DEBUG_VALUE: ~Sound:this <- %rbx
	movq	(%rdi), %rax
	popq	%rbx
.Ltmp46:
	jmpq	*8(%rax)                # TAILCALL
.Ltmp47:
.LBB5_6:
	#DEBUG_VALUE: ~Sound:this <- %rbx
	.loc	64 59 1 is_stmt 1       # src/sound.cpp:59:1
	popq	%rbx
.Ltmp48:
	retq
.LBB5_7:
.Ltmp49:
	#DEBUG_VALUE: ~Sound:this <- %rbx
.Ltmp38:
	.loc	64 55 14                # src/sound.cpp:55:14
	movq	%rax, %rdi
	callq	__clang_call_terminate
.Ltmp50:
.Lfunc_end5:
	.size	_ZN12ILLIXR_AUDIO5SoundD2Ev, .Lfunc_end5-_ZN12ILLIXR_AUDIO5SoundD2Ev
	.cfi_endproc
	.section	.gcc_except_table,"a",@progbits
	.p2align	2
GCC_except_table5:
.Lexception1:
	.byte	255                     # @LPStart Encoding = omit
	.byte	3                       # @TType Encoding = udata4
	.asciz	"\242\200\200"          # @TType base offset
	.byte	3                       # Call site Encoding = udata4
	.byte	26                      # Call site table length
	.long	.Ltmp36-.Lfunc_begin5   # >> Call Site 1 <<
	.long	.Ltmp37-.Ltmp36         #   Call between .Ltmp36 and .Ltmp37
	.long	.Ltmp38-.Lfunc_begin5   #     jumps to .Ltmp38
	.byte	1                       #   On action: 1
	.long	.Ltmp37-.Lfunc_begin5   # >> Call Site 2 <<
	.long	.Lfunc_end5-.Ltmp37     #   Call between .Ltmp37 and .Lfunc_end5
	.long	0                       #     has no landing pad
	.byte	0                       #   On action: cleanup
	.byte	1                       # >> Action Record 1 <<
                                        #   Catch TypeInfo 1
	.byte	0                       #   No further actions
                                        # >> Catch TypeInfos <<
	.long	0                       # TypeInfo 1
	.p2align	2
                                        # -- End function
	.section	.text.__clang_call_terminate,"axG",@progbits,__clang_call_terminate,comdat
	.hidden	__clang_call_terminate  # -- Begin function __clang_call_terminate
	.weak	__clang_call_terminate
	.p2align	4, 0x90
	.type	__clang_call_terminate,@function
__clang_call_terminate:                 # @__clang_call_terminate
.Lfunc_begin6:
	.cfi_startproc
# %bb.0:
	pushq	%rax
	.cfi_def_cfa_offset 16
	callq	__cxa_begin_catch
	callq	_ZSt9terminatev
.Lfunc_end6:
	.size	__clang_call_terminate, .Lfunc_end6-__clang_call_terminate
	.cfi_endproc
                                        # -- End function
	.text
	.globl	_ZN12ILLIXR_AUDIO7ABAudioC2ENSt7__cxx1112basic_stringIcSt11char_traitsIcESaIcEEENS0_11ProcessTypeE # -- Begin function _ZN12ILLIXR_AUDIO7ABAudioC2ENSt7__cxx1112basic_stringIcSt11char_traitsIcESaIcEEENS0_11ProcessTypeE
	.p2align	4, 0x90
	.type	_ZN12ILLIXR_AUDIO7ABAudioC2ENSt7__cxx1112basic_stringIcSt11char_traitsIcESaIcEEENS0_11ProcessTypeE,@function
_ZN12ILLIXR_AUDIO7ABAudioC2ENSt7__cxx1112basic_stringIcSt11char_traitsIcESaIcEEENS0_11ProcessTypeE: # @_ZN12ILLIXR_AUDIO7ABAudioC2ENSt7__cxx1112basic_stringIcSt11char_traitsIcESaIcEEENS0_11ProcessTypeE
.Lfunc_begin7:
	.loc	53 3 0                  # src/audio.cpp:3:0
	.cfi_startproc
	.cfi_personality 3, __gxx_personality_v0
	.cfi_lsda 3, .Lexception2
# %bb.0:
	pushq	%r15
	.cfi_def_cfa_offset 16
	pushq	%r14
	.cfi_def_cfa_offset 24
	pushq	%r13
	.cfi_def_cfa_offset 32
	pushq	%r12
	.cfi_def_cfa_offset 40
	pushq	%rbx
	.cfi_def_cfa_offset 48
	subq	$48, %rsp
	.cfi_def_cfa_offset 96
	.cfi_offset %rbx, -48
	.cfi_offset %r12, -40
	.cfi_offset %r13, -32
	.cfi_offset %r14, -24
	.cfi_offset %r15, -16
	#DEBUG_VALUE: ABAudio:this <- %rdi
	#DEBUG_VALUE: ABAudio:outputFilePath <- [%rsi+0]
	#DEBUG_VALUE: ABAudio:procTypeIn <- %edx
	movq	%rsi, %rbx
	movq	%rdi, %r14
	#DEBUG_VALUE: ABAudio:procTypeIn <- %edx
.Ltmp69:
	#DEBUG_VALUE: ABAudio:outputFilePath <- [%rbx+0]
	#DEBUG_VALUE: ABAudio:this <- %r14
	.loc	53 4 17 prologue_end    # src/audio.cpp:4:17
	movl	%edx, (%r14)
.Ltmp70:
	.loc	53 5 21                 # src/audio.cpp:5:21
	testl	%edx, %edx
.Ltmp71:
	.loc	53 5 9 is_stmt 0        # src/audio.cpp:5:9
	jne	.LBB7_3
.Ltmp72:
# %bb.1:
	#DEBUG_VALUE: ABAudio:this <- %r14
	#DEBUG_VALUE: ABAudio:outputFilePath <- [%rbx+0]
	#DEBUG_VALUE: ABAudio:procTypeIn <- %edx
	.loc	53 6 22 is_stmt 1       # src/audio.cpp:6:22
	movl	$512, %edi              # imm = 0x200
	callq	_Znwm
.Ltmp73:
	movq	%rax, %r15
	.loc	53 6 74 is_stmt 0       # src/audio.cpp:6:74
	movl	$16, %edi
	movl	$4, %esi
	callq	_ZStorSt13_Ios_OpenmodeS_
.Ltmp51:
	.loc	53 6 26                 # src/audio.cpp:6:26
	movq	%r15, %rdi
	movq	%rbx, %rsi
	movl	%eax, %edx
	callq	_ZNSt14basic_ofstreamIcSt11char_traitsIcEEC1ERKNSt7__cxx1112basic_stringIcS1_SaIcEEESt13_Ios_Openmode
.Ltmp52:
.Ltmp74:
# %bb.2:
	#DEBUG_VALUE: ABAudio:this <- %r14
	#DEBUG_VALUE: ABAudio:outputFilePath <- [%rbx+0]
	.loc	53 6 20                 # src/audio.cpp:6:20
	movq	%r15, 16(%r14)
	.loc	53 7 9 is_stmt 1        # src/audio.cpp:7:9
	movq	%r14, %rdi
	callq	_ZN12ILLIXR_AUDIO7ABAudio17generateWAVHeaderEv
.Ltmp75:
.LBB7_3:
	#DEBUG_VALUE: ABAudio:this <- %r14
	#DEBUG_VALUE: ABAudio:outputFilePath <- [%rbx+0]
	.loc	53 10 17                # src/audio.cpp:10:17
	movl	$24, %edi
	callq	_Znwm
	movq	%rax, %rbx
.Ltmp76:
	.loc	53 10 21 is_stmt 0      # src/audio.cpp:10:21
	movq	%rbx, %rdi
	callq	_ZNSt6vectorIPN12ILLIXR_AUDIO5SoundESaIS2_EEC2Ev
	.loc	53 10 15                # src/audio.cpp:10:15
	movq	%rbx, 8(%r14)
	.loc	53 12 15 is_stmt 1      # src/audio.cpp:12:15
	movl	$296, %edi              # imm = 0x128
	callq	_Znwm
	movq	%rax, %rbx
.Ltmp54:
	.loc	53 12 19 is_stmt 0      # src/audio.cpp:12:19
	movq	%rbx, %rdi
	callq	_ZN22CAmbisonicBinauralizerC1Ev
.Ltmp55:
.Ltmp77:
# %bb.4:
	#DEBUG_VALUE: ABAudio:this <- %r14
	.loc	53 12 13                # src/audio.cpp:12:13
	movq	%rbx, 24(%r14)
	.loc	53 14 24 is_stmt 1      # src/audio.cpp:14:24
	movq	(%rbx), %rax
	movq	40(%rax), %r13
	leaq	8(%rsp), %r12
	movq	%r12, %rdi
	callq	_ZNSaIcEC2Ev
.Ltmp57:
	leaq	16(%rsp), %r15
	movl	$.L.str, %esi
	movq	%r15, %rdi
	movq	%r12, %rdx
	callq	_ZNSt7__cxx1112basic_stringIcSt11char_traitsIcESaIcEEC2EPKcRKS3_
.Ltmp58:
.Ltmp78:
# %bb.5:
	#DEBUG_VALUE: ABAudio:this <- %r14
.Ltmp60:
	movq	%r15, (%rsp)
	leaq	12(%rsp), %r9
	movl	$3, %esi
	movl	$1, %edx
	movl	$48000, %ecx            # imm = 0xBB80
	movl	$1024, %r8d             # imm = 0x400
	movq	%rbx, %rdi
	callq	*%r13
	movl	%eax, %ebx
.Ltmp61:
.Ltmp79:
# %bb.6:
	#DEBUG_VALUE: ABAudio:this <- %r14
	.loc	53 0 24 is_stmt 0       # src/audio.cpp:0:24
	leaq	16(%rsp), %rdi
	.loc	53 14 15                # src/audio.cpp:14:15
	callq	_ZNSt7__cxx1112basic_stringIcSt11char_traitsIcESaIcEED2Ev
	leaq	8(%rsp), %rdi
	callq	_ZNSaIcED2Ev
	.loc	53 15 9 is_stmt 1       # src/audio.cpp:15:9
	testb	%bl, %bl
	jne	.LBB7_8
.Ltmp80:
# %bb.7:
	#DEBUG_VALUE: ABAudio:this <- %r14
	.loc	53 16 9                 # src/audio.cpp:16:9
	movl	$.Lstr, %edi
	callq	puts
.Ltmp81:
.LBB7_8:
	#DEBUG_VALUE: ABAudio:this <- %r14
	.loc	53 19 15                # src/audio.cpp:19:15
	movl	$200, %edi
	callq	_Znwm
	movq	%rax, %rbx
.Ltmp63:
	.loc	53 19 19 is_stmt 0      # src/audio.cpp:19:19
	movq	%rbx, %rdi
	callq	_ZN19CAmbisonicProcessorC1Ev
.Ltmp64:
.Ltmp82:
# %bb.9:
	#DEBUG_VALUE: ABAudio:this <- %r14
	.loc	53 19 13                # src/audio.cpp:19:13
	movq	%rbx, 32(%r14)
	.loc	53 20 14 is_stmt 1      # src/audio.cpp:20:14
	movl	$3, %esi
	movl	$1, %edx
	movl	$1024, %ecx             # imm = 0x400
	xorl	%r8d, %r8d
	movq	%rbx, %rdi
	callq	_ZN19CAmbisonicProcessor9ConfigureEjbjj
	.loc	53 22 14                # src/audio.cpp:22:14
	movl	$104, %edi
	callq	_Znwm
	movq	%rax, %rbx
.Ltmp66:
	.loc	53 22 18 is_stmt 0      # src/audio.cpp:22:18
	movq	%rbx, %rdi
	callq	_ZN16CAmbisonicZoomerC1Ev
.Ltmp67:
.Ltmp83:
# %bb.10:
	#DEBUG_VALUE: ABAudio:this <- %r14
	.loc	53 22 12                # src/audio.cpp:22:12
	movq	%rbx, 40(%r14)
	.loc	53 23 13 is_stmt 1      # src/audio.cpp:23:13
	movq	(%rbx), %rax
	movl	$3, %esi
	movl	$1, %edx
	xorl	%ecx, %ecx
	movq	%rbx, %rdi
	callq	*16(%rax)
.Ltmp84:
	.loc	53 24 1                 # src/audio.cpp:24:1
	addq	$48, %rsp
	popq	%rbx
	popq	%r12
	popq	%r13
	popq	%r14
.Ltmp85:
	popq	%r15
	retq
.LBB7_20:
.Ltmp86:
	#DEBUG_VALUE: ABAudio:this <- %r14
	#DEBUG_VALUE: ABAudio:outputFilePath <- [%rbx+0]
.Ltmp53:
	.loc	53 0 1 is_stmt 0        # src/audio.cpp:0:1
	movq	%rax, %r14
.Ltmp87:
	.loc	53 6 22 is_stmt 1       # src/audio.cpp:6:22
	movq	%r15, %rdi
	jmp	.LBB7_18
.Ltmp88:
.LBB7_16:
	#DEBUG_VALUE: ABAudio:this <- %r14
.Ltmp68:
	.loc	53 0 22 is_stmt 0       # src/audio.cpp:0:22
	jmp	.LBB7_17
.Ltmp89:
.LBB7_15:
	#DEBUG_VALUE: ABAudio:this <- %r14
.Ltmp65:
	jmp	.LBB7_17
.Ltmp90:
.LBB7_13:
	#DEBUG_VALUE: ABAudio:this <- %r14
.Ltmp62:
	movq	%rax, %r14
.Ltmp91:
	leaq	16(%rsp), %rdi
	.loc	53 14 15 is_stmt 1      # src/audio.cpp:14:15
	callq	_ZNSt7__cxx1112basic_stringIcSt11char_traitsIcESaIcEED2Ev
	jmp	.LBB7_14
.LBB7_12:
.Ltmp92:
	#DEBUG_VALUE: ABAudio:this <- %r14
.Ltmp59:
	.loc	53 0 15 is_stmt 0       # src/audio.cpp:0:15
	movq	%rax, %r14
.Ltmp93:
.LBB7_14:
	leaq	8(%rsp), %rdi
	.loc	53 14 15                # src/audio.cpp:14:15
	callq	_ZNSaIcED2Ev
	movq	%r14, %rdi
	callq	_Unwind_Resume
.Ltmp94:
.LBB7_11:
	#DEBUG_VALUE: ABAudio:this <- %r14
.Ltmp56:
.LBB7_17:
	#DEBUG_VALUE: ABAudio:this <- %r14
	.loc	53 0 15                 # src/audio.cpp:0:15
	movq	%rax, %r14
.Ltmp95:
	movq	%rbx, %rdi
.LBB7_18:
	callq	_ZdlPv
	movq	%r14, %rdi
	callq	_Unwind_Resume
.Lfunc_end7:
	.size	_ZN12ILLIXR_AUDIO7ABAudioC2ENSt7__cxx1112basic_stringIcSt11char_traitsIcESaIcEEENS0_11ProcessTypeE, .Lfunc_end7-_ZN12ILLIXR_AUDIO7ABAudioC2ENSt7__cxx1112basic_stringIcSt11char_traitsIcESaIcEEENS0_11ProcessTypeE
	.cfi_endproc
	.section	.gcc_except_table,"a",@progbits
	.p2align	2
GCC_except_table7:
.Lexception2:
	.byte	255                     # @LPStart Encoding = omit
	.byte	3                       # @TType Encoding = udata4
	.asciz	"\222\201\200"          # @TType base offset
	.byte	3                       # Call site Encoding = udata4
	.ascii	"\217\001"              # Call site table length
	.long	.Lfunc_begin7-.Lfunc_begin7 # >> Call Site 1 <<
	.long	.Ltmp51-.Lfunc_begin7   #   Call between .Lfunc_begin7 and .Ltmp51
	.long	0                       #     has no landing pad
	.byte	0                       #   On action: cleanup
	.long	.Ltmp51-.Lfunc_begin7   # >> Call Site 2 <<
	.long	.Ltmp52-.Ltmp51         #   Call between .Ltmp51 and .Ltmp52
	.long	.Ltmp53-.Lfunc_begin7   #     jumps to .Ltmp53
	.byte	0                       #   On action: cleanup
	.long	.Ltmp52-.Lfunc_begin7   # >> Call Site 3 <<
	.long	.Ltmp54-.Ltmp52         #   Call between .Ltmp52 and .Ltmp54
	.long	0                       #     has no landing pad
	.byte	0                       #   On action: cleanup
	.long	.Ltmp54-.Lfunc_begin7   # >> Call Site 4 <<
	.long	.Ltmp55-.Ltmp54         #   Call between .Ltmp54 and .Ltmp55
	.long	.Ltmp56-.Lfunc_begin7   #     jumps to .Ltmp56
	.byte	0                       #   On action: cleanup
	.long	.Ltmp57-.Lfunc_begin7   # >> Call Site 5 <<
	.long	.Ltmp58-.Ltmp57         #   Call between .Ltmp57 and .Ltmp58
	.long	.Ltmp59-.Lfunc_begin7   #     jumps to .Ltmp59
	.byte	0                       #   On action: cleanup
	.long	.Ltmp60-.Lfunc_begin7   # >> Call Site 6 <<
	.long	.Ltmp61-.Ltmp60         #   Call between .Ltmp60 and .Ltmp61
	.long	.Ltmp62-.Lfunc_begin7   #     jumps to .Ltmp62
	.byte	0                       #   On action: cleanup
	.long	.Ltmp61-.Lfunc_begin7   # >> Call Site 7 <<
	.long	.Ltmp63-.Ltmp61         #   Call between .Ltmp61 and .Ltmp63
	.long	0                       #     has no landing pad
	.byte	0                       #   On action: cleanup
	.long	.Ltmp63-.Lfunc_begin7   # >> Call Site 8 <<
	.long	.Ltmp64-.Ltmp63         #   Call between .Ltmp63 and .Ltmp64
	.long	.Ltmp65-.Lfunc_begin7   #     jumps to .Ltmp65
	.byte	0                       #   On action: cleanup
	.long	.Ltmp64-.Lfunc_begin7   # >> Call Site 9 <<
	.long	.Ltmp66-.Ltmp64         #   Call between .Ltmp64 and .Ltmp66
	.long	0                       #     has no landing pad
	.byte	0                       #   On action: cleanup
	.long	.Ltmp66-.Lfunc_begin7   # >> Call Site 10 <<
	.long	.Ltmp67-.Ltmp66         #   Call between .Ltmp66 and .Ltmp67
	.long	.Ltmp68-.Lfunc_begin7   #     jumps to .Ltmp68
	.byte	0                       #   On action: cleanup
	.long	.Ltmp67-.Lfunc_begin7   # >> Call Site 11 <<
	.long	.Lfunc_end7-.Ltmp67     #   Call between .Ltmp67 and .Lfunc_end7
	.long	0                       #     has no landing pad
	.byte	0                       #   On action: cleanup
	.p2align	2
                                        # -- End function
	.section	.text._ZStorSt13_Ios_OpenmodeS_,"axG",@progbits,_ZStorSt13_Ios_OpenmodeS_,comdat
	.weak	_ZStorSt13_Ios_OpenmodeS_ # -- Begin function _ZStorSt13_Ios_OpenmodeS_
	.p2align	4, 0x90
	.type	_ZStorSt13_Ios_OpenmodeS_,@function
_ZStorSt13_Ios_OpenmodeS_:              # @_ZStorSt13_Ios_OpenmodeS_
.Lfunc_begin8:
	.loc	2 130 0 is_stmt 1       # /usr/lib/gcc/x86_64-linux-gnu/9/../../../../include/c++/9/bits/ios_base.h:130:0
	.cfi_startproc
# %bb.0:
	#DEBUG_VALUE: operator|:__a <- %edi
	#DEBUG_VALUE: operator|:__a <- %edi
	#DEBUG_VALUE: operator|:__b <- %esi
	#DEBUG_VALUE: operator|:__b <- %esi
	.loc	2 130 48 prologue_end   # /usr/lib/gcc/x86_64-linux-gnu/9/../../../../include/c++/9/bits/ios_base.h:130:48
	orl	%esi, %edi
.Ltmp96:
	.loc	2 130 5 is_stmt 0       # /usr/lib/gcc/x86_64-linux-gnu/9/../../../../include/c++/9/bits/ios_base.h:130:5
	movl	%edi, %eax
	retq
.Ltmp97:
.Lfunc_end8:
	.size	_ZStorSt13_Ios_OpenmodeS_, .Lfunc_end8-_ZStorSt13_Ios_OpenmodeS_
	.cfi_endproc
                                        # -- End function
	.text
	.globl	_ZN12ILLIXR_AUDIO7ABAudio17generateWAVHeaderEv # -- Begin function _ZN12ILLIXR_AUDIO7ABAudio17generateWAVHeaderEv
	.p2align	4, 0x90
	.type	_ZN12ILLIXR_AUDIO7ABAudio17generateWAVHeaderEv,@function
_ZN12ILLIXR_AUDIO7ABAudio17generateWAVHeaderEv: # @_ZN12ILLIXR_AUDIO7ABAudio17generateWAVHeaderEv
.Lfunc_begin9:
	.loc	53 162 0 is_stmt 1      # src/audio.cpp:162:0
	.cfi_startproc
# %bb.0:
	pushq	%r14
	.cfi_def_cfa_offset 16
	pushq	%rbx
	.cfi_def_cfa_offset 24
	subq	$56, %rsp
	.cfi_def_cfa_offset 80
	.cfi_offset %rbx, -24
	.cfi_offset %r14, -16
	#DEBUG_VALUE: generateWAVHeader:this <- %rdi
	movq	%rdi, %rbx
.Ltmp98:
	#DEBUG_VALUE: generateWAVHeader:this <- %rbx
	leaq	8(%rsp), %r14
.Ltmp99:
	#DEBUG_VALUE: generateWAVHeader:wavh <- [DW_OP_plus_uconst 8] [%rsp+0]
	.loc	53 164 12 prologue_end  # src/audio.cpp:164:12
	movq	%r14, %rdi
	callq	_ZN12ILLIXR_AUDIO11WAVHeader_tC2Ev
	.loc	53 165 2                # src/audio.cpp:165:2
	movq	16(%rbx), %rdi
	.loc	53 165 14 is_stmt 0     # src/audio.cpp:165:14
	movl	$44, %edx
	movq	%r14, %rsi
	callq	_ZNSo5writeEPKcl
	.loc	53 166 1 is_stmt 1      # src/audio.cpp:166:1
	addq	$56, %rsp
.Ltmp100:
	popq	%rbx
.Ltmp101:
	popq	%r14
	retq
.Ltmp102:
.Lfunc_end9:
	.size	_ZN12ILLIXR_AUDIO7ABAudio17generateWAVHeaderEv, .Lfunc_end9-_ZN12ILLIXR_AUDIO7ABAudio17generateWAVHeaderEv
	.cfi_endproc
                                        # -- End function
	.section	.text._ZNSt6vectorIPN12ILLIXR_AUDIO5SoundESaIS2_EEC2Ev,"axG",@progbits,_ZNSt6vectorIPN12ILLIXR_AUDIO5SoundESaIS2_EEC2Ev,comdat
	.weak	_ZNSt6vectorIPN12ILLIXR_AUDIO5SoundESaIS2_EEC2Ev # -- Begin function _ZNSt6vectorIPN12ILLIXR_AUDIO5SoundESaIS2_EEC2Ev
	.p2align	4, 0x90
	.type	_ZNSt6vectorIPN12ILLIXR_AUDIO5SoundESaIS2_EEC2Ev,@function
_ZNSt6vectorIPN12ILLIXR_AUDIO5SoundESaIS2_EEC2Ev: # @_ZNSt6vectorIPN12ILLIXR_AUDIO5SoundESaIS2_EEC2Ev
.Lfunc_begin10:
	.loc	49 484 0                # /usr/lib/gcc/x86_64-linux-gnu/9/../../../../include/c++/9/bits/stl_vector.h:484:0
	.cfi_startproc
# %bb.0:
	#DEBUG_VALUE: vector:this <- %rdi
	#DEBUG_VALUE: vector:this <- %rdi
	#DEBUG_VALUE: vector:this <- %rdi
	.loc	49 484 7 prologue_end   # /usr/lib/gcc/x86_64-linux-gnu/9/../../../../include/c++/9/bits/stl_vector.h:484:7
	jmp	_ZNSt12_Vector_baseIPN12ILLIXR_AUDIO5SoundESaIS2_EEC2Ev # TAILCALL
.Ltmp103:
.Lfunc_end10:
	.size	_ZNSt6vectorIPN12ILLIXR_AUDIO5SoundESaIS2_EEC2Ev, .Lfunc_end10-_ZNSt6vectorIPN12ILLIXR_AUDIO5SoundESaIS2_EEC2Ev
	.cfi_endproc
                                        # -- End function
	.section	.text._ZN9__gnu_cxx13new_allocatorIcED2Ev,"axG",@progbits,_ZN9__gnu_cxx13new_allocatorIcED2Ev,comdat
	.weak	_ZN9__gnu_cxx13new_allocatorIcED2Ev # -- Begin function _ZN9__gnu_cxx13new_allocatorIcED2Ev
	.p2align	4, 0x90
	.type	_ZN9__gnu_cxx13new_allocatorIcED2Ev,@function
_ZN9__gnu_cxx13new_allocatorIcED2Ev:    # @_ZN9__gnu_cxx13new_allocatorIcED2Ev
.Lfunc_begin11:
	.loc	13 89 0                 # /usr/lib/gcc/x86_64-linux-gnu/9/../../../../include/c++/9/ext/new_allocator.h:89:0
	.cfi_startproc
# %bb.0:
	#DEBUG_VALUE: ~new_allocator:this <- %rdi
	.loc	13 89 48 prologue_end   # /usr/lib/gcc/x86_64-linux-gnu/9/../../../../include/c++/9/ext/new_allocator.h:89:48
	retq
.Ltmp104:
.Lfunc_end11:
	.size	_ZN9__gnu_cxx13new_allocatorIcED2Ev, .Lfunc_end11-_ZN9__gnu_cxx13new_allocatorIcED2Ev
	.cfi_endproc
                                        # -- End function
	.section	.text._ZNSt16allocator_traitsISaIcEE10deallocateERS0_Pcm,"axG",@progbits,_ZNSt16allocator_traitsISaIcEE10deallocateERS0_Pcm,comdat
	.weak	_ZNSt16allocator_traitsISaIcEE10deallocateERS0_Pcm # -- Begin function _ZNSt16allocator_traitsISaIcEE10deallocateERS0_Pcm
	.p2align	4, 0x90
	.type	_ZNSt16allocator_traitsISaIcEE10deallocateERS0_Pcm,@function
_ZNSt16allocator_traitsISaIcEE10deallocateERS0_Pcm: # @_ZNSt16allocator_traitsISaIcEE10deallocateERS0_Pcm
.Lfunc_begin12:
	.loc	41 470 0                # /usr/lib/gcc/x86_64-linux-gnu/9/../../../../include/c++/9/bits/alloc_traits.h:470:0
	.cfi_startproc
# %bb.0:
	#DEBUG_VALUE: deallocate:__a <- %rdi
	#DEBUG_VALUE: deallocate:__a <- %rdi
	#DEBUG_VALUE: deallocate:__a <- %rdi
	#DEBUG_VALUE: deallocate:__p <- %rsi
	#DEBUG_VALUE: deallocate:__p <- %rsi
	#DEBUG_VALUE: deallocate:__p <- %rsi
	#DEBUG_VALUE: deallocate:__n <- %rdx
	#DEBUG_VALUE: deallocate:__n <- %rdx
	#DEBUG_VALUE: deallocate:__n <- %rdx
	.loc	41 470 13 prologue_end  # /usr/lib/gcc/x86_64-linux-gnu/9/../../../../include/c++/9/bits/alloc_traits.h:470:13
	jmp	_ZN9__gnu_cxx13new_allocatorIcE10deallocateEPcm # TAILCALL
.Ltmp105:
.Lfunc_end12:
	.size	_ZNSt16allocator_traitsISaIcEE10deallocateERS0_Pcm, .Lfunc_end12-_ZNSt16allocator_traitsISaIcEE10deallocateERS0_Pcm
	.cfi_endproc
                                        # -- End function
	.section	.text._ZN9__gnu_cxx13new_allocatorIcE10deallocateEPcm,"axG",@progbits,_ZN9__gnu_cxx13new_allocatorIcE10deallocateEPcm,comdat
	.weak	_ZN9__gnu_cxx13new_allocatorIcE10deallocateEPcm # -- Begin function _ZN9__gnu_cxx13new_allocatorIcE10deallocateEPcm
	.p2align	4, 0x90
	.type	_ZN9__gnu_cxx13new_allocatorIcE10deallocateEPcm,@function
_ZN9__gnu_cxx13new_allocatorIcE10deallocateEPcm: # @_ZN9__gnu_cxx13new_allocatorIcE10deallocateEPcm
.Lfunc_begin13:
	.loc	13 120 0                # /usr/lib/gcc/x86_64-linux-gnu/9/../../../../include/c++/9/ext/new_allocator.h:120:0
	.cfi_startproc
# %bb.0:
	#DEBUG_VALUE: deallocate:this <- %rdi
	#DEBUG_VALUE: deallocate:__p <- %rsi
	#DEBUG_VALUE: deallocate:__p <- %rsi
	#DEBUG_VALUE: deallocate: <- %rdx
	.loc	13 128 2 prologue_end   # /usr/lib/gcc/x86_64-linux-gnu/9/../../../../include/c++/9/ext/new_allocator.h:128:2
	movq	%rsi, %rdi
.Ltmp106:
	#DEBUG_VALUE: deallocate:__p <- %rdi
	jmp	_ZdlPv                  # TAILCALL
.Ltmp107:
.Lfunc_end13:
	.size	_ZN9__gnu_cxx13new_allocatorIcE10deallocateEPcm, .Lfunc_end13-_ZN9__gnu_cxx13new_allocatorIcE10deallocateEPcm
	.cfi_endproc
                                        # -- End function
	.section	.text._ZNSt14pointer_traitsIPKcE10pointer_toERS0_,"axG",@progbits,_ZNSt14pointer_traitsIPKcE10pointer_toERS0_,comdat
	.weak	_ZNSt14pointer_traitsIPKcE10pointer_toERS0_ # -- Begin function _ZNSt14pointer_traitsIPKcE10pointer_toERS0_
	.p2align	4, 0x90
	.type	_ZNSt14pointer_traitsIPKcE10pointer_toERS0_,@function
_ZNSt14pointer_traitsIPKcE10pointer_toERS0_: # @_ZNSt14pointer_traitsIPKcE10pointer_toERS0_
.Lfunc_begin14:
	.file	65 "/usr/lib/gcc/x86_64-linux-gnu/9/../../../../include/c++/9/bits/ptr_traits.h"
	.loc	65 147 0                # /usr/lib/gcc/x86_64-linux-gnu/9/../../../../include/c++/9/bits/ptr_traits.h:147:0
	.cfi_startproc
# %bb.0:
	#DEBUG_VALUE: pointer_to:__r <- %rdi
	#DEBUG_VALUE: pointer_to:__r <- %rdi
	#DEBUG_VALUE: pointer_to:__r <- %rdi
	.loc	65 147 16 prologue_end  # /usr/lib/gcc/x86_64-linux-gnu/9/../../../../include/c++/9/bits/ptr_traits.h:147:16
	jmp	_ZSt9addressofIKcEPT_RS1_ # TAILCALL
.Ltmp108:
.Lfunc_end14:
	.size	_ZNSt14pointer_traitsIPKcE10pointer_toERS0_, .Lfunc_end14-_ZNSt14pointer_traitsIPKcE10pointer_toERS0_
	.cfi_endproc
                                        # -- End function
	.section	.text._ZSt9addressofIKcEPT_RS1_,"axG",@progbits,_ZSt9addressofIKcEPT_RS1_,comdat
	.weak	_ZSt9addressofIKcEPT_RS1_ # -- Begin function _ZSt9addressofIKcEPT_RS1_
	.p2align	4, 0x90
	.type	_ZSt9addressofIKcEPT_RS1_,@function
_ZSt9addressofIKcEPT_RS1_:              # @_ZSt9addressofIKcEPT_RS1_
.Lfunc_begin15:
	.file	66 "/usr/lib/gcc/x86_64-linux-gnu/9/../../../../include/c++/9/bits/move.h"
	.loc	66 139 0                # /usr/lib/gcc/x86_64-linux-gnu/9/../../../../include/c++/9/bits/move.h:139:0
	.cfi_startproc
# %bb.0:
	#DEBUG_VALUE: addressof<const char>:__r <- %rdi
	#DEBUG_VALUE: addressof<const char>:__r <- %rdi
	#DEBUG_VALUE: addressof<const char>:__r <- %rdi
	.loc	66 139 14 prologue_end  # /usr/lib/gcc/x86_64-linux-gnu/9/../../../../include/c++/9/bits/move.h:139:14
	jmp	_ZSt11__addressofIKcEPT_RS1_ # TAILCALL
.Ltmp109:
.Lfunc_end15:
	.size	_ZSt9addressofIKcEPT_RS1_, .Lfunc_end15-_ZSt9addressofIKcEPT_RS1_
	.cfi_endproc
                                        # -- End function
	.section	.text._ZSt11__addressofIKcEPT_RS1_,"axG",@progbits,_ZSt11__addressofIKcEPT_RS1_,comdat
	.weak	_ZSt11__addressofIKcEPT_RS1_ # -- Begin function _ZSt11__addressofIKcEPT_RS1_
	.p2align	4, 0x90
	.type	_ZSt11__addressofIKcEPT_RS1_,@function
_ZSt11__addressofIKcEPT_RS1_:           # @_ZSt11__addressofIKcEPT_RS1_
.Lfunc_begin16:
	.loc	66 48 0                 # /usr/lib/gcc/x86_64-linux-gnu/9/../../../../include/c++/9/bits/move.h:48:0
	.cfi_startproc
# %bb.0:
	#DEBUG_VALUE: __addressof<const char>:__r <- %rdi
	#DEBUG_VALUE: __addressof<const char>:__r <- %rdi
	.loc	66 48 7 prologue_end    # /usr/lib/gcc/x86_64-linux-gnu/9/../../../../include/c++/9/bits/move.h:48:7
	movq	%rdi, %rax
.Ltmp110:
	#DEBUG_VALUE: __addressof<const char>:__r <- %rax
	retq
.Ltmp111:
.Lfunc_end16:
	.size	_ZSt11__addressofIKcEPT_RS1_, .Lfunc_end16-_ZSt11__addressofIKcEPT_RS1_
	.cfi_endproc
                                        # -- End function
	.section	.text._ZNSt11char_traitsIcE6lengthEPKc,"axG",@progbits,_ZNSt11char_traitsIcE6lengthEPKc,comdat
	.weak	_ZNSt11char_traitsIcE6lengthEPKc # -- Begin function _ZNSt11char_traitsIcE6lengthEPKc
	.p2align	4, 0x90
	.type	_ZNSt11char_traitsIcE6lengthEPKc,@function
_ZNSt11char_traitsIcE6lengthEPKc:       # @_ZNSt11char_traitsIcE6lengthEPKc
.Lfunc_begin17:
	.loc	55 330 0                # /usr/lib/gcc/x86_64-linux-gnu/9/../../../../include/c++/9/bits/char_traits.h:330:0
	.cfi_startproc
# %bb.0:
	#DEBUG_VALUE: length:__s <- %rdi
	#DEBUG_VALUE: length:__s <- %rdi
	#DEBUG_VALUE: length:__s <- %rdi
	.loc	55 335 9 prologue_end   # /usr/lib/gcc/x86_64-linux-gnu/9/../../../../include/c++/9/bits/char_traits.h:335:9
	jmp	strlen                  # TAILCALL
.Ltmp112:
.Lfunc_end17:
	.size	_ZNSt11char_traitsIcE6lengthEPKc, .Lfunc_end17-_ZNSt11char_traitsIcE6lengthEPKc
	.cfi_endproc
                                        # -- End function
	.section	.text._ZNSt7__cxx1112basic_stringIcSt11char_traitsIcESaIcEE12_M_constructIPKcEEvT_S8_,"axG",@progbits,_ZNSt7__cxx1112basic_stringIcSt11char_traitsIcESaIcEE12_M_constructIPKcEEvT_S8_,comdat
	.weak	_ZNSt7__cxx1112basic_stringIcSt11char_traitsIcESaIcEE12_M_constructIPKcEEvT_S8_ # -- Begin function _ZNSt7__cxx1112basic_stringIcSt11char_traitsIcESaIcEE12_M_constructIPKcEEvT_S8_
	.p2align	4, 0x90
	.type	_ZNSt7__cxx1112basic_stringIcSt11char_traitsIcESaIcEE12_M_constructIPKcEEvT_S8_,@function
_ZNSt7__cxx1112basic_stringIcSt11char_traitsIcESaIcEE12_M_constructIPKcEEvT_S8_: # @_ZNSt7__cxx1112basic_stringIcSt11char_traitsIcESaIcEE12_M_constructIPKcEEvT_S8_
.Lfunc_begin18:
	.loc	54 264 0                # /usr/lib/gcc/x86_64-linux-gnu/9/../../../../include/c++/9/bits/basic_string.h:264:0
	.cfi_startproc
# %bb.0:
	#DEBUG_VALUE: _M_construct<const char *>:this <- %rdi
	#DEBUG_VALUE: _M_construct<const char *>:this <- %rdi
	#DEBUG_VALUE: _M_construct<const char *>:this <- %rdi
	#DEBUG_VALUE: _M_construct<const char *>:__beg <- %rsi
	#DEBUG_VALUE: _M_construct<const char *>:__beg <- %rsi
	#DEBUG_VALUE: _M_construct<const char *>:__beg <- %rsi
	#DEBUG_VALUE: _M_construct<const char *>:__end <- %rdx
	#DEBUG_VALUE: _M_construct<const char *>:__end <- %rdx
	#DEBUG_VALUE: _M_construct<const char *>:__end <- %rdx
	.loc	54 266 4 prologue_end   # /usr/lib/gcc/x86_64-linux-gnu/9/../../../../include/c++/9/bits/basic_string.h:266:4
	jmp	_ZNSt7__cxx1112basic_stringIcSt11char_traitsIcESaIcEE16_M_construct_auxIPKcEEvT_S8_St12__false_type # TAILCALL
.Ltmp113:
.Lfunc_end18:
	.size	_ZNSt7__cxx1112basic_stringIcSt11char_traitsIcESaIcEE12_M_constructIPKcEEvT_S8_, .Lfunc_end18-_ZNSt7__cxx1112basic_stringIcSt11char_traitsIcESaIcEE12_M_constructIPKcEEvT_S8_
	.cfi_endproc
                                        # -- End function
	.section	.text._ZNSt7__cxx1112basic_stringIcSt11char_traitsIcESaIcEE16_M_construct_auxIPKcEEvT_S8_St12__false_type,"axG",@progbits,_ZNSt7__cxx1112basic_stringIcSt11char_traitsIcESaIcEE16_M_construct_auxIPKcEEvT_S8_St12__false_type,comdat
	.weak	_ZNSt7__cxx1112basic_stringIcSt11char_traitsIcESaIcEE16_M_construct_auxIPKcEEvT_S8_St12__false_type # -- Begin function _ZNSt7__cxx1112basic_stringIcSt11char_traitsIcESaIcEE16_M_construct_auxIPKcEEvT_S8_St12__false_type
	.p2align	4, 0x90
	.type	_ZNSt7__cxx1112basic_stringIcSt11char_traitsIcESaIcEE16_M_construct_auxIPKcEEvT_S8_St12__false_type,@function
_ZNSt7__cxx1112basic_stringIcSt11char_traitsIcESaIcEE16_M_construct_auxIPKcEEvT_S8_St12__false_type: # @_ZNSt7__cxx1112basic_stringIcSt11char_traitsIcESaIcEE16_M_construct_auxIPKcEEvT_S8_St12__false_type
.Lfunc_begin19:
	.loc	54 245 0                # /usr/lib/gcc/x86_64-linux-gnu/9/../../../../include/c++/9/bits/basic_string.h:245:0
	.cfi_startproc
# %bb.0:
	#DEBUG_VALUE: _M_construct_aux<const char *>:this <- %rdi
	#DEBUG_VALUE: _M_construct_aux<const char *>:this <- %rdi
	#DEBUG_VALUE: _M_construct_aux<const char *>:this <- %rdi
	#DEBUG_VALUE: _M_construct_aux<const char *>:__beg <- %rsi
	#DEBUG_VALUE: _M_construct_aux<const char *>:__beg <- %rsi
	#DEBUG_VALUE: _M_construct_aux<const char *>:__beg <- %rsi
	#DEBUG_VALUE: _M_construct_aux<const char *>:__end <- %rdx
	#DEBUG_VALUE: _M_construct_aux<const char *>:__end <- %rdx
	#DEBUG_VALUE: _M_construct_aux<const char *>:__end <- %rdx
	.loc	54 247 11 prologue_end  # /usr/lib/gcc/x86_64-linux-gnu/9/../../../../include/c++/9/bits/basic_string.h:247:11
	jmp	_ZNSt7__cxx1112basic_stringIcSt11char_traitsIcESaIcEE12_M_constructIPKcEEvT_S8_St20forward_iterator_tag # TAILCALL
.Ltmp114:
.Lfunc_end19:
	.size	_ZNSt7__cxx1112basic_stringIcSt11char_traitsIcESaIcEE16_M_construct_auxIPKcEEvT_S8_St12__false_type, .Lfunc_end19-_ZNSt7__cxx1112basic_stringIcSt11char_traitsIcESaIcEE16_M_construct_auxIPKcEEvT_S8_St12__false_type
	.cfi_endproc
	.file	67 "/usr/lib/gcc/x86_64-linux-gnu/9/../../../../include/c++/9/bits/cpp_type_traits.h"
                                        # -- End function
	.section	.text._ZNSt7__cxx1112basic_stringIcSt11char_traitsIcESaIcEE12_M_constructIPKcEEvT_S8_St20forward_iterator_tag,"axG",@progbits,_ZNSt7__cxx1112basic_stringIcSt11char_traitsIcESaIcEE12_M_constructIPKcEEvT_S8_St20forward_iterator_tag,comdat
	.weak	_ZNSt7__cxx1112basic_stringIcSt11char_traitsIcESaIcEE12_M_constructIPKcEEvT_S8_St20forward_iterator_tag # -- Begin function _ZNSt7__cxx1112basic_stringIcSt11char_traitsIcESaIcEE12_M_constructIPKcEEvT_S8_St20forward_iterator_tag
	.p2align	4, 0x90
	.type	_ZNSt7__cxx1112basic_stringIcSt11char_traitsIcESaIcEE12_M_constructIPKcEEvT_S8_St20forward_iterator_tag,@function
_ZNSt7__cxx1112basic_stringIcSt11char_traitsIcESaIcEE12_M_constructIPKcEEvT_S8_St20forward_iterator_tag: # @_ZNSt7__cxx1112basic_stringIcSt11char_traitsIcESaIcEE12_M_constructIPKcEEvT_S8_St20forward_iterator_tag
.Lfunc_begin20:
	.file	68 "/usr/lib/gcc/x86_64-linux-gnu/9/../../../../include/c++/9/bits/basic_string.tcc"
	.loc	68 209 0                # /usr/lib/gcc/x86_64-linux-gnu/9/../../../../include/c++/9/bits/basic_string.tcc:209:0
	.cfi_startproc
# %bb.0:
	pushq	%r15
	.cfi_def_cfa_offset 16
	pushq	%r14
	.cfi_def_cfa_offset 24
	pushq	%rbx
	.cfi_def_cfa_offset 32
	subq	$16, %rsp
	.cfi_def_cfa_offset 48
	.cfi_offset %rbx, -32
	.cfi_offset %r14, -24
	.cfi_offset %r15, -16
	#DEBUG_VALUE: _M_construct<const char *>:this <- %rdi
	#DEBUG_VALUE: _M_construct<const char *>:__beg <- %rsi
	#DEBUG_VALUE: _M_construct<const char *>:__end <- %rdx
	movq	%rdx, %r14
	movq	%rsi, %rbx
	movq	%rdi, %r15
.Ltmp115:
	#DEBUG_VALUE: _M_construct<const char *>:__end <- %r14
	#DEBUG_VALUE: _M_construct<const char *>:__beg <- %rbx
	#DEBUG_VALUE: _M_construct<const char *>:this <- %r15
	.loc	68 211 6 prologue_end   # /usr/lib/gcc/x86_64-linux-gnu/9/../../../../include/c++/9/bits/basic_string.tcc:211:6
	movq	%rbx, %rdi
	callq	_ZN9__gnu_cxx17__is_null_pointerIKcEEbPT_
	.loc	68 211 51 is_stmt 0     # /usr/lib/gcc/x86_64-linux-gnu/9/../../../../include/c++/9/bits/basic_string.tcc:211:51
	cmpq	%r14, %rbx
	.loc	68 211 42               # /usr/lib/gcc/x86_64-linux-gnu/9/../../../../include/c++/9/bits/basic_string.tcc:211:42
	je	.LBB20_2
.Ltmp116:
# %bb.1:
	#DEBUG_VALUE: _M_construct<const char *>:this <- %r15
	#DEBUG_VALUE: _M_construct<const char *>:__beg <- %rbx
	#DEBUG_VALUE: _M_construct<const char *>:__end <- %r14
	testb	%al, %al
	jne	.LBB20_5
.Ltmp117:
.LBB20_2:
	#DEBUG_VALUE: _M_construct<const char *>:this <- %r15
	#DEBUG_VALUE: _M_construct<const char *>:__beg <- %rbx
	#DEBUG_VALUE: _M_construct<const char *>:__end <- %r14
	.loc	68 215 44 is_stmt 1     # /usr/lib/gcc/x86_64-linux-gnu/9/../../../../include/c++/9/bits/basic_string.tcc:215:44
	movq	%rbx, %rdi
	movq	%r14, %rsi
	callq	_ZSt8distanceIPKcENSt15iterator_traitsIT_E15difference_typeES3_S3_
.Ltmp118:
	#DEBUG_VALUE: _M_construct<const char *>:__dnew <- %rax
	.loc	68 215 12 is_stmt 0     # /usr/lib/gcc/x86_64-linux-gnu/9/../../../../include/c++/9/bits/basic_string.tcc:215:12
	movq	%rax, 8(%rsp)
.Ltmp119:
	.loc	68 217 13 is_stmt 1     # /usr/lib/gcc/x86_64-linux-gnu/9/../../../../include/c++/9/bits/basic_string.tcc:217:13
	cmpq	$16, %rax
.Ltmp120:
	.loc	68 217 6 is_stmt 0      # /usr/lib/gcc/x86_64-linux-gnu/9/../../../../include/c++/9/bits/basic_string.tcc:217:6
	jb	.LBB20_4
.Ltmp121:
# %bb.3:
	#DEBUG_VALUE: _M_construct<const char *>:__dnew <- %rax
	#DEBUG_VALUE: _M_construct<const char *>:this <- %r15
	#DEBUG_VALUE: _M_construct<const char *>:__beg <- %rbx
	#DEBUG_VALUE: _M_construct<const char *>:__end <- %r14
	.loc	68 0 6                  # /usr/lib/gcc/x86_64-linux-gnu/9/../../../../include/c++/9/bits/basic_string.tcc:0:6
	leaq	8(%rsp), %rsi
.Ltmp122:
	#DEBUG_VALUE: _M_construct<const char *>:__dnew <- [DW_OP_plus_uconst 8] [%rsp+0]
	.loc	68 219 14 is_stmt 1     # /usr/lib/gcc/x86_64-linux-gnu/9/../../../../include/c++/9/bits/basic_string.tcc:219:14
	xorl	%edx, %edx
	movq	%r15, %rdi
	callq	_ZNSt7__cxx1112basic_stringIcSt11char_traitsIcESaIcEE9_M_createERmm
	.loc	68 219 6 is_stmt 0      # /usr/lib/gcc/x86_64-linux-gnu/9/../../../../include/c++/9/bits/basic_string.tcc:219:6
	movq	%r15, %rdi
	movq	%rax, %rsi
	callq	_ZNSt7__cxx1112basic_stringIcSt11char_traitsIcESaIcEE7_M_dataEPc
	.loc	68 220 18 is_stmt 1     # /usr/lib/gcc/x86_64-linux-gnu/9/../../../../include/c++/9/bits/basic_string.tcc:220:18
	movq	8(%rsp), %rsi
.Ltmp123:
	#DEBUG_VALUE: _M_construct<const char *>:__dnew <- %rsi
	.loc	68 220 6 is_stmt 0      # /usr/lib/gcc/x86_64-linux-gnu/9/../../../../include/c++/9/bits/basic_string.tcc:220:6
	movq	%r15, %rdi
	callq	_ZNSt7__cxx1112basic_stringIcSt11char_traitsIcESaIcEE11_M_capacityEm
.Ltmp124:
.LBB20_4:
	#DEBUG_VALUE: _M_construct<const char *>:this <- %r15
	#DEBUG_VALUE: _M_construct<const char *>:__beg <- %rbx
	#DEBUG_VALUE: _M_construct<const char *>:__end <- %r14
	.loc	68 225 26 is_stmt 1     # /usr/lib/gcc/x86_64-linux-gnu/9/../../../../include/c++/9/bits/basic_string.tcc:225:26
	movq	%r15, %rdi
	callq	_ZNKSt7__cxx1112basic_stringIcSt11char_traitsIcESaIcEE7_M_dataEv
	.loc	68 225 6 is_stmt 0      # /usr/lib/gcc/x86_64-linux-gnu/9/../../../../include/c++/9/bits/basic_string.tcc:225:6
	movq	%rax, %rdi
	movq	%rbx, %rsi
	movq	%r14, %rdx
	callq	_ZNSt7__cxx1112basic_stringIcSt11char_traitsIcESaIcEE13_S_copy_charsEPcPKcS7_
.Ltmp125:
	.loc	68 232 16 is_stmt 1     # /usr/lib/gcc/x86_64-linux-gnu/9/../../../../include/c++/9/bits/basic_string.tcc:232:16
	movq	8(%rsp), %rsi
.Ltmp126:
	#DEBUG_VALUE: _M_construct<const char *>:__dnew <- %rsi
	.loc	68 232 2 is_stmt 0      # /usr/lib/gcc/x86_64-linux-gnu/9/../../../../include/c++/9/bits/basic_string.tcc:232:2
	movq	%r15, %rdi
	callq	_ZNSt7__cxx1112basic_stringIcSt11char_traitsIcESaIcEE13_M_set_lengthEm
.Ltmp127:
	.loc	68 233 7 is_stmt 1      # /usr/lib/gcc/x86_64-linux-gnu/9/../../../../include/c++/9/bits/basic_string.tcc:233:7
	addq	$16, %rsp
	popq	%rbx
.Ltmp128:
	popq	%r14
.Ltmp129:
	popq	%r15
.Ltmp130:
	retq
.LBB20_5:
.Ltmp131:
	#DEBUG_VALUE: _M_construct<const char *>:this <- %r15
	#DEBUG_VALUE: _M_construct<const char *>:__beg <- %rbx
	#DEBUG_VALUE: _M_construct<const char *>:__end <- %r14
	.loc	68 212 4                # /usr/lib/gcc/x86_64-linux-gnu/9/../../../../include/c++/9/bits/basic_string.tcc:212:4
	movl	$.L.str.4, %edi
	callq	_ZSt19__throw_logic_errorPKc
.Ltmp132:
.Lfunc_end20:
	.size	_ZNSt7__cxx1112basic_stringIcSt11char_traitsIcESaIcEE12_M_constructIPKcEEvT_S8_St20forward_iterator_tag, .Lfunc_end20-_ZNSt7__cxx1112basic_stringIcSt11char_traitsIcESaIcEE12_M_constructIPKcEEvT_S8_St20forward_iterator_tag
	.cfi_endproc
                                        # -- End function
	.section	.text._ZN9__gnu_cxx17__is_null_pointerIKcEEbPT_,"axG",@progbits,_ZN9__gnu_cxx17__is_null_pointerIKcEEbPT_,comdat
	.weak	_ZN9__gnu_cxx17__is_null_pointerIKcEEbPT_ # -- Begin function _ZN9__gnu_cxx17__is_null_pointerIKcEEbPT_
	.p2align	4, 0x90
	.type	_ZN9__gnu_cxx17__is_null_pointerIKcEEbPT_,@function
_ZN9__gnu_cxx17__is_null_pointerIKcEEbPT_: # @_ZN9__gnu_cxx17__is_null_pointerIKcEEbPT_
.Lfunc_begin21:
	.file	69 "/usr/lib/gcc/x86_64-linux-gnu/9/../../../../include/c++/9/ext/type_traits.h"
	.loc	69 153 0                # /usr/lib/gcc/x86_64-linux-gnu/9/../../../../include/c++/9/ext/type_traits.h:153:0
	.cfi_startproc
# %bb.0:
	#DEBUG_VALUE: __is_null_pointer<const char>:__ptr <- %rdi
	#DEBUG_VALUE: __is_null_pointer<const char>:__ptr <- %rdi
	.loc	69 153 20 prologue_end  # /usr/lib/gcc/x86_64-linux-gnu/9/../../../../include/c++/9/ext/type_traits.h:153:20
	testq	%rdi, %rdi
	sete	%al
	.loc	69 153 7 is_stmt 0      # /usr/lib/gcc/x86_64-linux-gnu/9/../../../../include/c++/9/ext/type_traits.h:153:7
	retq
.Ltmp133:
.Lfunc_end21:
	.size	_ZN9__gnu_cxx17__is_null_pointerIKcEEbPT_, .Lfunc_end21-_ZN9__gnu_cxx17__is_null_pointerIKcEEbPT_
	.cfi_endproc
                                        # -- End function
	.section	.text._ZSt8distanceIPKcENSt15iterator_traitsIT_E15difference_typeES3_S3_,"axG",@progbits,_ZSt8distanceIPKcENSt15iterator_traitsIT_E15difference_typeES3_S3_,comdat
	.weak	_ZSt8distanceIPKcENSt15iterator_traitsIT_E15difference_typeES3_S3_ # -- Begin function _ZSt8distanceIPKcENSt15iterator_traitsIT_E15difference_typeES3_S3_
	.p2align	4, 0x90
	.type	_ZSt8distanceIPKcENSt15iterator_traitsIT_E15difference_typeES3_S3_,@function
_ZSt8distanceIPKcENSt15iterator_traitsIT_E15difference_typeES3_S3_: # @_ZSt8distanceIPKcENSt15iterator_traitsIT_E15difference_typeES3_S3_
.Lfunc_begin22:
	.file	70 "/usr/lib/gcc/x86_64-linux-gnu/9/../../../../include/c++/9/bits/stl_iterator_base_funcs.h"
	.loc	70 139 0 is_stmt 1      # /usr/lib/gcc/x86_64-linux-gnu/9/../../../../include/c++/9/bits/stl_iterator_base_funcs.h:139:0
	.cfi_startproc
# %bb.0:
	pushq	%r14
	.cfi_def_cfa_offset 16
	pushq	%rbx
	.cfi_def_cfa_offset 24
	pushq	%rax
	.cfi_def_cfa_offset 32
	.cfi_offset %rbx, -24
	.cfi_offset %r14, -16
	#DEBUG_VALUE: distance<const char *>:__first <- %rdi
	#DEBUG_VALUE: distance<const char *>:__last <- %rsi
	movq	%rsi, %r14
	movq	%rdi, %rbx
	movq	%rbx, (%rsp)
.Ltmp134:
	#DEBUG_VALUE: distance<const char *>:__last <- %r14
	#DEBUG_VALUE: distance<const char *>:__first <- %rbx
	movq	%rsp, %rdi
.Ltmp135:
	#DEBUG_VALUE: distance<const char *>:__first <- [%rsp+0]
	.loc	70 142 9 prologue_end   # /usr/lib/gcc/x86_64-linux-gnu/9/../../../../include/c++/9/bits/stl_iterator_base_funcs.h:142:9
	callq	_ZSt19__iterator_categoryIPKcENSt15iterator_traitsIT_E17iterator_categoryERKS3_
	.loc	70 141 14               # /usr/lib/gcc/x86_64-linux-gnu/9/../../../../include/c++/9/bits/stl_iterator_base_funcs.h:141:14
	movq	%rbx, %rdi
	movq	%r14, %rsi
.Ltmp136:
	#DEBUG_VALUE: distance<const char *>:__last <- %rsi
	callq	_ZSt10__distanceIPKcENSt15iterator_traitsIT_E15difference_typeES3_S3_St26random_access_iterator_tag
.Ltmp137:
	.loc	70 141 7 is_stmt 0      # /usr/lib/gcc/x86_64-linux-gnu/9/../../../../include/c++/9/bits/stl_iterator_base_funcs.h:141:7
	addq	$8, %rsp
.Ltmp138:
	popq	%rbx
	popq	%r14
	retq
.Ltmp139:
.Lfunc_end22:
	.size	_ZSt8distanceIPKcENSt15iterator_traitsIT_E15difference_typeES3_S3_, .Lfunc_end22-_ZSt8distanceIPKcENSt15iterator_traitsIT_E15difference_typeES3_S3_
	.cfi_endproc
                                        # -- End function
	.section	.text._ZNSt11char_traitsIcE6assignERcRKc,"axG",@progbits,_ZNSt11char_traitsIcE6assignERcRKc,comdat
	.weak	_ZNSt11char_traitsIcE6assignERcRKc # -- Begin function _ZNSt11char_traitsIcE6assignERcRKc
	.p2align	4, 0x90
	.type	_ZNSt11char_traitsIcE6assignERcRKc,@function
_ZNSt11char_traitsIcE6assignERcRKc:     # @_ZNSt11char_traitsIcE6assignERcRKc
.Lfunc_begin23:
	.loc	55 300 0 is_stmt 1      # /usr/lib/gcc/x86_64-linux-gnu/9/../../../../include/c++/9/bits/char_traits.h:300:0
	.cfi_startproc
# %bb.0:
	#DEBUG_VALUE: assign:__c1 <- %rdi
	#DEBUG_VALUE: assign:__c1 <- %rdi
	#DEBUG_VALUE: assign:__c2 <- %rsi
	#DEBUG_VALUE: assign:__c2 <- %rsi
	.loc	55 300 16 prologue_end  # /usr/lib/gcc/x86_64-linux-gnu/9/../../../../include/c++/9/bits/char_traits.h:300:16
	movb	(%rsi), %al
	.loc	55 300 14 is_stmt 0     # /usr/lib/gcc/x86_64-linux-gnu/9/../../../../include/c++/9/bits/char_traits.h:300:14
	movb	%al, (%rdi)
	.loc	55 300 22               # /usr/lib/gcc/x86_64-linux-gnu/9/../../../../include/c++/9/bits/char_traits.h:300:22
	retq
.Ltmp140:
.Lfunc_end23:
	.size	_ZNSt11char_traitsIcE6assignERcRKc, .Lfunc_end23-_ZNSt11char_traitsIcE6assignERcRKc
	.cfi_endproc
                                        # -- End function
	.section	.text._ZNSt11char_traitsIcE4copyEPcPKcm,"axG",@progbits,_ZNSt11char_traitsIcE4copyEPcPKcm,comdat
	.weak	_ZNSt11char_traitsIcE4copyEPcPKcm # -- Begin function _ZNSt11char_traitsIcE4copyEPcPKcm
	.p2align	4, 0x90
	.type	_ZNSt11char_traitsIcE4copyEPcPKcm,@function
_ZNSt11char_traitsIcE4copyEPcPKcm:      # @_ZNSt11char_traitsIcE4copyEPcPKcm
.Lfunc_begin24:
	.loc	55 362 0 is_stmt 1      # /usr/lib/gcc/x86_64-linux-gnu/9/../../../../include/c++/9/bits/char_traits.h:362:0
	.cfi_startproc
# %bb.0:
	pushq	%rbx
	.cfi_def_cfa_offset 16
	.cfi_offset %rbx, -16
	#DEBUG_VALUE: copy:__s1 <- %rdi
	#DEBUG_VALUE: copy:__s2 <- %rsi
	#DEBUG_VALUE: copy:__n <- %rdx
	movq	%rdi, %rbx
	#DEBUG_VALUE: copy:__n <- %rdx
	#DEBUG_VALUE: copy:__s2 <- %rsi
.Ltmp141:
	#DEBUG_VALUE: copy:__s1 <- %rbx
	.loc	55 363 10 prologue_end  # /usr/lib/gcc/x86_64-linux-gnu/9/../../../../include/c++/9/bits/char_traits.h:363:10
	testq	%rdx, %rdx
.Ltmp142:
	.loc	55 363 6 is_stmt 0      # /usr/lib/gcc/x86_64-linux-gnu/9/../../../../include/c++/9/bits/char_traits.h:363:6
	je	.LBB24_2
.Ltmp143:
# %bb.1:
	#DEBUG_VALUE: copy:__s1 <- %rbx
	#DEBUG_VALUE: copy:__n <- %rdx
	#DEBUG_VALUE: copy:__s2 <- %rsi
	.loc	55 365 33 is_stmt 1     # /usr/lib/gcc/x86_64-linux-gnu/9/../../../../include/c++/9/bits/char_traits.h:365:33
	movq	%rbx, %rdi
	callq	memcpy
.Ltmp144:
.LBB24_2:
	#DEBUG_VALUE: copy:__s1 <- %rbx
	.loc	55 366 7                # /usr/lib/gcc/x86_64-linux-gnu/9/../../../../include/c++/9/bits/char_traits.h:366:7
	movq	%rbx, %rax
	popq	%rbx
.Ltmp145:
	retq
.Ltmp146:
.Lfunc_end24:
	.size	_ZNSt11char_traitsIcE4copyEPcPKcm, .Lfunc_end24-_ZNSt11char_traitsIcE4copyEPcPKcm
	.cfi_endproc
                                        # -- End function
	.section	.text._ZSt19__iterator_categoryIPKcENSt15iterator_traitsIT_E17iterator_categoryERKS3_,"axG",@progbits,_ZSt19__iterator_categoryIPKcENSt15iterator_traitsIT_E17iterator_categoryERKS3_,comdat
	.weak	_ZSt19__iterator_categoryIPKcENSt15iterator_traitsIT_E17iterator_categoryERKS3_ # -- Begin function _ZSt19__iterator_categoryIPKcENSt15iterator_traitsIT_E17iterator_categoryERKS3_
	.p2align	4, 0x90
	.type	_ZSt19__iterator_categoryIPKcENSt15iterator_traitsIT_E17iterator_categoryERKS3_,@function
_ZSt19__iterator_categoryIPKcENSt15iterator_traitsIT_E17iterator_categoryERKS3_: # @_ZSt19__iterator_categoryIPKcENSt15iterator_traitsIT_E17iterator_categoryERKS3_
.Lfunc_begin25:
	.loc	52 206 0                # /usr/lib/gcc/x86_64-linux-gnu/9/../../../../include/c++/9/bits/stl_iterator_base_types.h:206:0
	.cfi_startproc
# %bb.0:
	#DEBUG_VALUE: __iterator_category<const char *>: <- %rdi
	.loc	52 206 7 prologue_end   # /usr/lib/gcc/x86_64-linux-gnu/9/../../../../include/c++/9/bits/stl_iterator_base_types.h:206:7
	retq
.Ltmp147:
.Lfunc_end25:
	.size	_ZSt19__iterator_categoryIPKcENSt15iterator_traitsIT_E17iterator_categoryERKS3_, .Lfunc_end25-_ZSt19__iterator_categoryIPKcENSt15iterator_traitsIT_E17iterator_categoryERKS3_
	.cfi_endproc
                                        # -- End function
	.section	.text._ZSt10__distanceIPKcENSt15iterator_traitsIT_E15difference_typeES3_S3_St26random_access_iterator_tag,"axG",@progbits,_ZSt10__distanceIPKcENSt15iterator_traitsIT_E15difference_typeES3_S3_St26random_access_iterator_tag,comdat
	.weak	_ZSt10__distanceIPKcENSt15iterator_traitsIT_E15difference_typeES3_S3_St26random_access_iterator_tag # -- Begin function _ZSt10__distanceIPKcENSt15iterator_traitsIT_E15difference_typeES3_S3_St26random_access_iterator_tag
	.p2align	4, 0x90
	.type	_ZSt10__distanceIPKcENSt15iterator_traitsIT_E15difference_typeES3_S3_St26random_access_iterator_tag,@function
_ZSt10__distanceIPKcENSt15iterator_traitsIT_E15difference_typeES3_S3_St26random_access_iterator_tag: # @_ZSt10__distanceIPKcENSt15iterator_traitsIT_E15difference_typeES3_S3_St26random_access_iterator_tag
.Lfunc_begin26:
	.loc	70 100 0                # /usr/lib/gcc/x86_64-linux-gnu/9/../../../../include/c++/9/bits/stl_iterator_base_funcs.h:100:0
	.cfi_startproc
# %bb.0:
	#DEBUG_VALUE: __distance<const char *>:__first <- %rdi
	#DEBUG_VALUE: __distance<const char *>:__first <- %rdi
	#DEBUG_VALUE: __distance<const char *>:__last <- %rsi
	#DEBUG_VALUE: __distance<const char *>:__last <- %rsi
	.loc	70 104 21 prologue_end  # /usr/lib/gcc/x86_64-linux-gnu/9/../../../../include/c++/9/bits/stl_iterator_base_funcs.h:104:21
	subq	%rdi, %rsi
.Ltmp148:
	.loc	70 104 7 is_stmt 0      # /usr/lib/gcc/x86_64-linux-gnu/9/../../../../include/c++/9/bits/stl_iterator_base_funcs.h:104:7
	movq	%rsi, %rax
	retq
.Ltmp149:
.Lfunc_end26:
	.size	_ZSt10__distanceIPKcENSt15iterator_traitsIT_E15difference_typeES3_S3_St26random_access_iterator_tag, .Lfunc_end26-_ZSt10__distanceIPKcENSt15iterator_traitsIT_E15difference_typeES3_S3_St26random_access_iterator_tag
	.cfi_endproc
                                        # -- End function
	.section	.text._ZN9__gnu_cxx13new_allocatorIcEC2ERKS1_,"axG",@progbits,_ZN9__gnu_cxx13new_allocatorIcEC2ERKS1_,comdat
	.weak	_ZN9__gnu_cxx13new_allocatorIcEC2ERKS1_ # -- Begin function _ZN9__gnu_cxx13new_allocatorIcEC2ERKS1_
	.p2align	4, 0x90
	.type	_ZN9__gnu_cxx13new_allocatorIcEC2ERKS1_,@function
_ZN9__gnu_cxx13new_allocatorIcEC2ERKS1_: # @_ZN9__gnu_cxx13new_allocatorIcEC2ERKS1_
.Lfunc_begin27:
	.loc	13 83 0 is_stmt 1       # /usr/lib/gcc/x86_64-linux-gnu/9/../../../../include/c++/9/ext/new_allocator.h:83:0
	.cfi_startproc
# %bb.0:
	#DEBUG_VALUE: new_allocator:this <- %rdi
	#DEBUG_VALUE: new_allocator: <- %rsi
	.loc	13 83 67 prologue_end   # /usr/lib/gcc/x86_64-linux-gnu/9/../../../../include/c++/9/ext/new_allocator.h:83:67
	retq
.Ltmp150:
.Lfunc_end27:
	.size	_ZN9__gnu_cxx13new_allocatorIcEC2ERKS1_, .Lfunc_end27-_ZN9__gnu_cxx13new_allocatorIcEC2ERKS1_
	.cfi_endproc
                                        # -- End function
	.section	.text._ZNSt14pointer_traitsIPcE10pointer_toERc,"axG",@progbits,_ZNSt14pointer_traitsIPcE10pointer_toERc,comdat
	.weak	_ZNSt14pointer_traitsIPcE10pointer_toERc # -- Begin function _ZNSt14pointer_traitsIPcE10pointer_toERc
	.p2align	4, 0x90
	.type	_ZNSt14pointer_traitsIPcE10pointer_toERc,@function
_ZNSt14pointer_traitsIPcE10pointer_toERc: # @_ZNSt14pointer_traitsIPcE10pointer_toERc
.Lfunc_begin28:
	.loc	65 147 0                # /usr/lib/gcc/x86_64-linux-gnu/9/../../../../include/c++/9/bits/ptr_traits.h:147:0
	.cfi_startproc
# %bb.0:
	#DEBUG_VALUE: pointer_to:__r <- %rdi
	#DEBUG_VALUE: pointer_to:__r <- %rdi
	#DEBUG_VALUE: pointer_to:__r <- %rdi
	.loc	65 147 16 prologue_end  # /usr/lib/gcc/x86_64-linux-gnu/9/../../../../include/c++/9/bits/ptr_traits.h:147:16
	jmp	_ZSt9addressofIcEPT_RS0_ # TAILCALL
.Ltmp151:
.Lfunc_end28:
	.size	_ZNSt14pointer_traitsIPcE10pointer_toERc, .Lfunc_end28-_ZNSt14pointer_traitsIPcE10pointer_toERc
	.cfi_endproc
                                        # -- End function
	.section	.text._ZSt9addressofIcEPT_RS0_,"axG",@progbits,_ZSt9addressofIcEPT_RS0_,comdat
	.weak	_ZSt9addressofIcEPT_RS0_ # -- Begin function _ZSt9addressofIcEPT_RS0_
	.p2align	4, 0x90
	.type	_ZSt9addressofIcEPT_RS0_,@function
_ZSt9addressofIcEPT_RS0_:               # @_ZSt9addressofIcEPT_RS0_
.Lfunc_begin29:
	.loc	66 139 0                # /usr/lib/gcc/x86_64-linux-gnu/9/../../../../include/c++/9/bits/move.h:139:0
	.cfi_startproc
# %bb.0:
	#DEBUG_VALUE: addressof<char>:__r <- %rdi
	#DEBUG_VALUE: addressof<char>:__r <- %rdi
	#DEBUG_VALUE: addressof<char>:__r <- %rdi
	.loc	66 139 14 prologue_end  # /usr/lib/gcc/x86_64-linux-gnu/9/../../../../include/c++/9/bits/move.h:139:14
	jmp	_ZSt11__addressofIcEPT_RS0_ # TAILCALL
.Ltmp152:
.Lfunc_end29:
	.size	_ZSt9addressofIcEPT_RS0_, .Lfunc_end29-_ZSt9addressofIcEPT_RS0_
	.cfi_endproc
                                        # -- End function
	.section	.text._ZSt11__addressofIcEPT_RS0_,"axG",@progbits,_ZSt11__addressofIcEPT_RS0_,comdat
	.weak	_ZSt11__addressofIcEPT_RS0_ # -- Begin function _ZSt11__addressofIcEPT_RS0_
	.p2align	4, 0x90
	.type	_ZSt11__addressofIcEPT_RS0_,@function
_ZSt11__addressofIcEPT_RS0_:            # @_ZSt11__addressofIcEPT_RS0_
.Lfunc_begin30:
	.loc	66 48 0                 # /usr/lib/gcc/x86_64-linux-gnu/9/../../../../include/c++/9/bits/move.h:48:0
	.cfi_startproc
# %bb.0:
	#DEBUG_VALUE: __addressof<char>:__r <- %rdi
	#DEBUG_VALUE: __addressof<char>:__r <- %rdi
	.loc	66 48 7 prologue_end    # /usr/lib/gcc/x86_64-linux-gnu/9/../../../../include/c++/9/bits/move.h:48:7
	movq	%rdi, %rax
.Ltmp153:
	#DEBUG_VALUE: __addressof<char>:__r <- %rax
	retq
.Ltmp154:
.Lfunc_end30:
	.size	_ZSt11__addressofIcEPT_RS0_, .Lfunc_end30-_ZSt11__addressofIcEPT_RS0_
	.cfi_endproc
                                        # -- End function
	.section	.text._ZN9__gnu_cxx13new_allocatorIcEC2Ev,"axG",@progbits,_ZN9__gnu_cxx13new_allocatorIcEC2Ev,comdat
	.weak	_ZN9__gnu_cxx13new_allocatorIcEC2Ev # -- Begin function _ZN9__gnu_cxx13new_allocatorIcEC2Ev
	.p2align	4, 0x90
	.type	_ZN9__gnu_cxx13new_allocatorIcEC2Ev,@function
_ZN9__gnu_cxx13new_allocatorIcEC2Ev:    # @_ZN9__gnu_cxx13new_allocatorIcEC2Ev
.Lfunc_begin31:
	.loc	13 80 0                 # /usr/lib/gcc/x86_64-linux-gnu/9/../../../../include/c++/9/ext/new_allocator.h:80:0
	.cfi_startproc
# %bb.0:
	#DEBUG_VALUE: new_allocator:this <- %rdi
	.loc	13 80 47 prologue_end   # /usr/lib/gcc/x86_64-linux-gnu/9/../../../../include/c++/9/ext/new_allocator.h:80:47
	retq
.Ltmp155:
.Lfunc_end31:
	.size	_ZN9__gnu_cxx13new_allocatorIcEC2Ev, .Lfunc_end31-_ZN9__gnu_cxx13new_allocatorIcEC2Ev
	.cfi_endproc
                                        # -- End function
	.section	.text._ZNSt12_Vector_baseIPN12ILLIXR_AUDIO5SoundESaIS2_EEC2Ev,"axG",@progbits,_ZNSt12_Vector_baseIPN12ILLIXR_AUDIO5SoundESaIS2_EEC2Ev,comdat
	.weak	_ZNSt12_Vector_baseIPN12ILLIXR_AUDIO5SoundESaIS2_EEC2Ev # -- Begin function _ZNSt12_Vector_baseIPN12ILLIXR_AUDIO5SoundESaIS2_EEC2Ev
	.p2align	4, 0x90
	.type	_ZNSt12_Vector_baseIPN12ILLIXR_AUDIO5SoundESaIS2_EEC2Ev,@function
_ZNSt12_Vector_baseIPN12ILLIXR_AUDIO5SoundESaIS2_EEC2Ev: # @_ZNSt12_Vector_baseIPN12ILLIXR_AUDIO5SoundESaIS2_EEC2Ev
.Lfunc_begin32:
	.loc	49 285 0                # /usr/lib/gcc/x86_64-linux-gnu/9/../../../../include/c++/9/bits/stl_vector.h:285:0
	.cfi_startproc
# %bb.0:
	#DEBUG_VALUE: _Vector_base:this <- %rdi
	#DEBUG_VALUE: _Vector_base:this <- %rdi
	#DEBUG_VALUE: _Vector_base:this <- %rdi
	.loc	49 285 7 prologue_end   # /usr/lib/gcc/x86_64-linux-gnu/9/../../../../include/c++/9/bits/stl_vector.h:285:7
	jmp	_ZNSt12_Vector_baseIPN12ILLIXR_AUDIO5SoundESaIS2_EE12_Vector_implC2Ev # TAILCALL
.Ltmp156:
.Lfunc_end32:
	.size	_ZNSt12_Vector_baseIPN12ILLIXR_AUDIO5SoundESaIS2_EEC2Ev, .Lfunc_end32-_ZNSt12_Vector_baseIPN12ILLIXR_AUDIO5SoundESaIS2_EEC2Ev
	.cfi_endproc
                                        # -- End function
	.section	.text._ZNSt12_Vector_baseIPN12ILLIXR_AUDIO5SoundESaIS2_EE12_Vector_implC2Ev,"axG",@progbits,_ZNSt12_Vector_baseIPN12ILLIXR_AUDIO5SoundESaIS2_EE12_Vector_implC2Ev,comdat
	.weak	_ZNSt12_Vector_baseIPN12ILLIXR_AUDIO5SoundESaIS2_EE12_Vector_implC2Ev # -- Begin function _ZNSt12_Vector_baseIPN12ILLIXR_AUDIO5SoundESaIS2_EE12_Vector_implC2Ev
	.p2align	4, 0x90
	.type	_ZNSt12_Vector_baseIPN12ILLIXR_AUDIO5SoundESaIS2_EE12_Vector_implC2Ev,@function
_ZNSt12_Vector_baseIPN12ILLIXR_AUDIO5SoundESaIS2_EE12_Vector_implC2Ev: # @_ZNSt12_Vector_baseIPN12ILLIXR_AUDIO5SoundESaIS2_EE12_Vector_implC2Ev
.Lfunc_begin33:
	.loc	49 131 0                # /usr/lib/gcc/x86_64-linux-gnu/9/../../../../include/c++/9/bits/stl_vector.h:131:0
	.cfi_startproc
# %bb.0:
	pushq	%rbx
	.cfi_def_cfa_offset 16
	.cfi_offset %rbx, -16
	#DEBUG_VALUE: _Vector_impl:this <- %rdi
	movq	%rdi, %rbx
.Ltmp157:
	#DEBUG_VALUE: _Vector_impl:this <- %rbx
	.loc	49 130 4 prologue_end   # /usr/lib/gcc/x86_64-linux-gnu/9/../../../../include/c++/9/bits/stl_vector.h:130:4
	callq	_ZNSaIPN12ILLIXR_AUDIO5SoundEEC2Ev
	.loc	49 128 2                # /usr/lib/gcc/x86_64-linux-gnu/9/../../../../include/c++/9/bits/stl_vector.h:128:2
	movq	%rbx, %rdi
	popq	%rbx
.Ltmp158:
	jmp	_ZNSt12_Vector_baseIPN12ILLIXR_AUDIO5SoundESaIS2_EE17_Vector_impl_dataC2Ev # TAILCALL
.Ltmp159:
.Lfunc_end33:
	.size	_ZNSt12_Vector_baseIPN12ILLIXR_AUDIO5SoundESaIS2_EE12_Vector_implC2Ev, .Lfunc_end33-_ZNSt12_Vector_baseIPN12ILLIXR_AUDIO5SoundESaIS2_EE12_Vector_implC2Ev
	.cfi_endproc
                                        # -- End function
	.section	.text._ZNSaIPN12ILLIXR_AUDIO5SoundEEC2Ev,"axG",@progbits,_ZNSaIPN12ILLIXR_AUDIO5SoundEEC2Ev,comdat
	.weak	_ZNSaIPN12ILLIXR_AUDIO5SoundEEC2Ev # -- Begin function _ZNSaIPN12ILLIXR_AUDIO5SoundEEC2Ev
	.p2align	4, 0x90
	.type	_ZNSaIPN12ILLIXR_AUDIO5SoundEEC2Ev,@function
_ZNSaIPN12ILLIXR_AUDIO5SoundEEC2Ev:     # @_ZNSaIPN12ILLIXR_AUDIO5SoundEEC2Ev
.Lfunc_begin34:
	.loc	47 138 0                # /usr/lib/gcc/x86_64-linux-gnu/9/../../../../include/c++/9/bits/allocator.h:138:0
	.cfi_startproc
# %bb.0:
	#DEBUG_VALUE: allocator:this <- %rdi
	#DEBUG_VALUE: allocator:this <- %rdi
	#DEBUG_VALUE: allocator:this <- %rdi
	.loc	47 138 7 prologue_end   # /usr/lib/gcc/x86_64-linux-gnu/9/../../../../include/c++/9/bits/allocator.h:138:7
	jmp	_ZN9__gnu_cxx13new_allocatorIPN12ILLIXR_AUDIO5SoundEEC2Ev # TAILCALL
.Ltmp160:
.Lfunc_end34:
	.size	_ZNSaIPN12ILLIXR_AUDIO5SoundEEC2Ev, .Lfunc_end34-_ZNSaIPN12ILLIXR_AUDIO5SoundEEC2Ev
	.cfi_endproc
                                        # -- End function
	.section	.text._ZNSt12_Vector_baseIPN12ILLIXR_AUDIO5SoundESaIS2_EE17_Vector_impl_dataC2Ev,"axG",@progbits,_ZNSt12_Vector_baseIPN12ILLIXR_AUDIO5SoundESaIS2_EE17_Vector_impl_dataC2Ev,comdat
	.weak	_ZNSt12_Vector_baseIPN12ILLIXR_AUDIO5SoundESaIS2_EE17_Vector_impl_dataC2Ev # -- Begin function _ZNSt12_Vector_baseIPN12ILLIXR_AUDIO5SoundESaIS2_EE17_Vector_impl_dataC2Ev
	.p2align	4, 0x90
	.type	_ZNSt12_Vector_baseIPN12ILLIXR_AUDIO5SoundESaIS2_EE17_Vector_impl_dataC2Ev,@function
_ZNSt12_Vector_baseIPN12ILLIXR_AUDIO5SoundESaIS2_EE17_Vector_impl_dataC2Ev: # @_ZNSt12_Vector_baseIPN12ILLIXR_AUDIO5SoundESaIS2_EE17_Vector_impl_dataC2Ev
.Lfunc_begin35:
	.loc	49 96 0                 # /usr/lib/gcc/x86_64-linux-gnu/9/../../../../include/c++/9/bits/stl_vector.h:96:0
	.cfi_startproc
# %bb.0:
	#DEBUG_VALUE: _Vector_impl_data:this <- %rdi
	#DEBUG_VALUE: _Vector_impl_data:this <- %rdi
	.loc	49 95 16 prologue_end   # /usr/lib/gcc/x86_64-linux-gnu/9/../../../../include/c++/9/bits/stl_vector.h:95:16
	xorps	%xmm0, %xmm0
	movups	%xmm0, (%rdi)
	movq	$0, 16(%rdi)
	.loc	49 96 4                 # /usr/lib/gcc/x86_64-linux-gnu/9/../../../../include/c++/9/bits/stl_vector.h:96:4
	retq
.Ltmp161:
.Lfunc_end35:
	.size	_ZNSt12_Vector_baseIPN12ILLIXR_AUDIO5SoundESaIS2_EE17_Vector_impl_dataC2Ev, .Lfunc_end35-_ZNSt12_Vector_baseIPN12ILLIXR_AUDIO5SoundESaIS2_EE17_Vector_impl_dataC2Ev
	.cfi_endproc
                                        # -- End function
	.section	.text._ZN9__gnu_cxx13new_allocatorIPN12ILLIXR_AUDIO5SoundEEC2Ev,"axG",@progbits,_ZN9__gnu_cxx13new_allocatorIPN12ILLIXR_AUDIO5SoundEEC2Ev,comdat
	.weak	_ZN9__gnu_cxx13new_allocatorIPN12ILLIXR_AUDIO5SoundEEC2Ev # -- Begin function _ZN9__gnu_cxx13new_allocatorIPN12ILLIXR_AUDIO5SoundEEC2Ev
	.p2align	4, 0x90
	.type	_ZN9__gnu_cxx13new_allocatorIPN12ILLIXR_AUDIO5SoundEEC2Ev,@function
_ZN9__gnu_cxx13new_allocatorIPN12ILLIXR_AUDIO5SoundEEC2Ev: # @_ZN9__gnu_cxx13new_allocatorIPN12ILLIXR_AUDIO5SoundEEC2Ev
.Lfunc_begin36:
	.loc	13 80 0                 # /usr/lib/gcc/x86_64-linux-gnu/9/../../../../include/c++/9/ext/new_allocator.h:80:0
	.cfi_startproc
# %bb.0:
	#DEBUG_VALUE: new_allocator:this <- %rdi
	.loc	13 80 47 prologue_end   # /usr/lib/gcc/x86_64-linux-gnu/9/../../../../include/c++/9/ext/new_allocator.h:80:47
	retq
.Ltmp162:
.Lfunc_end36:
	.size	_ZN9__gnu_cxx13new_allocatorIPN12ILLIXR_AUDIO5SoundEEC2Ev, .Lfunc_end36-_ZN9__gnu_cxx13new_allocatorIPN12ILLIXR_AUDIO5SoundEEC2Ev
	.cfi_endproc
                                        # -- End function
	.section	.rodata.cst16,"aM",@progbits,16
	.p2align	4               # -- Begin function _ZN12ILLIXR_AUDIO11WAVHeader_tC2Ev
.LCPI37_0:
	.long	1179011410              # 0x46464952
	.long	48000000                # 0x2dc6c00
	.long	1163280727              # 0x45564157
	.long	544501094               # 0x20746d66
	.section	.text._ZN12ILLIXR_AUDIO11WAVHeader_tC2Ev,"axG",@progbits,_ZN12ILLIXR_AUDIO11WAVHeader_tC2Ev,comdat
	.weak	_ZN12ILLIXR_AUDIO11WAVHeader_tC2Ev
	.p2align	4, 0x90
	.type	_ZN12ILLIXR_AUDIO11WAVHeader_tC2Ev,@function
_ZN12ILLIXR_AUDIO11WAVHeader_tC2Ev:     # @_ZN12ILLIXR_AUDIO11WAVHeader_tC2Ev
.Lfunc_begin37:
	.loc	53 145 0                # src/audio.cpp:145:0
	.cfi_startproc
# %bb.0:
	#DEBUG_VALUE: WAVHeader_t:this <- %rdi
	#DEBUG_VALUE: WAVHeader_t:this <- %rdi
	.loc	53 147 19 prologue_end  # src/audio.cpp:147:19
	movaps	.LCPI37_0(%rip), %xmm0  # xmm0 = [1179011410,48000000,1163280727,544501094]
	movups	%xmm0, (%rdi)
	.loc	53 151 19               # src/audio.cpp:151:19
	movabsq	$562954248388624, %rax  # imm = 0x2000100000010
	movq	%rax, 16(%rdi)
	.loc	53 154 19               # src/audio.cpp:154:19
	movabsq	$824633720880000, %rax  # imm = 0x2EE000000BB80
	movq	%rax, 24(%rdi)
	.loc	53 156 21               # src/audio.cpp:156:21
	movl	$1048580, 32(%rdi)      # imm = 0x100004
	.loc	53 158 19               # src/audio.cpp:158:19
	movabsq	$206158431843017060, %rax # imm = 0x2DC6C0061746164
	movq	%rax, 36(%rdi)
	.loc	53 145 45               # src/audio.cpp:145:45
	retq
.Ltmp163:
.Lfunc_end37:
	.size	_ZN12ILLIXR_AUDIO11WAVHeader_tC2Ev, .Lfunc_end37-_ZN12ILLIXR_AUDIO11WAVHeader_tC2Ev
	.cfi_endproc
                                        # -- End function
	.text
	.globl	_ZN12ILLIXR_AUDIO7ABAudioD2Ev # -- Begin function _ZN12ILLIXR_AUDIO7ABAudioD2Ev
	.p2align	4, 0x90
	.type	_ZN12ILLIXR_AUDIO7ABAudioD2Ev,@function
_ZN12ILLIXR_AUDIO7ABAudioD2Ev:          # @_ZN12ILLIXR_AUDIO7ABAudioD2Ev
.Lfunc_begin38:
	.loc	53 26 0                 # src/audio.cpp:26:0
	.cfi_startproc
# %bb.0:
	pushq	%rbp
	.cfi_def_cfa_offset 16
	pushq	%r14
	.cfi_def_cfa_offset 24
	pushq	%rbx
	.cfi_def_cfa_offset 32
	.cfi_offset %rbx, -32
	.cfi_offset %r14, -24
	.cfi_offset %rbp, -16
	#DEBUG_VALUE: ~ABAudio:this <- %rdi
	movq	%rdi, %r14
.Ltmp164:
	#DEBUG_VALUE: ~ABAudio:this <- %r14
	.loc	53 27 21 prologue_end   # src/audio.cpp:27:21
	cmpl	$0, (%r14)
.Ltmp165:
	.loc	53 27 9 is_stmt 0       # src/audio.cpp:27:9
	jne	.LBB38_2
.Ltmp166:
# %bb.1:
	#DEBUG_VALUE: ~ABAudio:this <- %r14
	.loc	53 28 14 is_stmt 1      # src/audio.cpp:28:14
	movq	16(%r14), %rdi
	.loc	53 28 9 is_stmt 0       # src/audio.cpp:28:9
	callq	free
.Ltmp167:
.LBB38_2:
	#DEBUG_VALUE: ~ABAudio:this <- %r14
	#DEBUG_VALUE: soundIdx <- 0
	.loc	53 30 48 is_stmt 1      # src/audio.cpp:30:48
	movq	8(%r14), %rdi
	.loc	53 30 59 is_stmt 0      # src/audio.cpp:30:59
	callq	_ZNKSt6vectorIPN12ILLIXR_AUDIO5SoundESaIS2_EE4sizeEv
	.loc	53 30 46                # src/audio.cpp:30:46
	testq	%rax, %rax
.Ltmp168:
	.loc	53 30 5                 # src/audio.cpp:30:5
	je	.LBB38_5
.Ltmp169:
# %bb.3:
	#DEBUG_VALUE: ~ABAudio:this <- %r14
	.loc	53 0 5                  # src/audio.cpp:0:5
	movl	$1, %ebp
	xorl	%ebx, %ebx
.Ltmp170:
	.p2align	4, 0x90
.LBB38_4:                               # =>This Inner Loop Header: Depth=1
	#DEBUG_VALUE: ~ABAudio:this <- %r14
	.loc	53 31 16 is_stmt 1      # src/audio.cpp:31:16
	movq	8(%r14), %rdi
	.loc	53 31 14 is_stmt 0      # src/audio.cpp:31:14
	movq	%rbx, %rsi
	callq	_ZNSt6vectorIPN12ILLIXR_AUDIO5SoundESaIS2_EEixEm
	movq	(%rax), %rdi
	.loc	53 31 9                 # src/audio.cpp:31:9
	callq	free
.Ltmp171:
	.loc	53 30 37 is_stmt 1      # src/audio.cpp:30:37
	movl	%ebp, %ebx
	.loc	53 30 48 is_stmt 0      # src/audio.cpp:30:48
	movq	8(%r14), %rdi
	.loc	53 30 59                # src/audio.cpp:30:59
	callq	_ZNKSt6vectorIPN12ILLIXR_AUDIO5SoundESaIS2_EE4sizeEv
.Ltmp172:
	.loc	53 30 5                 # src/audio.cpp:30:5
	addl	$1, %ebp
.Ltmp173:
	.loc	53 30 46                # src/audio.cpp:30:46
	cmpq	%rbx, %rax
.Ltmp174:
	.loc	53 30 5                 # src/audio.cpp:30:5
	ja	.LBB38_4
.Ltmp175:
.LBB38_5:
	#DEBUG_VALUE: ~ABAudio:this <- %r14
	.loc	53 33 10 is_stmt 1      # src/audio.cpp:33:10
	movq	8(%r14), %rdi
	.loc	53 33 5 is_stmt 0       # src/audio.cpp:33:5
	callq	free
	.loc	53 34 10 is_stmt 1      # src/audio.cpp:34:10
	movq	24(%r14), %rdi
	.loc	53 34 5 is_stmt 0       # src/audio.cpp:34:5
	callq	free
	.loc	53 35 10 is_stmt 1      # src/audio.cpp:35:10
	movq	32(%r14), %rdi
	.loc	53 35 5 is_stmt 0       # src/audio.cpp:35:5
	callq	free
	.loc	53 36 10 is_stmt 1      # src/audio.cpp:36:10
	movq	40(%r14), %rdi
	.loc	53 36 5 is_stmt 0       # src/audio.cpp:36:5
	popq	%rbx
	popq	%r14
.Ltmp176:
	popq	%rbp
	jmp	free                    # TAILCALL
.Ltmp177:
.Lfunc_end38:
	.size	_ZN12ILLIXR_AUDIO7ABAudioD2Ev, .Lfunc_end38-_ZN12ILLIXR_AUDIO7ABAudioD2Ev
	.cfi_endproc
                                        # -- End function
	.section	.text._ZNKSt6vectorIPN12ILLIXR_AUDIO5SoundESaIS2_EE4sizeEv,"axG",@progbits,_ZNKSt6vectorIPN12ILLIXR_AUDIO5SoundESaIS2_EE4sizeEv,comdat
	.weak	_ZNKSt6vectorIPN12ILLIXR_AUDIO5SoundESaIS2_EE4sizeEv # -- Begin function _ZNKSt6vectorIPN12ILLIXR_AUDIO5SoundESaIS2_EE4sizeEv
	.p2align	4, 0x90
	.type	_ZNKSt6vectorIPN12ILLIXR_AUDIO5SoundESaIS2_EE4sizeEv,@function
_ZNKSt6vectorIPN12ILLIXR_AUDIO5SoundESaIS2_EE4sizeEv: # @_ZNKSt6vectorIPN12ILLIXR_AUDIO5SoundESaIS2_EE4sizeEv
.Lfunc_begin39:
	.loc	49 916 0 is_stmt 1      # /usr/lib/gcc/x86_64-linux-gnu/9/../../../../include/c++/9/bits/stl_vector.h:916:0
	.cfi_startproc
# %bb.0:
	#DEBUG_VALUE: size:this <- %rdi
	#DEBUG_VALUE: size:this <- %rdi
	.loc	49 916 40 prologue_end  # /usr/lib/gcc/x86_64-linux-gnu/9/../../../../include/c++/9/bits/stl_vector.h:916:40
	movq	8(%rdi), %rax
	.loc	49 916 50 is_stmt 0     # /usr/lib/gcc/x86_64-linux-gnu/9/../../../../include/c++/9/bits/stl_vector.h:916:50
	subq	(%rdi), %rax
	sarq	$3, %rax
	.loc	49 916 9                # /usr/lib/gcc/x86_64-linux-gnu/9/../../../../include/c++/9/bits/stl_vector.h:916:9
	retq
.Ltmp178:
.Lfunc_end39:
	.size	_ZNKSt6vectorIPN12ILLIXR_AUDIO5SoundESaIS2_EE4sizeEv, .Lfunc_end39-_ZNKSt6vectorIPN12ILLIXR_AUDIO5SoundESaIS2_EE4sizeEv
	.cfi_endproc
                                        # -- End function
	.section	.text._ZNSt6vectorIPN12ILLIXR_AUDIO5SoundESaIS2_EEixEm,"axG",@progbits,_ZNSt6vectorIPN12ILLIXR_AUDIO5SoundESaIS2_EEixEm,comdat
	.weak	_ZNSt6vectorIPN12ILLIXR_AUDIO5SoundESaIS2_EEixEm # -- Begin function _ZNSt6vectorIPN12ILLIXR_AUDIO5SoundESaIS2_EEixEm
	.p2align	4, 0x90
	.type	_ZNSt6vectorIPN12ILLIXR_AUDIO5SoundESaIS2_EEixEm,@function
_ZNSt6vectorIPN12ILLIXR_AUDIO5SoundESaIS2_EEixEm: # @_ZNSt6vectorIPN12ILLIXR_AUDIO5SoundESaIS2_EEixEm
.Lfunc_begin40:
	.loc	49 1041 0 is_stmt 1     # /usr/lib/gcc/x86_64-linux-gnu/9/../../../../include/c++/9/bits/stl_vector.h:1041:0
	.cfi_startproc
# %bb.0:
	#DEBUG_VALUE: operator[]:this <- %rdi
	#DEBUG_VALUE: operator[]:this <- %rdi
	#DEBUG_VALUE: operator[]:__n <- %rsi
	#DEBUG_VALUE: operator[]:__n <- %rsi
	.loc	49 1043 34 prologue_end # /usr/lib/gcc/x86_64-linux-gnu/9/../../../../include/c++/9/bits/stl_vector.h:1043:34
	leaq	(,%rsi,8), %rax
	addq	(%rdi), %rax
	.loc	49 1043 2 is_stmt 0     # /usr/lib/gcc/x86_64-linux-gnu/9/../../../../include/c++/9/bits/stl_vector.h:1043:2
	retq
.Ltmp179:
.Lfunc_end40:
	.size	_ZNSt6vectorIPN12ILLIXR_AUDIO5SoundESaIS2_EEixEm, .Lfunc_end40-_ZNSt6vectorIPN12ILLIXR_AUDIO5SoundESaIS2_EEixEm
	.cfi_endproc
                                        # -- End function
	.section	.rodata.cst8,"aM",@progbits,8
	.p2align	3               # -- Begin function _ZN12ILLIXR_AUDIO7ABAudio10loadSourceEv
.LCPI41_0:
	.quad	-4631501856787818086    # double -0.10000000000000001
.LCPI41_1:
	.quad	4609749470587618591     # double 1.5700000000000001
	.text
	.globl	_ZN12ILLIXR_AUDIO7ABAudio10loadSourceEv
	.p2align	4, 0x90
	.type	_ZN12ILLIXR_AUDIO7ABAudio10loadSourceEv,@function
_ZN12ILLIXR_AUDIO7ABAudio10loadSourceEv: # @_ZN12ILLIXR_AUDIO7ABAudio10loadSourceEv
.Lfunc_begin41:
	.loc	53 39 0 is_stmt 1       # src/audio.cpp:39:0
	.cfi_startproc
	.cfi_personality 3, __gxx_personality_v0
	.cfi_lsda 3, .Lexception3
# %bb.0:
	pushq	%rbp
	.cfi_def_cfa_offset 16
	pushq	%r15
	.cfi_def_cfa_offset 24
	pushq	%r14
	.cfi_def_cfa_offset 32
	pushq	%r13
	.cfi_def_cfa_offset 40
	pushq	%r12
	.cfi_def_cfa_offset 48
	pushq	%rbx
	.cfi_def_cfa_offset 56
	subq	$136, %rsp
	.cfi_def_cfa_offset 192
	.cfi_offset %rbx, -56
	.cfi_offset %r12, -48
	.cfi_offset %r13, -40
	.cfi_offset %r14, -32
	.cfi_offset %r15, -24
	.cfi_offset %rbp, -16
	#DEBUG_VALUE: loadSource:this <- %rdi
	movq	%rdi, %r14
.Ltmp198:
	#DEBUG_VALUE: loadSource:this <- %r14
	.loc	53 44 21 prologue_end   # src/audio.cpp:44:21
	cmpl	$0, (%r14)
.Ltmp199:
	.loc	53 44 9 is_stmt 0       # src/audio.cpp:44:9
	je	.LBB41_5
.Ltmp200:
# %bb.1:
	#DEBUG_VALUE: loadSource:this <- %r14
	.loc	53 0 9                  # src/audio.cpp:0:9
	xorl	%r12d, %r12d
.Ltmp201:
	#DEBUG_VALUE: i <- 0
	leaq	8(%rsp), %r15
	leaq	104(%rsp), %rbx
	leaq	16(%rsp), %r13
.Ltmp202:
	.p2align	4, 0x90
.LBB41_2:                               # =>This Inner Loop Header: Depth=1
	#DEBUG_VALUE: loadSource:this <- %r14
	.loc	53 59 23 is_stmt 1      # src/audio.cpp:59:23
	movl	$4136, %edi             # imm = 0x1028
	callq	_Znwm
	movq	%rax, %rbp
	.loc	53 59 33 is_stmt 0      # src/audio.cpp:59:33
	movq	%r15, %rdi
	callq	_ZNSaIcEC2Ev
.Ltmp180:
	movl	$.L.str.2, %esi
	movq	%rbx, %rdi
	movq	%r15, %rdx
	callq	_ZNSt7__cxx1112basic_stringIcSt11char_traitsIcESaIcEEC2EPKcRKS3_
.Ltmp181:
.Ltmp203:
# %bb.3:                                #   in Loop: Header=BB41_2 Depth=1
	#DEBUG_VALUE: loadSource:this <- %r14
.Ltmp183:
	#DEBUG_VALUE: loadSource:inSound <- %rbp
	.loc	53 59 27                # src/audio.cpp:59:27
	movl	$3, %edx
	movl	$1, %ecx
	movq	%rbp, %rdi
	movq	%rbx, %rsi
	callq	_ZN12ILLIXR_AUDIO5SoundC1ENSt7__cxx1112basic_stringIcSt11char_traitsIcESaIcEEEjb
.Ltmp184:
.Ltmp204:
# %bb.4:                                #   in Loop: Header=BB41_2 Depth=1
	#DEBUG_VALUE: loadSource:inSound <- %rbp
	#DEBUG_VALUE: loadSource:this <- %r14
	#DEBUG_VALUE: i <- %r12d
	.loc	53 59 21                # src/audio.cpp:59:21
	movq	%rbp, 16(%rsp)
	.loc	53 59 13                # src/audio.cpp:59:13
	movq	%rbx, %rdi
	callq	_ZNSt7__cxx1112basic_stringIcSt11char_traitsIcESaIcEED2Ev
	movq	%r15, %rdi
	callq	_ZNSaIcED2Ev
	.loc	53 60 40 is_stmt 1      # src/audio.cpp:60:40
	movl	%r12d, %eax
	xorps	%xmm0, %xmm0
	cvtsi2sdq	%rax, %xmm0
	.loc	53 60 38 is_stmt 0      # src/audio.cpp:60:38
	movapd	%xmm0, %xmm1
	mulsd	.LCPI41_0(%rip), %xmm1
	.loc	53 60 33                # src/audio.cpp:60:33
	cvtsd2ss	%xmm1, %xmm1
	.loc	53 60 31                # src/audio.cpp:60:31
	movss	%xmm1, 24(%rsp)
	.loc	53 61 42 is_stmt 1      # src/audio.cpp:61:42
	mulsd	.LCPI41_1(%rip), %xmm0
	.loc	53 61 35 is_stmt 0      # src/audio.cpp:61:35
	cvtsd2ss	%xmm0, %xmm0
	.loc	53 61 33                # src/audio.cpp:61:33
	movss	%xmm0, 28(%rsp)
	.loc	53 62 34 is_stmt 1      # src/audio.cpp:62:34
	xorps	%xmm0, %xmm0
	cvtsi2ssq	%rax, %xmm0
	.loc	53 62 32 is_stmt 0      # src/audio.cpp:62:32
	movss	%xmm0, 32(%rsp)
	.loc	53 63 13 is_stmt 1      # src/audio.cpp:63:13
	movq	16(%rsp), %rdi
.Ltmp205:
	#DEBUG_VALUE: loadSource:inSound <- %rdi
	#DEBUG_VALUE: loadSource:position <- [DW_OP_plus_uconst 24] [%rsp+0]
	.loc	53 63 22 is_stmt 0      # src/audio.cpp:63:22
	leaq	24(%rsp), %rsi
	callq	_ZN12ILLIXR_AUDIO5Sound9setSrcPosER10PolarPoint
.Ltmp206:
	.loc	53 64 13 is_stmt 1      # src/audio.cpp:64:13
	movq	8(%r14), %rdi
.Ltmp207:
	#DEBUG_VALUE: loadSource:inSound <- [DW_OP_plus_uconst 16] [%rsp+0]
	.loc	53 64 24 is_stmt 0      # src/audio.cpp:64:24
	movq	%r13, %rsi
	callq	_ZNSt6vectorIPN12ILLIXR_AUDIO5SoundESaIS2_EE9push_backERKS2_
.Ltmp208:
	.loc	53 58 45 is_stmt 1      # src/audio.cpp:58:45
	addl	$1, %r12d
.Ltmp209:
	#DEBUG_VALUE: i <- %r12d
	.loc	53 58 32 is_stmt 0      # src/audio.cpp:58:32
	cmpl	$16, %r12d
.Ltmp210:
	.loc	53 58 9                 # src/audio.cpp:58:9
	jb	.LBB41_2
	jmp	.LBB41_10
.Ltmp211:
.LBB41_5:
	#DEBUG_VALUE: loadSource:this <- %r14
	.loc	53 45 19 is_stmt 1      # src/audio.cpp:45:19
	movl	$4136, %edi             # imm = 0x1028
	callq	_Znwm
	movq	%rax, %rbx
	leaq	8(%rsp), %rbp
	.loc	53 45 29 is_stmt 0      # src/audio.cpp:45:29
	movq	%rbp, %rdi
	callq	_ZNSaIcEC2Ev
.Ltmp186:
	leaq	72(%rsp), %rdi
	movl	$.L.str.2, %esi
	movq	%rbp, %rdx
	callq	_ZNSt7__cxx1112basic_stringIcSt11char_traitsIcESaIcEEC2EPKcRKS3_
.Ltmp187:
.Ltmp212:
# %bb.6:
	#DEBUG_VALUE: loadSource:this <- %r14
.Ltmp189:
	#DEBUG_VALUE: loadSource:inSound <- %rbx
	.loc	53 0 29                 # src/audio.cpp:0:29
	leaq	72(%rsp), %rsi
	.loc	53 45 23                # src/audio.cpp:45:23
	movl	$3, %edx
	movl	$1, %ecx
	movq	%rbx, %rdi
	callq	_ZN12ILLIXR_AUDIO5SoundC1ENSt7__cxx1112basic_stringIcSt11char_traitsIcESaIcEEEjb
.Ltmp190:
.Ltmp213:
# %bb.7:
	#DEBUG_VALUE: loadSource:inSound <- %rbx
	#DEBUG_VALUE: loadSource:this <- %r14
	.loc	53 45 17                # src/audio.cpp:45:17
	movq	%rbx, 16(%rsp)
	leaq	72(%rsp), %rdi
	.loc	53 45 9                 # src/audio.cpp:45:9
	callq	_ZNSt7__cxx1112basic_stringIcSt11char_traitsIcESaIcEED2Ev
	leaq	8(%rsp), %rdi
	callq	_ZNSaIcED2Ev
	.loc	53 46 27 is_stmt 1      # src/audio.cpp:46:27
	movabsq	$4596193640783334605, %rax # imm = 0x3FC8F5C3BDCCCCCD
	movq	%rax, 24(%rsp)
	.loc	53 48 28                # src/audio.cpp:48:28
	movl	$1065353216, 32(%rsp)   # imm = 0x3F800000
	.loc	53 49 9                 # src/audio.cpp:49:9
	movq	16(%rsp), %rdi
.Ltmp214:
	#DEBUG_VALUE: loadSource:inSound <- %rdi
	.loc	53 0 9 is_stmt 0        # src/audio.cpp:0:9
	leaq	24(%rsp), %rsi
.Ltmp215:
	#DEBUG_VALUE: loadSource:position <- [DW_OP_plus_uconst 24] [%rsp+0]
	.loc	53 49 18                # src/audio.cpp:49:18
	callq	_ZN12ILLIXR_AUDIO5Sound9setSrcPosER10PolarPoint
.Ltmp216:
	.loc	53 50 9 is_stmt 1       # src/audio.cpp:50:9
	movq	8(%r14), %rdi
	leaq	16(%rsp), %rsi
.Ltmp217:
	#DEBUG_VALUE: loadSource:inSound <- [DW_OP_plus_uconst 16] [%rsp+0]
	.loc	53 50 20 is_stmt 0      # src/audio.cpp:50:20
	callq	_ZNSt6vectorIPN12ILLIXR_AUDIO5SoundESaIS2_EE9push_backERKS2_
	.loc	53 51 19 is_stmt 1      # src/audio.cpp:51:19
	movl	$4136, %edi             # imm = 0x1028
	callq	_Znwm
	movq	%rax, %rbx
	leaq	8(%rsp), %rbp
	.loc	53 51 29 is_stmt 0      # src/audio.cpp:51:29
	movq	%rbp, %rdi
	callq	_ZNSaIcEC2Ev
.Ltmp192:
	leaq	40(%rsp), %rdi
	movl	$.L.str.3, %esi
	movq	%rbp, %rdx
	callq	_ZNSt7__cxx1112basic_stringIcSt11char_traitsIcESaIcEEC2EPKcRKS3_
.Ltmp193:
.Ltmp218:
# %bb.8:
	#DEBUG_VALUE: loadSource:inSound <- [DW_OP_plus_uconst 16] [%rsp+0]
	#DEBUG_VALUE: loadSource:position <- [DW_OP_plus_uconst 24] [%rsp+0]
	#DEBUG_VALUE: loadSource:this <- %r14
.Ltmp195:
	#DEBUG_VALUE: loadSource:inSound <- %rbx
	.loc	53 0 29                 # src/audio.cpp:0:29
	leaq	40(%rsp), %rsi
	.loc	53 51 23                # src/audio.cpp:51:23
	movl	$3, %edx
	movl	$1, %ecx
	movq	%rbx, %rdi
	callq	_ZN12ILLIXR_AUDIO5SoundC1ENSt7__cxx1112basic_stringIcSt11char_traitsIcESaIcEEEjb
.Ltmp196:
.Ltmp219:
# %bb.9:
	#DEBUG_VALUE: loadSource:inSound <- %rbx
	#DEBUG_VALUE: loadSource:position <- [DW_OP_plus_uconst 24] [%rsp+0]
	#DEBUG_VALUE: loadSource:this <- %r14
	.loc	53 51 17                # src/audio.cpp:51:17
	movq	%rbx, 16(%rsp)
	leaq	40(%rsp), %rdi
	.loc	53 51 9                 # src/audio.cpp:51:9
	callq	_ZNSt7__cxx1112basic_stringIcSt11char_traitsIcESaIcEED2Ev
	leaq	8(%rsp), %rdi
	callq	_ZNSaIcED2Ev
	.loc	53 52 27 is_stmt 1      # src/audio.cpp:52:27
	movq	$1065353216, 24(%rsp)   # imm = 0x3F800000
	.loc	53 54 28                # src/audio.cpp:54:28
	movl	$1084227584, 32(%rsp)   # imm = 0x40A00000
	.loc	53 55 9                 # src/audio.cpp:55:9
	movq	16(%rsp), %rdi
.Ltmp220:
	#DEBUG_VALUE: loadSource:inSound <- %rdi
	.loc	53 0 9 is_stmt 0        # src/audio.cpp:0:9
	leaq	24(%rsp), %rsi
	#DEBUG_VALUE: loadSource:position <- [DW_OP_plus_uconst 24] [%rsp+0]
	.loc	53 55 18                # src/audio.cpp:55:18
	callq	_ZN12ILLIXR_AUDIO5Sound9setSrcPosER10PolarPoint
.Ltmp221:
	.loc	53 56 9 is_stmt 1       # src/audio.cpp:56:9
	movq	8(%r14), %rdi
	leaq	16(%rsp), %rsi
.Ltmp222:
	#DEBUG_VALUE: loadSource:inSound <- [DW_OP_plus_uconst 16] [%rsp+0]
	.loc	53 56 20 is_stmt 0      # src/audio.cpp:56:20
	callq	_ZNSt6vectorIPN12ILLIXR_AUDIO5SoundESaIS2_EE9push_backERKS2_
.Ltmp223:
.LBB41_10:
	#DEBUG_VALUE: loadSource:inSound <- [DW_OP_plus_uconst 16] [%rsp+0]
	#DEBUG_VALUE: loadSource:position <- [DW_OP_plus_uconst 24] [%rsp+0]
	#DEBUG_VALUE: loadSource:this <- %r14
	.loc	53 67 1 is_stmt 1       # src/audio.cpp:67:1
	addq	$136, %rsp
.Ltmp224:
	popq	%rbx
	popq	%r12
	popq	%r13
	popq	%r14
.Ltmp225:
	popq	%r15
	popq	%rbp
	retq
.LBB41_11:
.Ltmp226:
	#DEBUG_VALUE: loadSource:inSound <- %rbx
	#DEBUG_VALUE: loadSource:position <- [DW_OP_plus_uconst 24] [%rsp+0]
	#DEBUG_VALUE: loadSource:this <- %r14
.Ltmp197:
	.loc	53 0 1 is_stmt 0        # src/audio.cpp:0:1
	movq	%rax, %r14
.Ltmp227:
	leaq	40(%rsp), %rdi
	jmp	.LBB41_14
.Ltmp228:
.LBB41_12:
	#DEBUG_VALUE: loadSource:inSound <- [DW_OP_plus_uconst 16] [%rsp+0]
	#DEBUG_VALUE: loadSource:position <- [DW_OP_plus_uconst 24] [%rsp+0]
	#DEBUG_VALUE: loadSource:this <- %r14
.Ltmp194:
	jmp	.LBB41_16
.Ltmp229:
.LBB41_13:
	#DEBUG_VALUE: loadSource:inSound <- %rbx
	#DEBUG_VALUE: loadSource:this <- %r14
.Ltmp191:
	movq	%rax, %r14
.Ltmp230:
	leaq	72(%rsp), %rdi
.Ltmp231:
.LBB41_14:
	#DEBUG_VALUE: loadSource:inSound <- %rbx
	callq	_ZNSt7__cxx1112basic_stringIcSt11char_traitsIcESaIcEED2Ev
	jmp	.LBB41_17
.Ltmp232:
.LBB41_15:
	#DEBUG_VALUE: loadSource:this <- %r14
.Ltmp188:
.LBB41_16:
	#DEBUG_VALUE: loadSource:this <- %r14
	movq	%rax, %r14
.Ltmp233:
.LBB41_17:
	leaq	8(%rsp), %rdi
	callq	_ZNSaIcED2Ev
	movq	%rbx, %rdi
	jmp	.LBB41_21
.LBB41_18:
.Ltmp234:
	#DEBUG_VALUE: loadSource:inSound <- %rbp
	#DEBUG_VALUE: loadSource:this <- %r14
.Ltmp185:
	movq	%rax, %r14
.Ltmp235:
	leaq	104(%rsp), %rdi
.Ltmp236:
	.loc	53 59 13 is_stmt 1      # src/audio.cpp:59:13
	callq	_ZNSt7__cxx1112basic_stringIcSt11char_traitsIcESaIcEED2Ev
	jmp	.LBB41_20
.Ltmp237:
.LBB41_19:
	#DEBUG_VALUE: loadSource:this <- %r14
.Ltmp182:
	.loc	53 0 13 is_stmt 0       # src/audio.cpp:0:13
	movq	%rax, %r14
.Ltmp238:
.LBB41_20:
	leaq	8(%rsp), %rdi
	.loc	53 59 13                # src/audio.cpp:59:13
	callq	_ZNSaIcED2Ev
	movq	%rbp, %rdi
.Ltmp239:
.LBB41_21:
	.loc	53 0 13                 # src/audio.cpp:0:13
	callq	_ZdlPv
	movq	%r14, %rdi
	callq	_Unwind_Resume
.Lfunc_end41:
	.size	_ZN12ILLIXR_AUDIO7ABAudio10loadSourceEv, .Lfunc_end41-_ZN12ILLIXR_AUDIO7ABAudio10loadSourceEv
	.cfi_endproc
	.section	.gcc_except_table,"a",@progbits
	.p2align	2
GCC_except_table41:
.Lexception3:
	.byte	255                     # @LPStart Encoding = omit
	.byte	3                       # @TType Encoding = udata4
	.asciz	"\205\201\200\200"      # @TType base offset
	.byte	3                       # Call site Encoding = udata4
	.ascii	"\202\001"              # Call site table length
	.long	.Lfunc_begin41-.Lfunc_begin41 # >> Call Site 1 <<
	.long	.Ltmp180-.Lfunc_begin41 #   Call between .Lfunc_begin41 and .Ltmp180
	.long	0                       #     has no landing pad
	.byte	0                       #   On action: cleanup
	.long	.Ltmp180-.Lfunc_begin41 # >> Call Site 2 <<
	.long	.Ltmp181-.Ltmp180       #   Call between .Ltmp180 and .Ltmp181
	.long	.Ltmp182-.Lfunc_begin41 #     jumps to .Ltmp182
	.byte	0                       #   On action: cleanup
	.long	.Ltmp183-.Lfunc_begin41 # >> Call Site 3 <<
	.long	.Ltmp184-.Ltmp183       #   Call between .Ltmp183 and .Ltmp184
	.long	.Ltmp185-.Lfunc_begin41 #     jumps to .Ltmp185
	.byte	0                       #   On action: cleanup
	.long	.Ltmp184-.Lfunc_begin41 # >> Call Site 4 <<
	.long	.Ltmp186-.Ltmp184       #   Call between .Ltmp184 and .Ltmp186
	.long	0                       #     has no landing pad
	.byte	0                       #   On action: cleanup
	.long	.Ltmp186-.Lfunc_begin41 # >> Call Site 5 <<
	.long	.Ltmp187-.Ltmp186       #   Call between .Ltmp186 and .Ltmp187
	.long	.Ltmp188-.Lfunc_begin41 #     jumps to .Ltmp188
	.byte	0                       #   On action: cleanup
	.long	.Ltmp189-.Lfunc_begin41 # >> Call Site 6 <<
	.long	.Ltmp190-.Ltmp189       #   Call between .Ltmp189 and .Ltmp190
	.long	.Ltmp191-.Lfunc_begin41 #     jumps to .Ltmp191
	.byte	0                       #   On action: cleanup
	.long	.Ltmp190-.Lfunc_begin41 # >> Call Site 7 <<
	.long	.Ltmp192-.Ltmp190       #   Call between .Ltmp190 and .Ltmp192
	.long	0                       #     has no landing pad
	.byte	0                       #   On action: cleanup
	.long	.Ltmp192-.Lfunc_begin41 # >> Call Site 8 <<
	.long	.Ltmp193-.Ltmp192       #   Call between .Ltmp192 and .Ltmp193
	.long	.Ltmp194-.Lfunc_begin41 #     jumps to .Ltmp194
	.byte	0                       #   On action: cleanup
	.long	.Ltmp195-.Lfunc_begin41 # >> Call Site 9 <<
	.long	.Ltmp196-.Ltmp195       #   Call between .Ltmp195 and .Ltmp196
	.long	.Ltmp197-.Lfunc_begin41 #     jumps to .Ltmp197
	.byte	0                       #   On action: cleanup
	.long	.Ltmp196-.Lfunc_begin41 # >> Call Site 10 <<
	.long	.Lfunc_end41-.Ltmp196   #   Call between .Ltmp196 and .Lfunc_end41
	.long	0                       #     has no landing pad
	.byte	0                       #   On action: cleanup
	.p2align	2
                                        # -- End function
	.section	.text._ZNSt6vectorIPN12ILLIXR_AUDIO5SoundESaIS2_EE9push_backERKS2_,"axG",@progbits,_ZNSt6vectorIPN12ILLIXR_AUDIO5SoundESaIS2_EE9push_backERKS2_,comdat
	.weak	_ZNSt6vectorIPN12ILLIXR_AUDIO5SoundESaIS2_EE9push_backERKS2_ # -- Begin function _ZNSt6vectorIPN12ILLIXR_AUDIO5SoundESaIS2_EE9push_backERKS2_
	.p2align	4, 0x90
	.type	_ZNSt6vectorIPN12ILLIXR_AUDIO5SoundESaIS2_EE9push_backERKS2_,@function
_ZNSt6vectorIPN12ILLIXR_AUDIO5SoundESaIS2_EE9push_backERKS2_: # @_ZNSt6vectorIPN12ILLIXR_AUDIO5SoundESaIS2_EE9push_backERKS2_
.Lfunc_begin42:
	.loc	49 1185 0 is_stmt 1     # /usr/lib/gcc/x86_64-linux-gnu/9/../../../../include/c++/9/bits/stl_vector.h:1185:0
	.cfi_startproc
# %bb.0:
	pushq	%r14
	.cfi_def_cfa_offset 16
	pushq	%rbx
	.cfi_def_cfa_offset 24
	pushq	%rax
	.cfi_def_cfa_offset 32
	.cfi_offset %rbx, -24
	.cfi_offset %r14, -16
	#DEBUG_VALUE: push_back:this <- %rdi
	#DEBUG_VALUE: push_back:__x <- %rsi
	movq	%rsi, %r14
	movq	%rdi, %rbx
.Ltmp240:
	#DEBUG_VALUE: push_back:__x <- %r14
	#DEBUG_VALUE: push_back:this <- %rbx
	.loc	49 1186 20 prologue_end # /usr/lib/gcc/x86_64-linux-gnu/9/../../../../include/c++/9/bits/stl_vector.h:1186:20
	movq	8(%rbx), %rsi
	.loc	49 1186 30 is_stmt 0    # /usr/lib/gcc/x86_64-linux-gnu/9/../../../../include/c++/9/bits/stl_vector.h:1186:30
	cmpq	16(%rbx), %rsi
.Ltmp241:
	.loc	49 1186 6               # /usr/lib/gcc/x86_64-linux-gnu/9/../../../../include/c++/9/bits/stl_vector.h:1186:6
	je	.LBB42_2
.Ltmp242:
# %bb.1:
	#DEBUG_VALUE: push_back:this <- %rbx
	#DEBUG_VALUE: push_back:__x <- %r14
	.loc	49 1189 6 is_stmt 1     # /usr/lib/gcc/x86_64-linux-gnu/9/../../../../include/c++/9/bits/stl_vector.h:1189:6
	movq	%rbx, %rdi
	movq	%r14, %rdx
	callq	_ZNSt16allocator_traitsISaIPN12ILLIXR_AUDIO5SoundEEE9constructIS2_JRKS2_EEEvRS3_PT_DpOT0_
	.loc	49 1191 6               # /usr/lib/gcc/x86_64-linux-gnu/9/../../../../include/c++/9/bits/stl_vector.h:1191:6
	addq	$8, 8(%rbx)
.Ltmp243:
	.loc	49 1196 7               # /usr/lib/gcc/x86_64-linux-gnu/9/../../../../include/c++/9/bits/stl_vector.h:1196:7
	addq	$8, %rsp
	popq	%rbx
.Ltmp244:
	popq	%r14
.Ltmp245:
	retq
.LBB42_2:
.Ltmp246:
	#DEBUG_VALUE: push_back:this <- %rbx
	#DEBUG_VALUE: push_back:__x <- %r14
	.loc	49 1195 22              # /usr/lib/gcc/x86_64-linux-gnu/9/../../../../include/c++/9/bits/stl_vector.h:1195:22
	movq	%rbx, %rdi
	callq	_ZNSt6vectorIPN12ILLIXR_AUDIO5SoundESaIS2_EE3endEv
	.loc	49 1195 4 is_stmt 0     # /usr/lib/gcc/x86_64-linux-gnu/9/../../../../include/c++/9/bits/stl_vector.h:1195:4
	movq	%rbx, %rdi
	movq	%rax, %rsi
	movq	%r14, %rdx
	addq	$8, %rsp
	popq	%rbx
.Ltmp247:
	popq	%r14
.Ltmp248:
	jmp	_ZNSt6vectorIPN12ILLIXR_AUDIO5SoundESaIS2_EE17_M_realloc_insertIJRKS2_EEEvN9__gnu_cxx17__normal_iteratorIPS2_S4_EEDpOT_ # TAILCALL
.Ltmp249:
.Lfunc_end42:
	.size	_ZNSt6vectorIPN12ILLIXR_AUDIO5SoundESaIS2_EE9push_backERKS2_, .Lfunc_end42-_ZNSt6vectorIPN12ILLIXR_AUDIO5SoundESaIS2_EE9push_backERKS2_
	.cfi_endproc
                                        # -- End function
	.section	.text._ZNSt16allocator_traitsISaIPN12ILLIXR_AUDIO5SoundEEE9constructIS2_JRKS2_EEEvRS3_PT_DpOT0_,"axG",@progbits,_ZNSt16allocator_traitsISaIPN12ILLIXR_AUDIO5SoundEEE9constructIS2_JRKS2_EEEvRS3_PT_DpOT0_,comdat
	.weak	_ZNSt16allocator_traitsISaIPN12ILLIXR_AUDIO5SoundEEE9constructIS2_JRKS2_EEEvRS3_PT_DpOT0_ # -- Begin function _ZNSt16allocator_traitsISaIPN12ILLIXR_AUDIO5SoundEEE9constructIS2_JRKS2_EEEvRS3_PT_DpOT0_
	.p2align	4, 0x90
	.type	_ZNSt16allocator_traitsISaIPN12ILLIXR_AUDIO5SoundEEE9constructIS2_JRKS2_EEEvRS3_PT_DpOT0_,@function
_ZNSt16allocator_traitsISaIPN12ILLIXR_AUDIO5SoundEEE9constructIS2_JRKS2_EEEvRS3_PT_DpOT0_: # @_ZNSt16allocator_traitsISaIPN12ILLIXR_AUDIO5SoundEEE9constructIS2_JRKS2_EEEvRS3_PT_DpOT0_
.Lfunc_begin43:
	.loc	41 484 0 is_stmt 1      # /usr/lib/gcc/x86_64-linux-gnu/9/../../../../include/c++/9/bits/alloc_traits.h:484:0
	.cfi_startproc
# %bb.0:
	pushq	%r14
	.cfi_def_cfa_offset 16
	pushq	%rbx
	.cfi_def_cfa_offset 24
	pushq	%rax
	.cfi_def_cfa_offset 32
	.cfi_offset %rbx, -24
	.cfi_offset %r14, -16
	#DEBUG_VALUE: construct<ILLIXR_AUDIO::Sound *, ILLIXR_AUDIO::Sound *const &>:__a <- %rdi
	#DEBUG_VALUE: construct<ILLIXR_AUDIO::Sound *, ILLIXR_AUDIO::Sound *const &>:__p <- %rsi
	#DEBUG_VALUE: construct<ILLIXR_AUDIO::Sound *, ILLIXR_AUDIO::Sound *const &>:__args <- %rdx
	movq	%rsi, %r14
	movq	%rdi, %rbx
	#DEBUG_VALUE: construct<ILLIXR_AUDIO::Sound *, ILLIXR_AUDIO::Sound *const &>:__args <- %rdx
.Ltmp250:
	#DEBUG_VALUE: construct<ILLIXR_AUDIO::Sound *, ILLIXR_AUDIO::Sound *const &>:__p <- %r14
	#DEBUG_VALUE: construct<ILLIXR_AUDIO::Sound *, ILLIXR_AUDIO::Sound *const &>:__a <- %rbx
	.loc	41 484 23 prologue_end  # /usr/lib/gcc/x86_64-linux-gnu/9/../../../../include/c++/9/bits/alloc_traits.h:484:23
	movq	%rdx, %rdi
.Ltmp251:
	#DEBUG_VALUE: construct<ILLIXR_AUDIO::Sound *, ILLIXR_AUDIO::Sound *const &>:__args <- %rdi
	callq	_ZSt7forwardIRKPN12ILLIXR_AUDIO5SoundEEOT_RNSt16remove_referenceIS5_E4typeE
.Ltmp252:
	.loc	41 484 8 is_stmt 0      # /usr/lib/gcc/x86_64-linux-gnu/9/../../../../include/c++/9/bits/alloc_traits.h:484:8
	movq	%rbx, %rdi
.Ltmp253:
	#DEBUG_VALUE: construct<ILLIXR_AUDIO::Sound *, ILLIXR_AUDIO::Sound *const &>:__a <- %rdi
	movq	%r14, %rsi
.Ltmp254:
	#DEBUG_VALUE: construct<ILLIXR_AUDIO::Sound *, ILLIXR_AUDIO::Sound *const &>:__p <- %rsi
	movq	%rax, %rdx
	addq	$8, %rsp
	popq	%rbx
	popq	%r14
	jmp	_ZN9__gnu_cxx13new_allocatorIPN12ILLIXR_AUDIO5SoundEE9constructIS3_JRKS3_EEEvPT_DpOT0_ # TAILCALL
.Ltmp255:
.Lfunc_end43:
	.size	_ZNSt16allocator_traitsISaIPN12ILLIXR_AUDIO5SoundEEE9constructIS2_JRKS2_EEEvRS3_PT_DpOT0_, .Lfunc_end43-_ZNSt16allocator_traitsISaIPN12ILLIXR_AUDIO5SoundEEE9constructIS2_JRKS2_EEEvRS3_PT_DpOT0_
	.cfi_endproc
                                        # -- End function
	.section	.text._ZNSt6vectorIPN12ILLIXR_AUDIO5SoundESaIS2_EE3endEv,"axG",@progbits,_ZNSt6vectorIPN12ILLIXR_AUDIO5SoundESaIS2_EE3endEv,comdat
	.weak	_ZNSt6vectorIPN12ILLIXR_AUDIO5SoundESaIS2_EE3endEv # -- Begin function _ZNSt6vectorIPN12ILLIXR_AUDIO5SoundESaIS2_EE3endEv
	.p2align	4, 0x90
	.type	_ZNSt6vectorIPN12ILLIXR_AUDIO5SoundESaIS2_EE3endEv,@function
_ZNSt6vectorIPN12ILLIXR_AUDIO5SoundESaIS2_EE3endEv: # @_ZNSt6vectorIPN12ILLIXR_AUDIO5SoundESaIS2_EE3endEv
.Lfunc_begin44:
	.loc	49 827 0 is_stmt 1      # /usr/lib/gcc/x86_64-linux-gnu/9/../../../../include/c++/9/bits/stl_vector.h:827:0
	.cfi_startproc
# %bb.0:
	.loc	49 827 39 prologue_end  # /usr/lib/gcc/x86_64-linux-gnu/9/../../../../include/c++/9/bits/stl_vector.h:827:39
	pushq	%rax
	.cfi_def_cfa_offset 16
	#DEBUG_VALUE: end:this <- %rdi
	#DEBUG_VALUE: end:this <- %rdi
	leaq	8(%rdi), %rsi
	movq	%rsp, %rdi
.Ltmp256:
	.loc	49 827 16 is_stmt 0     # /usr/lib/gcc/x86_64-linux-gnu/9/../../../../include/c++/9/bits/stl_vector.h:827:16
	callq	_ZN9__gnu_cxx17__normal_iteratorIPPN12ILLIXR_AUDIO5SoundESt6vectorIS3_SaIS3_EEEC2ERKS4_
	.loc	49 827 9                # /usr/lib/gcc/x86_64-linux-gnu/9/../../../../include/c++/9/bits/stl_vector.h:827:9
	movq	(%rsp), %rax
	popq	%rcx
	retq
.Ltmp257:
.Lfunc_end44:
	.size	_ZNSt6vectorIPN12ILLIXR_AUDIO5SoundESaIS2_EE3endEv, .Lfunc_end44-_ZNSt6vectorIPN12ILLIXR_AUDIO5SoundESaIS2_EE3endEv
	.cfi_endproc
                                        # -- End function
	.section	.text._ZNSt6vectorIPN12ILLIXR_AUDIO5SoundESaIS2_EE17_M_realloc_insertIJRKS2_EEEvN9__gnu_cxx17__normal_iteratorIPS2_S4_EEDpOT_,"axG",@progbits,_ZNSt6vectorIPN12ILLIXR_AUDIO5SoundESaIS2_EE17_M_realloc_insertIJRKS2_EEEvN9__gnu_cxx17__normal_iteratorIPS2_S4_EEDpOT_,comdat
	.weak	_ZNSt6vectorIPN12ILLIXR_AUDIO5SoundESaIS2_EE17_M_realloc_insertIJRKS2_EEEvN9__gnu_cxx17__normal_iteratorIPS2_S4_EEDpOT_ # -- Begin function _ZNSt6vectorIPN12ILLIXR_AUDIO5SoundESaIS2_EE17_M_realloc_insertIJRKS2_EEEvN9__gnu_cxx17__normal_iteratorIPS2_S4_EEDpOT_
	.p2align	4, 0x90
	.type	_ZNSt6vectorIPN12ILLIXR_AUDIO5SoundESaIS2_EE17_M_realloc_insertIJRKS2_EEEvN9__gnu_cxx17__normal_iteratorIPS2_S4_EEDpOT_,@function
_ZNSt6vectorIPN12ILLIXR_AUDIO5SoundESaIS2_EE17_M_realloc_insertIJRKS2_EEEvN9__gnu_cxx17__normal_iteratorIPS2_S4_EEDpOT_: # @_ZNSt6vectorIPN12ILLIXR_AUDIO5SoundESaIS2_EE17_M_realloc_insertIJRKS2_EEEvN9__gnu_cxx17__normal_iteratorIPS2_S4_EEDpOT_
.Lfunc_begin45:
	.file	71 "/usr/lib/gcc/x86_64-linux-gnu/9/../../../../include/c++/9/bits/vector.tcc"
	.loc	71 434 0 is_stmt 1      # /usr/lib/gcc/x86_64-linux-gnu/9/../../../../include/c++/9/bits/vector.tcc:434:0
	.cfi_startproc
# %bb.0:
	pushq	%rbp
	.cfi_def_cfa_offset 16
	pushq	%r15
	.cfi_def_cfa_offset 24
	pushq	%r14
	.cfi_def_cfa_offset 32
	pushq	%r13
	.cfi_def_cfa_offset 40
	pushq	%r12
	.cfi_def_cfa_offset 48
	pushq	%rbx
	.cfi_def_cfa_offset 56
	subq	$40, %rsp
	.cfi_def_cfa_offset 96
	.cfi_offset %rbx, -56
	.cfi_offset %r12, -48
	.cfi_offset %r13, -40
	.cfi_offset %r14, -32
	.cfi_offset %r15, -24
	.cfi_offset %rbp, -16
	#DEBUG_VALUE: _M_realloc_insert<ILLIXR_AUDIO::Sound *const &>:this <- %rdi
	#DEBUG_VALUE: _M_realloc_insert<ILLIXR_AUDIO::Sound *const &>:__args <- %rdx
	movq	%rdx, %r12
	movq	%rdi, %rbx
	movq	%rsi, 8(%rsp)
.Ltmp258:
	#DEBUG_VALUE: _M_realloc_insert<ILLIXR_AUDIO::Sound *const &>:__args <- %r12
	#DEBUG_VALUE: _M_realloc_insert<ILLIXR_AUDIO::Sound *const &>:this <- %rbx
	.loc	71 436 2 prologue_end   # /usr/lib/gcc/x86_64-linux-gnu/9/../../../../include/c++/9/bits/vector.tcc:436:2
	movl	$1, %esi
	movl	$.L.str.5, %edx
	callq	_ZNKSt6vectorIPN12ILLIXR_AUDIO5SoundESaIS2_EE12_M_check_lenEmPKc
	movq	%rax, %rbp
.Ltmp259:
	#DEBUG_VALUE: _M_realloc_insert<ILLIXR_AUDIO::Sound *const &>:__len <- %rbp
	.loc	71 437 43               # /usr/lib/gcc/x86_64-linux-gnu/9/../../../../include/c++/9/bits/vector.tcc:437:43
	movq	%rbp, 24(%rsp)          # 8-byte Spill
	movq	(%rbx), %r15
.Ltmp260:
	#DEBUG_VALUE: _M_realloc_insert<ILLIXR_AUDIO::Sound *const &>:__old_start <- %r15
	.loc	71 438 44               # /usr/lib/gcc/x86_64-linux-gnu/9/../../../../include/c++/9/bits/vector.tcc:438:44
	movq	8(%rbx), %rax
.Ltmp261:
	#DEBUG_VALUE: _M_realloc_insert<ILLIXR_AUDIO::Sound *const &>:__old_finish <- [DW_OP_plus_uconst 16] [%rsp+0]
	.loc	71 439 53               # /usr/lib/gcc/x86_64-linux-gnu/9/../../../../include/c++/9/bits/vector.tcc:439:53
	movq	%rax, 16(%rsp)          # 8-byte Spill
	movq	%rbx, %rdi
	callq	_ZNSt6vectorIPN12ILLIXR_AUDIO5SoundESaIS2_EE5beginEv
	movq	%rax, 32(%rsp)
	leaq	8(%rsp), %rdi
	#DEBUG_VALUE: _M_realloc_insert<ILLIXR_AUDIO::Sound *const &>:__position <- [DW_OP_plus_uconst 8] [%rsp+0]
	leaq	32(%rsp), %rsi
	.loc	71 439 51 is_stmt 0     # /usr/lib/gcc/x86_64-linux-gnu/9/../../../../include/c++/9/bits/vector.tcc:439:51
	callq	_ZN9__gnu_cxxmiIPPN12ILLIXR_AUDIO5SoundESt6vectorIS3_SaIS3_EEEENS_17__normal_iteratorIT_T0_E15difference_typeERKSB_SE_
	movq	%rax, %r14
.Ltmp262:
	#DEBUG_VALUE: _M_realloc_insert<ILLIXR_AUDIO::Sound *const &>:__elems_before <- %r14
	.loc	71 440 33 is_stmt 1     # /usr/lib/gcc/x86_64-linux-gnu/9/../../../../include/c++/9/bits/vector.tcc:440:33
	movq	%rbx, %rdi
	movq	%rbp, %rsi
.Ltmp263:
	#DEBUG_VALUE: _M_realloc_insert<ILLIXR_AUDIO::Sound *const &>:__len <- [DW_OP_plus_uconst 24] [%rsp+0]
	callq	_ZNSt12_Vector_baseIPN12ILLIXR_AUDIO5SoundESaIS2_EE11_M_allocateEm
	movq	%rax, %r13
.Ltmp264:
	#DEBUG_VALUE: _M_realloc_insert<ILLIXR_AUDIO::Sound *const &>:__new_finish <- %r13
	#DEBUG_VALUE: _M_realloc_insert<ILLIXR_AUDIO::Sound *const &>:__new_start <- %r13
	.loc	71 450 20               # /usr/lib/gcc/x86_64-linux-gnu/9/../../../../include/c++/9/bits/vector.tcc:450:20
	leaq	(,%r14,8), %rbp
	addq	%r13, %rbp
	.loc	71 452 8                # /usr/lib/gcc/x86_64-linux-gnu/9/../../../../include/c++/9/bits/vector.tcc:452:8
	movq	%r12, %rdi
.Ltmp265:
	#DEBUG_VALUE: _M_realloc_insert<ILLIXR_AUDIO::Sound *const &>:__args <- %rdi
	callq	_ZSt7forwardIRKPN12ILLIXR_AUDIO5SoundEEOT_RNSt16remove_referenceIS5_E4typeE
.Ltmp266:
	.loc	71 449 4                # /usr/lib/gcc/x86_64-linux-gnu/9/../../../../include/c++/9/bits/vector.tcc:449:4
	movq	%rbx, %rdi
	movq	%rbp, %rsi
	movq	%rax, %rdx
	callq	_ZNSt16allocator_traitsISaIPN12ILLIXR_AUDIO5SoundEEE9constructIS2_JRKS2_EEEvRS3_PT_DpOT0_
.Ltmp267:
	.loc	71 461 59               # /usr/lib/gcc/x86_64-linux-gnu/9/../../../../include/c++/9/bits/vector.tcc:461:59
	leaq	8(%rsp), %rdi
	callq	_ZNK9__gnu_cxx17__normal_iteratorIPPN12ILLIXR_AUDIO5SoundESt6vectorIS3_SaIS3_EEE4baseEv
	movq	(%rax), %rbp
	.loc	71 462 20               # /usr/lib/gcc/x86_64-linux-gnu/9/../../../../include/c++/9/bits/vector.tcc:462:20
	movq	%rbx, %rdi
	callq	_ZNSt12_Vector_baseIPN12ILLIXR_AUDIO5SoundESaIS2_EE19_M_get_Tp_allocatorEv
	.loc	71 461 23               # /usr/lib/gcc/x86_64-linux-gnu/9/../../../../include/c++/9/bits/vector.tcc:461:23
	movq	%r15, %rdi
	movq	%rbp, %rsi
	movq	%r13, %rdx
	movq	%rax, %rcx
	callq	_ZNSt6vectorIPN12ILLIXR_AUDIO5SoundESaIS2_EE11_S_relocateEPS2_S5_S5_RS3_
.Ltmp268:
	#DEBUG_VALUE: _M_realloc_insert<ILLIXR_AUDIO::Sound *const &>:__new_finish <- %rax
	.loc	71 464 8                # /usr/lib/gcc/x86_64-linux-gnu/9/../../../../include/c++/9/bits/vector.tcc:464:8
	leaq	8(%rax), %r14
.Ltmp269:
	#DEBUG_VALUE: _M_realloc_insert<ILLIXR_AUDIO::Sound *const &>:__new_finish <- %r14
	.loc	71 466 46               # /usr/lib/gcc/x86_64-linux-gnu/9/../../../../include/c++/9/bits/vector.tcc:466:46
	leaq	8(%rsp), %rdi
	callq	_ZNK9__gnu_cxx17__normal_iteratorIPPN12ILLIXR_AUDIO5SoundESt6vectorIS3_SaIS3_EEE4baseEv
	movq	(%rax), %rbp
	.loc	71 467 21               # /usr/lib/gcc/x86_64-linux-gnu/9/../../../../include/c++/9/bits/vector.tcc:467:21
	movq	%rbx, %rdi
	callq	_ZNSt12_Vector_baseIPN12ILLIXR_AUDIO5SoundESaIS2_EE19_M_get_Tp_allocatorEv
	.loc	71 466 23               # /usr/lib/gcc/x86_64-linux-gnu/9/../../../../include/c++/9/bits/vector.tcc:466:23
	movq	%rbp, %rdi
	movq	16(%rsp), %rsi          # 8-byte Reload
	movq	%r14, %rdx
	movq	%rax, %rcx
	callq	_ZNSt6vectorIPN12ILLIXR_AUDIO5SoundESaIS2_EE11_S_relocateEPS2_S5_S5_RS3_
	movq	%rax, %rbp
.Ltmp270:
	#DEBUG_VALUE: _M_realloc_insert<ILLIXR_AUDIO::Sound *const &>:__new_finish <- %rbp
	.loc	71 501 21               # /usr/lib/gcc/x86_64-linux-gnu/9/../../../../include/c++/9/bits/vector.tcc:501:21
	movq	16(%rbx), %rdx
	.loc	71 501 39 is_stmt 0     # /usr/lib/gcc/x86_64-linux-gnu/9/../../../../include/c++/9/bits/vector.tcc:501:39
	subq	%r15, %rdx
	sarq	$3, %rdx
	.loc	71 500 7 is_stmt 1      # /usr/lib/gcc/x86_64-linux-gnu/9/../../../../include/c++/9/bits/vector.tcc:500:7
	movq	%rbx, %rdi
	movq	%r15, %rsi
	callq	_ZNSt12_Vector_baseIPN12ILLIXR_AUDIO5SoundESaIS2_EE13_M_deallocateEPS2_m
	.loc	71 502 30               # /usr/lib/gcc/x86_64-linux-gnu/9/../../../../include/c++/9/bits/vector.tcc:502:30
	movq	%r13, (%rbx)
	.loc	71 503 31               # /usr/lib/gcc/x86_64-linux-gnu/9/../../../../include/c++/9/bits/vector.tcc:503:31
	movq	%rbp, 8(%rbx)
	.loc	71 504 53               # /usr/lib/gcc/x86_64-linux-gnu/9/../../../../include/c++/9/bits/vector.tcc:504:53
	movq	24(%rsp), %rax          # 8-byte Reload
	leaq	(,%rax,8), %rax
	addq	%r13, %rax
	.loc	71 504 39 is_stmt 0     # /usr/lib/gcc/x86_64-linux-gnu/9/../../../../include/c++/9/bits/vector.tcc:504:39
	movq	%rax, 16(%rbx)
	.loc	71 505 5 is_stmt 1      # /usr/lib/gcc/x86_64-linux-gnu/9/../../../../include/c++/9/bits/vector.tcc:505:5
	addq	$40, %rsp
.Ltmp271:
	popq	%rbx
.Ltmp272:
	popq	%r12
	popq	%r13
.Ltmp273:
	popq	%r14
	popq	%r15
.Ltmp274:
	popq	%rbp
.Ltmp275:
	retq
.Ltmp276:
.Lfunc_end45:
	.size	_ZNSt6vectorIPN12ILLIXR_AUDIO5SoundESaIS2_EE17_M_realloc_insertIJRKS2_EEEvN9__gnu_cxx17__normal_iteratorIPS2_S4_EEDpOT_, .Lfunc_end45-_ZNSt6vectorIPN12ILLIXR_AUDIO5SoundESaIS2_EE17_M_realloc_insertIJRKS2_EEEvN9__gnu_cxx17__normal_iteratorIPS2_S4_EEDpOT_
	.cfi_endproc
                                        # -- End function
	.section	.text._ZNKSt6vectorIPN12ILLIXR_AUDIO5SoundESaIS2_EE12_M_check_lenEmPKc,"axG",@progbits,_ZNKSt6vectorIPN12ILLIXR_AUDIO5SoundESaIS2_EE12_M_check_lenEmPKc,comdat
	.weak	_ZNKSt6vectorIPN12ILLIXR_AUDIO5SoundESaIS2_EE12_M_check_lenEmPKc # -- Begin function _ZNKSt6vectorIPN12ILLIXR_AUDIO5SoundESaIS2_EE12_M_check_lenEmPKc
	.p2align	4, 0x90
	.type	_ZNKSt6vectorIPN12ILLIXR_AUDIO5SoundESaIS2_EE12_M_check_lenEmPKc,@function
_ZNKSt6vectorIPN12ILLIXR_AUDIO5SoundESaIS2_EE12_M_check_lenEmPKc: # @_ZNKSt6vectorIPN12ILLIXR_AUDIO5SoundESaIS2_EE12_M_check_lenEmPKc
.Lfunc_begin46:
	.loc	49 1754 0               # /usr/lib/gcc/x86_64-linux-gnu/9/../../../../include/c++/9/bits/stl_vector.h:1754:0
	.cfi_startproc
# %bb.0:
	pushq	%r15
	.cfi_def_cfa_offset 16
	pushq	%r14
	.cfi_def_cfa_offset 24
	pushq	%r12
	.cfi_def_cfa_offset 32
	pushq	%rbx
	.cfi_def_cfa_offset 40
	subq	$24, %rsp
	.cfi_def_cfa_offset 64
	.cfi_offset %rbx, -40
	.cfi_offset %r12, -32
	.cfi_offset %r14, -24
	.cfi_offset %r15, -16
	#DEBUG_VALUE: _M_check_len:this <- %rdi
	#DEBUG_VALUE: _M_check_len:__n <- %rsi
	#DEBUG_VALUE: _M_check_len:__s <- %rdx
	movq	%rdx, %r15
	movq	%rsi, %r12
	movq	%rdi, %r14
	movq	%r12, 16(%rsp)
.Ltmp277:
	#DEBUG_VALUE: _M_check_len:__s <- %r15
	#DEBUG_VALUE: _M_check_len:__n <- %r12
	#DEBUG_VALUE: _M_check_len:this <- %r14
	.loc	49 1755 6 prologue_end  # /usr/lib/gcc/x86_64-linux-gnu/9/../../../../include/c++/9/bits/stl_vector.h:1755:6
	callq	_ZNKSt6vectorIPN12ILLIXR_AUDIO5SoundESaIS2_EE8max_sizeEv
	movq	%rax, %rbx
	.loc	49 1755 19 is_stmt 0    # /usr/lib/gcc/x86_64-linux-gnu/9/../../../../include/c++/9/bits/stl_vector.h:1755:19
	movq	%r14, %rdi
	callq	_ZNKSt6vectorIPN12ILLIXR_AUDIO5SoundESaIS2_EE4sizeEv
	.loc	49 1755 17              # /usr/lib/gcc/x86_64-linux-gnu/9/../../../../include/c++/9/bits/stl_vector.h:1755:17
	subq	%rax, %rbx
	.loc	49 1755 26              # /usr/lib/gcc/x86_64-linux-gnu/9/../../../../include/c++/9/bits/stl_vector.h:1755:26
	cmpq	%r12, %rbx
.Ltmp278:
	.loc	49 1755 6               # /usr/lib/gcc/x86_64-linux-gnu/9/../../../../include/c++/9/bits/stl_vector.h:1755:6
	jb	.LBB46_5
.Ltmp279:
# %bb.1:
	#DEBUG_VALUE: _M_check_len:this <- %r14
	#DEBUG_VALUE: _M_check_len:__n <- %r12
	#DEBUG_VALUE: _M_check_len:__s <- %r15
	.loc	49 1758 26 is_stmt 1    # /usr/lib/gcc/x86_64-linux-gnu/9/../../../../include/c++/9/bits/stl_vector.h:1758:26
	movq	%r14, %rdi
	callq	_ZNKSt6vectorIPN12ILLIXR_AUDIO5SoundESaIS2_EE4sizeEv
	movq	%rax, %rbx
	.loc	49 1758 46 is_stmt 0    # /usr/lib/gcc/x86_64-linux-gnu/9/../../../../include/c++/9/bits/stl_vector.h:1758:46
	movq	%r14, %rdi
	callq	_ZNKSt6vectorIPN12ILLIXR_AUDIO5SoundESaIS2_EE4sizeEv
	movq	%rax, 8(%rsp)
	leaq	8(%rsp), %rdi
	leaq	16(%rsp), %rsi
.Ltmp280:
	#DEBUG_VALUE: _M_check_len:__n <- [DW_OP_plus_uconst 16] [%rsp+0]
	.loc	49 1758 35              # /usr/lib/gcc/x86_64-linux-gnu/9/../../../../include/c++/9/bits/stl_vector.h:1758:35
	callq	_ZSt3maxImERKT_S2_S2_
	.loc	49 1758 33              # /usr/lib/gcc/x86_64-linux-gnu/9/../../../../include/c++/9/bits/stl_vector.h:1758:33
	addq	(%rax), %rbx
.Ltmp281:
	#DEBUG_VALUE: _M_check_len:__len <- %rbx
	.loc	49 1759 18 is_stmt 1    # /usr/lib/gcc/x86_64-linux-gnu/9/../../../../include/c++/9/bits/stl_vector.h:1759:18
	movq	%r14, %rdi
	callq	_ZNKSt6vectorIPN12ILLIXR_AUDIO5SoundESaIS2_EE4sizeEv
	.loc	49 1759 16 is_stmt 0    # /usr/lib/gcc/x86_64-linux-gnu/9/../../../../include/c++/9/bits/stl_vector.h:1759:16
	cmpq	%rax, %rbx
	.loc	49 1759 25              # /usr/lib/gcc/x86_64-linux-gnu/9/../../../../include/c++/9/bits/stl_vector.h:1759:25
	jb	.LBB46_3
.Ltmp282:
# %bb.2:
	#DEBUG_VALUE: _M_check_len:__len <- %rbx
	#DEBUG_VALUE: _M_check_len:__n <- [DW_OP_plus_uconst 16] [%rsp+0]
	#DEBUG_VALUE: _M_check_len:this <- %r14
	#DEBUG_VALUE: _M_check_len:__s <- %r15
	.loc	49 1759 36              # /usr/lib/gcc/x86_64-linux-gnu/9/../../../../include/c++/9/bits/stl_vector.h:1759:36
	movq	%r14, %rdi
	callq	_ZNKSt6vectorIPN12ILLIXR_AUDIO5SoundESaIS2_EE8max_sizeEv
	.loc	49 1759 34              # /usr/lib/gcc/x86_64-linux-gnu/9/../../../../include/c++/9/bits/stl_vector.h:1759:34
	cmpq	%rax, %rbx
	.loc	49 1759 9               # /usr/lib/gcc/x86_64-linux-gnu/9/../../../../include/c++/9/bits/stl_vector.h:1759:9
	jbe	.LBB46_4
.Ltmp283:
.LBB46_3:
	#DEBUG_VALUE: _M_check_len:__len <- %rbx
	#DEBUG_VALUE: _M_check_len:__n <- [DW_OP_plus_uconst 16] [%rsp+0]
	#DEBUG_VALUE: _M_check_len:this <- %r14
	#DEBUG_VALUE: _M_check_len:__s <- %r15
	.loc	49 1759 50              # /usr/lib/gcc/x86_64-linux-gnu/9/../../../../include/c++/9/bits/stl_vector.h:1759:50
	movq	%r14, %rdi
	callq	_ZNKSt6vectorIPN12ILLIXR_AUDIO5SoundESaIS2_EE8max_sizeEv
	movq	%rax, %rbx
.Ltmp284:
.LBB46_4:
	#DEBUG_VALUE: _M_check_len:__n <- [DW_OP_plus_uconst 16] [%rsp+0]
	#DEBUG_VALUE: _M_check_len:this <- %r14
	#DEBUG_VALUE: _M_check_len:__s <- %r15
	.loc	49 1759 2               # /usr/lib/gcc/x86_64-linux-gnu/9/../../../../include/c++/9/bits/stl_vector.h:1759:2
	movq	%rbx, %rax
	addq	$24, %rsp
.Ltmp285:
	popq	%rbx
	popq	%r12
	popq	%r14
.Ltmp286:
	popq	%r15
.Ltmp287:
	retq
.LBB46_5:
.Ltmp288:
	#DEBUG_VALUE: _M_check_len:this <- %r14
	#DEBUG_VALUE: _M_check_len:__n <- %r12
	#DEBUG_VALUE: _M_check_len:__s <- %r15
	.loc	49 1756 4 is_stmt 1     # /usr/lib/gcc/x86_64-linux-gnu/9/../../../../include/c++/9/bits/stl_vector.h:1756:4
	movq	%r15, %rdi
	callq	_ZSt20__throw_length_errorPKc
.Ltmp289:
.Lfunc_end46:
	.size	_ZNKSt6vectorIPN12ILLIXR_AUDIO5SoundESaIS2_EE12_M_check_lenEmPKc, .Lfunc_end46-_ZNKSt6vectorIPN12ILLIXR_AUDIO5SoundESaIS2_EE12_M_check_lenEmPKc
	.cfi_endproc
                                        # -- End function
	.section	.text._ZNSt6vectorIPN12ILLIXR_AUDIO5SoundESaIS2_EE5beginEv,"axG",@progbits,_ZNSt6vectorIPN12ILLIXR_AUDIO5SoundESaIS2_EE5beginEv,comdat
	.weak	_ZNSt6vectorIPN12ILLIXR_AUDIO5SoundESaIS2_EE5beginEv # -- Begin function _ZNSt6vectorIPN12ILLIXR_AUDIO5SoundESaIS2_EE5beginEv
	.p2align	4, 0x90
	.type	_ZNSt6vectorIPN12ILLIXR_AUDIO5SoundESaIS2_EE5beginEv,@function
_ZNSt6vectorIPN12ILLIXR_AUDIO5SoundESaIS2_EE5beginEv: # @_ZNSt6vectorIPN12ILLIXR_AUDIO5SoundESaIS2_EE5beginEv
.Lfunc_begin47:
	.loc	49 809 0                # /usr/lib/gcc/x86_64-linux-gnu/9/../../../../include/c++/9/bits/stl_vector.h:809:0
	.cfi_startproc
# %bb.0:
	pushq	%rax
	.cfi_def_cfa_offset 16
	#DEBUG_VALUE: begin:this <- %rdi
	movq	%rdi, %rax
.Ltmp290:
	#DEBUG_VALUE: begin:this <- %rax
	movq	%rsp, %rdi
.Ltmp291:
	.loc	49 809 16 prologue_end  # /usr/lib/gcc/x86_64-linux-gnu/9/../../../../include/c++/9/bits/stl_vector.h:809:16
	movq	%rax, %rsi
.Ltmp292:
	#DEBUG_VALUE: begin:this <- %rsi
	callq	_ZN9__gnu_cxx17__normal_iteratorIPPN12ILLIXR_AUDIO5SoundESt6vectorIS3_SaIS3_EEEC2ERKS4_
.Ltmp293:
	.loc	49 809 9 is_stmt 0      # /usr/lib/gcc/x86_64-linux-gnu/9/../../../../include/c++/9/bits/stl_vector.h:809:9
	movq	(%rsp), %rax
	popq	%rcx
	retq
.Ltmp294:
.Lfunc_end47:
	.size	_ZNSt6vectorIPN12ILLIXR_AUDIO5SoundESaIS2_EE5beginEv, .Lfunc_end47-_ZNSt6vectorIPN12ILLIXR_AUDIO5SoundESaIS2_EE5beginEv
	.cfi_endproc
                                        # -- End function
	.section	.text._ZN9__gnu_cxxmiIPPN12ILLIXR_AUDIO5SoundESt6vectorIS3_SaIS3_EEEENS_17__normal_iteratorIT_T0_E15difference_typeERKSB_SE_,"axG",@progbits,_ZN9__gnu_cxxmiIPPN12ILLIXR_AUDIO5SoundESt6vectorIS3_SaIS3_EEEENS_17__normal_iteratorIT_T0_E15difference_typeERKSB_SE_,comdat
	.weak	_ZN9__gnu_cxxmiIPPN12ILLIXR_AUDIO5SoundESt6vectorIS3_SaIS3_EEEENS_17__normal_iteratorIT_T0_E15difference_typeERKSB_SE_ # -- Begin function _ZN9__gnu_cxxmiIPPN12ILLIXR_AUDIO5SoundESt6vectorIS3_SaIS3_EEEENS_17__normal_iteratorIT_T0_E15difference_typeERKSB_SE_
	.p2align	4, 0x90
	.type	_ZN9__gnu_cxxmiIPPN12ILLIXR_AUDIO5SoundESt6vectorIS3_SaIS3_EEEENS_17__normal_iteratorIT_T0_E15difference_typeERKSB_SE_,@function
_ZN9__gnu_cxxmiIPPN12ILLIXR_AUDIO5SoundESt6vectorIS3_SaIS3_EEEENS_17__normal_iteratorIT_T0_E15difference_typeERKSB_SE_: # @_ZN9__gnu_cxxmiIPPN12ILLIXR_AUDIO5SoundESt6vectorIS3_SaIS3_EEEENS_17__normal_iteratorIT_T0_E15difference_typeERKSB_SE_
.Lfunc_begin48:
	.loc	51 992 0 is_stmt 1      # /usr/lib/gcc/x86_64-linux-gnu/9/../../../../include/c++/9/bits/stl_iterator.h:992:0
	.cfi_startproc
# %bb.0:
	pushq	%r14
	.cfi_def_cfa_offset 16
	pushq	%rbx
	.cfi_def_cfa_offset 24
	pushq	%rax
	.cfi_def_cfa_offset 32
	.cfi_offset %rbx, -24
	.cfi_offset %r14, -16
	#DEBUG_VALUE: operator-<ILLIXR_AUDIO::Sound **, std::vector<ILLIXR_AUDIO::Sound *, std::allocator<ILLIXR_AUDIO::Sound *> > >:__lhs <- %rdi
	#DEBUG_VALUE: operator-<ILLIXR_AUDIO::Sound **, std::vector<ILLIXR_AUDIO::Sound *, std::allocator<ILLIXR_AUDIO::Sound *> > >:__rhs <- %rsi
	movq	%rsi, %r14
.Ltmp295:
	#DEBUG_VALUE: operator-<ILLIXR_AUDIO::Sound **, std::vector<ILLIXR_AUDIO::Sound *, std::allocator<ILLIXR_AUDIO::Sound *> > >:__rhs <- %r14
	#DEBUG_VALUE: operator-<ILLIXR_AUDIO::Sound **, std::vector<ILLIXR_AUDIO::Sound *, std::allocator<ILLIXR_AUDIO::Sound *> > >:__lhs <- %rdi
	#DEBUG_VALUE: operator-<ILLIXR_AUDIO::Sound **, std::vector<ILLIXR_AUDIO::Sound *, std::allocator<ILLIXR_AUDIO::Sound *> > >:__lhs <- %rdi
	.loc	51 992 20 prologue_end  # /usr/lib/gcc/x86_64-linux-gnu/9/../../../../include/c++/9/bits/stl_iterator.h:992:20
	callq	_ZNK9__gnu_cxx17__normal_iteratorIPPN12ILLIXR_AUDIO5SoundESt6vectorIS3_SaIS3_EEE4baseEv
.Ltmp296:
	movq	(%rax), %rbx
	.loc	51 992 35 is_stmt 0     # /usr/lib/gcc/x86_64-linux-gnu/9/../../../../include/c++/9/bits/stl_iterator.h:992:35
	movq	%r14, %rdi
.Ltmp297:
	#DEBUG_VALUE: operator-<ILLIXR_AUDIO::Sound **, std::vector<ILLIXR_AUDIO::Sound *, std::allocator<ILLIXR_AUDIO::Sound *> > >:__rhs <- %rdi
	callq	_ZNK9__gnu_cxx17__normal_iteratorIPPN12ILLIXR_AUDIO5SoundESt6vectorIS3_SaIS3_EEE4baseEv
.Ltmp298:
	.loc	51 992 27               # /usr/lib/gcc/x86_64-linux-gnu/9/../../../../include/c++/9/bits/stl_iterator.h:992:27
	subq	(%rax), %rbx
	sarq	$3, %rbx
	.loc	51 992 7                # /usr/lib/gcc/x86_64-linux-gnu/9/../../../../include/c++/9/bits/stl_iterator.h:992:7
	movq	%rbx, %rax
	addq	$8, %rsp
	popq	%rbx
	popq	%r14
	retq
.Ltmp299:
.Lfunc_end48:
	.size	_ZN9__gnu_cxxmiIPPN12ILLIXR_AUDIO5SoundESt6vectorIS3_SaIS3_EEEENS_17__normal_iteratorIT_T0_E15difference_typeERKSB_SE_, .Lfunc_end48-_ZN9__gnu_cxxmiIPPN12ILLIXR_AUDIO5SoundESt6vectorIS3_SaIS3_EEEENS_17__normal_iteratorIT_T0_E15difference_typeERKSB_SE_
	.cfi_endproc
                                        # -- End function
	.section	.text._ZNSt12_Vector_baseIPN12ILLIXR_AUDIO5SoundESaIS2_EE11_M_allocateEm,"axG",@progbits,_ZNSt12_Vector_baseIPN12ILLIXR_AUDIO5SoundESaIS2_EE11_M_allocateEm,comdat
	.weak	_ZNSt12_Vector_baseIPN12ILLIXR_AUDIO5SoundESaIS2_EE11_M_allocateEm # -- Begin function _ZNSt12_Vector_baseIPN12ILLIXR_AUDIO5SoundESaIS2_EE11_M_allocateEm
	.p2align	4, 0x90
	.type	_ZNSt12_Vector_baseIPN12ILLIXR_AUDIO5SoundESaIS2_EE11_M_allocateEm,@function
_ZNSt12_Vector_baseIPN12ILLIXR_AUDIO5SoundESaIS2_EE11_M_allocateEm: # @_ZNSt12_Vector_baseIPN12ILLIXR_AUDIO5SoundESaIS2_EE11_M_allocateEm
.Lfunc_begin49:
	.loc	49 341 0 is_stmt 1      # /usr/lib/gcc/x86_64-linux-gnu/9/../../../../include/c++/9/bits/stl_vector.h:341:0
	.cfi_startproc
# %bb.0:
	#DEBUG_VALUE: _M_allocate:this <- %rdi
	#DEBUG_VALUE: _M_allocate:this <- %rdi
	#DEBUG_VALUE: _M_allocate:__n <- %rsi
	#DEBUG_VALUE: _M_allocate:__n <- %rsi
	.loc	49 343 13 prologue_end  # /usr/lib/gcc/x86_64-linux-gnu/9/../../../../include/c++/9/bits/stl_vector.h:343:13
	testq	%rsi, %rsi
	.loc	49 343 9 is_stmt 0      # /usr/lib/gcc/x86_64-linux-gnu/9/../../../../include/c++/9/bits/stl_vector.h:343:9
	je	.LBB49_1
# %bb.2:
	#DEBUG_VALUE: _M_allocate:__n <- %rsi
	#DEBUG_VALUE: _M_allocate:this <- %rdi
	.loc	49 343 20               # /usr/lib/gcc/x86_64-linux-gnu/9/../../../../include/c++/9/bits/stl_vector.h:343:20
	jmp	_ZNSt16allocator_traitsISaIPN12ILLIXR_AUDIO5SoundEEE8allocateERS3_m # TAILCALL
.LBB49_1:
	#DEBUG_VALUE: _M_allocate:__n <- %rsi
	#DEBUG_VALUE: _M_allocate:this <- %rdi
	.loc	49 343 2                # /usr/lib/gcc/x86_64-linux-gnu/9/../../../../include/c++/9/bits/stl_vector.h:343:2
	xorl	%eax, %eax
	retq
.Ltmp300:
.Lfunc_end49:
	.size	_ZNSt12_Vector_baseIPN12ILLIXR_AUDIO5SoundESaIS2_EE11_M_allocateEm, .Lfunc_end49-_ZNSt12_Vector_baseIPN12ILLIXR_AUDIO5SoundESaIS2_EE11_M_allocateEm
	.cfi_endproc
                                        # -- End function
	.section	.text._ZSt7forwardIRKPN12ILLIXR_AUDIO5SoundEEOT_RNSt16remove_referenceIS5_E4typeE,"axG",@progbits,_ZSt7forwardIRKPN12ILLIXR_AUDIO5SoundEEOT_RNSt16remove_referenceIS5_E4typeE,comdat
	.weak	_ZSt7forwardIRKPN12ILLIXR_AUDIO5SoundEEOT_RNSt16remove_referenceIS5_E4typeE # -- Begin function _ZSt7forwardIRKPN12ILLIXR_AUDIO5SoundEEOT_RNSt16remove_referenceIS5_E4typeE
	.p2align	4, 0x90
	.type	_ZSt7forwardIRKPN12ILLIXR_AUDIO5SoundEEOT_RNSt16remove_referenceIS5_E4typeE,@function
_ZSt7forwardIRKPN12ILLIXR_AUDIO5SoundEEOT_RNSt16remove_referenceIS5_E4typeE: # @_ZSt7forwardIRKPN12ILLIXR_AUDIO5SoundEEOT_RNSt16remove_referenceIS5_E4typeE
.Lfunc_begin50:
	.loc	66 75 0 is_stmt 1       # /usr/lib/gcc/x86_64-linux-gnu/9/../../../../include/c++/9/bits/move.h:75:0
	.cfi_startproc
# %bb.0:
	#DEBUG_VALUE: forward<ILLIXR_AUDIO::Sound *const &>:__t <- %rdi
	#DEBUG_VALUE: forward<ILLIXR_AUDIO::Sound *const &>:__t <- %rdi
	.loc	66 75 7 prologue_end    # /usr/lib/gcc/x86_64-linux-gnu/9/../../../../include/c++/9/bits/move.h:75:7
	movq	%rdi, %rax
.Ltmp301:
	#DEBUG_VALUE: forward<ILLIXR_AUDIO::Sound *const &>:__t <- %rax
	retq
.Ltmp302:
.Lfunc_end50:
	.size	_ZSt7forwardIRKPN12ILLIXR_AUDIO5SoundEEOT_RNSt16remove_referenceIS5_E4typeE, .Lfunc_end50-_ZSt7forwardIRKPN12ILLIXR_AUDIO5SoundEEOT_RNSt16remove_referenceIS5_E4typeE
	.cfi_endproc
                                        # -- End function
	.section	.text._ZNK9__gnu_cxx17__normal_iteratorIPPN12ILLIXR_AUDIO5SoundESt6vectorIS3_SaIS3_EEE4baseEv,"axG",@progbits,_ZNK9__gnu_cxx17__normal_iteratorIPPN12ILLIXR_AUDIO5SoundESt6vectorIS3_SaIS3_EEE4baseEv,comdat
	.weak	_ZNK9__gnu_cxx17__normal_iteratorIPPN12ILLIXR_AUDIO5SoundESt6vectorIS3_SaIS3_EEE4baseEv # -- Begin function _ZNK9__gnu_cxx17__normal_iteratorIPPN12ILLIXR_AUDIO5SoundESt6vectorIS3_SaIS3_EEE4baseEv
	.p2align	4, 0x90
	.type	_ZNK9__gnu_cxx17__normal_iteratorIPPN12ILLIXR_AUDIO5SoundESt6vectorIS3_SaIS3_EEE4baseEv,@function
_ZNK9__gnu_cxx17__normal_iteratorIPPN12ILLIXR_AUDIO5SoundESt6vectorIS3_SaIS3_EEE4baseEv: # @_ZNK9__gnu_cxx17__normal_iteratorIPPN12ILLIXR_AUDIO5SoundESt6vectorIS3_SaIS3_EEE4baseEv
.Lfunc_begin51:
	.loc	51 872 0                # /usr/lib/gcc/x86_64-linux-gnu/9/../../../../include/c++/9/bits/stl_iterator.h:872:0
	.cfi_startproc
# %bb.0:
	#DEBUG_VALUE: base:this <- %rdi
	#DEBUG_VALUE: base:this <- %rdi
	.loc	51 872 9 prologue_end   # /usr/lib/gcc/x86_64-linux-gnu/9/../../../../include/c++/9/bits/stl_iterator.h:872:9
	movq	%rdi, %rax
.Ltmp303:
	#DEBUG_VALUE: base:this <- %rax
	retq
.Ltmp304:
.Lfunc_end51:
	.size	_ZNK9__gnu_cxx17__normal_iteratorIPPN12ILLIXR_AUDIO5SoundESt6vectorIS3_SaIS3_EEE4baseEv, .Lfunc_end51-_ZNK9__gnu_cxx17__normal_iteratorIPPN12ILLIXR_AUDIO5SoundESt6vectorIS3_SaIS3_EEE4baseEv
	.cfi_endproc
                                        # -- End function
	.section	.text._ZNSt12_Vector_baseIPN12ILLIXR_AUDIO5SoundESaIS2_EE19_M_get_Tp_allocatorEv,"axG",@progbits,_ZNSt12_Vector_baseIPN12ILLIXR_AUDIO5SoundESaIS2_EE19_M_get_Tp_allocatorEv,comdat
	.weak	_ZNSt12_Vector_baseIPN12ILLIXR_AUDIO5SoundESaIS2_EE19_M_get_Tp_allocatorEv # -- Begin function _ZNSt12_Vector_baseIPN12ILLIXR_AUDIO5SoundESaIS2_EE19_M_get_Tp_allocatorEv
	.p2align	4, 0x90
	.type	_ZNSt12_Vector_baseIPN12ILLIXR_AUDIO5SoundESaIS2_EE19_M_get_Tp_allocatorEv,@function
_ZNSt12_Vector_baseIPN12ILLIXR_AUDIO5SoundESaIS2_EE19_M_get_Tp_allocatorEv: # @_ZNSt12_Vector_baseIPN12ILLIXR_AUDIO5SoundESaIS2_EE19_M_get_Tp_allocatorEv
.Lfunc_begin52:
	.loc	49 274 0                # /usr/lib/gcc/x86_64-linux-gnu/9/../../../../include/c++/9/bits/stl_vector.h:274:0
	.cfi_startproc
# %bb.0:
	#DEBUG_VALUE: _M_get_Tp_allocator:this <- %rdi
	#DEBUG_VALUE: _M_get_Tp_allocator:this <- %rdi
	.loc	49 274 9 prologue_end   # /usr/lib/gcc/x86_64-linux-gnu/9/../../../../include/c++/9/bits/stl_vector.h:274:9
	movq	%rdi, %rax
.Ltmp305:
	#DEBUG_VALUE: _M_get_Tp_allocator:this <- %rax
	retq
.Ltmp306:
.Lfunc_end52:
	.size	_ZNSt12_Vector_baseIPN12ILLIXR_AUDIO5SoundESaIS2_EE19_M_get_Tp_allocatorEv, .Lfunc_end52-_ZNSt12_Vector_baseIPN12ILLIXR_AUDIO5SoundESaIS2_EE19_M_get_Tp_allocatorEv
	.cfi_endproc
                                        # -- End function
	.section	.text._ZNSt6vectorIPN12ILLIXR_AUDIO5SoundESaIS2_EE11_S_relocateEPS2_S5_S5_RS3_,"axG",@progbits,_ZNSt6vectorIPN12ILLIXR_AUDIO5SoundESaIS2_EE11_S_relocateEPS2_S5_S5_RS3_,comdat
	.weak	_ZNSt6vectorIPN12ILLIXR_AUDIO5SoundESaIS2_EE11_S_relocateEPS2_S5_S5_RS3_ # -- Begin function _ZNSt6vectorIPN12ILLIXR_AUDIO5SoundESaIS2_EE11_S_relocateEPS2_S5_S5_RS3_
	.p2align	4, 0x90
	.type	_ZNSt6vectorIPN12ILLIXR_AUDIO5SoundESaIS2_EE11_S_relocateEPS2_S5_S5_RS3_,@function
_ZNSt6vectorIPN12ILLIXR_AUDIO5SoundESaIS2_EE11_S_relocateEPS2_S5_S5_RS3_: # @_ZNSt6vectorIPN12ILLIXR_AUDIO5SoundESaIS2_EE11_S_relocateEPS2_S5_S5_RS3_
.Lfunc_begin53:
	.loc	49 464 0                # /usr/lib/gcc/x86_64-linux-gnu/9/../../../../include/c++/9/bits/stl_vector.h:464:0
	.cfi_startproc
# %bb.0:
	#DEBUG_VALUE: _S_relocate:__first <- %rdi
	#DEBUG_VALUE: _S_relocate:__first <- %rdi
	#DEBUG_VALUE: _S_relocate:__first <- %rdi
	#DEBUG_VALUE: _S_relocate:__last <- %rsi
	#DEBUG_VALUE: _S_relocate:__last <- %rsi
	#DEBUG_VALUE: _S_relocate:__last <- %rsi
	#DEBUG_VALUE: _S_relocate:__result <- %rdx
	#DEBUG_VALUE: _S_relocate:__result <- %rdx
	#DEBUG_VALUE: _S_relocate:__result <- %rdx
	#DEBUG_VALUE: _S_relocate:__alloc <- %rcx
	#DEBUG_VALUE: _S_relocate:__alloc <- %rcx
	#DEBUG_VALUE: _S_relocate:__alloc <- %rcx
	.loc	49 466 9 prologue_end   # /usr/lib/gcc/x86_64-linux-gnu/9/../../../../include/c++/9/bits/stl_vector.h:466:9
	jmp	_ZNSt6vectorIPN12ILLIXR_AUDIO5SoundESaIS2_EE14_S_do_relocateEPS2_S5_S5_RS3_St17integral_constantIbLb1EE # TAILCALL
.Ltmp307:
.Lfunc_end53:
	.size	_ZNSt6vectorIPN12ILLIXR_AUDIO5SoundESaIS2_EE11_S_relocateEPS2_S5_S5_RS3_, .Lfunc_end53-_ZNSt6vectorIPN12ILLIXR_AUDIO5SoundESaIS2_EE11_S_relocateEPS2_S5_S5_RS3_
	.cfi_endproc
                                        # -- End function
	.section	.text._ZNSt12_Vector_baseIPN12ILLIXR_AUDIO5SoundESaIS2_EE13_M_deallocateEPS2_m,"axG",@progbits,_ZNSt12_Vector_baseIPN12ILLIXR_AUDIO5SoundESaIS2_EE13_M_deallocateEPS2_m,comdat
	.weak	_ZNSt12_Vector_baseIPN12ILLIXR_AUDIO5SoundESaIS2_EE13_M_deallocateEPS2_m # -- Begin function _ZNSt12_Vector_baseIPN12ILLIXR_AUDIO5SoundESaIS2_EE13_M_deallocateEPS2_m
	.p2align	4, 0x90
	.type	_ZNSt12_Vector_baseIPN12ILLIXR_AUDIO5SoundESaIS2_EE13_M_deallocateEPS2_m,@function
_ZNSt12_Vector_baseIPN12ILLIXR_AUDIO5SoundESaIS2_EE13_M_deallocateEPS2_m: # @_ZNSt12_Vector_baseIPN12ILLIXR_AUDIO5SoundESaIS2_EE13_M_deallocateEPS2_m
.Lfunc_begin54:
	.loc	49 348 0                # /usr/lib/gcc/x86_64-linux-gnu/9/../../../../include/c++/9/bits/stl_vector.h:348:0
	.cfi_startproc
# %bb.0:
	#DEBUG_VALUE: _M_deallocate:this <- %rdi
	#DEBUG_VALUE: _M_deallocate:this <- %rdi
	#DEBUG_VALUE: _M_deallocate:__p <- %rsi
	#DEBUG_VALUE: _M_deallocate:__p <- %rsi
	#DEBUG_VALUE: _M_deallocate:__n <- %rdx
	#DEBUG_VALUE: _M_deallocate:__n <- %rdx
	.loc	49 350 6 prologue_end   # /usr/lib/gcc/x86_64-linux-gnu/9/../../../../include/c++/9/bits/stl_vector.h:350:6
	testq	%rsi, %rsi
.Ltmp308:
	.loc	49 350 6 is_stmt 0      # /usr/lib/gcc/x86_64-linux-gnu/9/../../../../include/c++/9/bits/stl_vector.h:350:6
	je	.LBB54_1
# %bb.2:
	#DEBUG_VALUE: _M_deallocate:__n <- %rdx
	#DEBUG_VALUE: _M_deallocate:__p <- %rsi
	#DEBUG_VALUE: _M_deallocate:this <- %rdi
.Ltmp309:
	.loc	49 351 4 is_stmt 1      # /usr/lib/gcc/x86_64-linux-gnu/9/../../../../include/c++/9/bits/stl_vector.h:351:4
	jmp	_ZNSt16allocator_traitsISaIPN12ILLIXR_AUDIO5SoundEEE10deallocateERS3_PS2_m # TAILCALL
.Ltmp310:
.LBB54_1:
	#DEBUG_VALUE: _M_deallocate:__n <- %rdx
	#DEBUG_VALUE: _M_deallocate:__p <- %rsi
	#DEBUG_VALUE: _M_deallocate:this <- %rdi
	.loc	49 352 7                # /usr/lib/gcc/x86_64-linux-gnu/9/../../../../include/c++/9/bits/stl_vector.h:352:7
	retq
.Ltmp311:
.Lfunc_end54:
	.size	_ZNSt12_Vector_baseIPN12ILLIXR_AUDIO5SoundESaIS2_EE13_M_deallocateEPS2_m, .Lfunc_end54-_ZNSt12_Vector_baseIPN12ILLIXR_AUDIO5SoundESaIS2_EE13_M_deallocateEPS2_m
	.cfi_endproc
                                        # -- End function
	.section	.text._ZNSt16allocator_traitsISaIPN12ILLIXR_AUDIO5SoundEEE10deallocateERS3_PS2_m,"axG",@progbits,_ZNSt16allocator_traitsISaIPN12ILLIXR_AUDIO5SoundEEE10deallocateERS3_PS2_m,comdat
	.weak	_ZNSt16allocator_traitsISaIPN12ILLIXR_AUDIO5SoundEEE10deallocateERS3_PS2_m # -- Begin function _ZNSt16allocator_traitsISaIPN12ILLIXR_AUDIO5SoundEEE10deallocateERS3_PS2_m
	.p2align	4, 0x90
	.type	_ZNSt16allocator_traitsISaIPN12ILLIXR_AUDIO5SoundEEE10deallocateERS3_PS2_m,@function
_ZNSt16allocator_traitsISaIPN12ILLIXR_AUDIO5SoundEEE10deallocateERS3_PS2_m: # @_ZNSt16allocator_traitsISaIPN12ILLIXR_AUDIO5SoundEEE10deallocateERS3_PS2_m
.Lfunc_begin55:
	.loc	41 470 0                # /usr/lib/gcc/x86_64-linux-gnu/9/../../../../include/c++/9/bits/alloc_traits.h:470:0
	.cfi_startproc
# %bb.0:
	#DEBUG_VALUE: deallocate:__a <- %rdi
	#DEBUG_VALUE: deallocate:__a <- %rdi
	#DEBUG_VALUE: deallocate:__a <- %rdi
	#DEBUG_VALUE: deallocate:__p <- %rsi
	#DEBUG_VALUE: deallocate:__p <- %rsi
	#DEBUG_VALUE: deallocate:__p <- %rsi
	#DEBUG_VALUE: deallocate:__n <- %rdx
	#DEBUG_VALUE: deallocate:__n <- %rdx
	#DEBUG_VALUE: deallocate:__n <- %rdx
	.loc	41 470 13 prologue_end  # /usr/lib/gcc/x86_64-linux-gnu/9/../../../../include/c++/9/bits/alloc_traits.h:470:13
	jmp	_ZN9__gnu_cxx13new_allocatorIPN12ILLIXR_AUDIO5SoundEE10deallocateEPS3_m # TAILCALL
.Ltmp312:
.Lfunc_end55:
	.size	_ZNSt16allocator_traitsISaIPN12ILLIXR_AUDIO5SoundEEE10deallocateERS3_PS2_m, .Lfunc_end55-_ZNSt16allocator_traitsISaIPN12ILLIXR_AUDIO5SoundEEE10deallocateERS3_PS2_m
	.cfi_endproc
                                        # -- End function
	.section	.text._ZN9__gnu_cxx13new_allocatorIPN12ILLIXR_AUDIO5SoundEE10deallocateEPS3_m,"axG",@progbits,_ZN9__gnu_cxx13new_allocatorIPN12ILLIXR_AUDIO5SoundEE10deallocateEPS3_m,comdat
	.weak	_ZN9__gnu_cxx13new_allocatorIPN12ILLIXR_AUDIO5SoundEE10deallocateEPS3_m # -- Begin function _ZN9__gnu_cxx13new_allocatorIPN12ILLIXR_AUDIO5SoundEE10deallocateEPS3_m
	.p2align	4, 0x90
	.type	_ZN9__gnu_cxx13new_allocatorIPN12ILLIXR_AUDIO5SoundEE10deallocateEPS3_m,@function
_ZN9__gnu_cxx13new_allocatorIPN12ILLIXR_AUDIO5SoundEE10deallocateEPS3_m: # @_ZN9__gnu_cxx13new_allocatorIPN12ILLIXR_AUDIO5SoundEE10deallocateEPS3_m
.Lfunc_begin56:
	.loc	13 120 0                # /usr/lib/gcc/x86_64-linux-gnu/9/../../../../include/c++/9/ext/new_allocator.h:120:0
	.cfi_startproc
# %bb.0:
	#DEBUG_VALUE: deallocate:this <- %rdi
	#DEBUG_VALUE: deallocate:__p <- %rsi
	#DEBUG_VALUE: deallocate:__p <- %rsi
	#DEBUG_VALUE: deallocate: <- %rdx
	.loc	13 128 2 prologue_end   # /usr/lib/gcc/x86_64-linux-gnu/9/../../../../include/c++/9/ext/new_allocator.h:128:2
	movq	%rsi, %rdi
.Ltmp313:
	#DEBUG_VALUE: deallocate:__p <- %rdi
	jmp	_ZdlPv                  # TAILCALL
.Ltmp314:
.Lfunc_end56:
	.size	_ZN9__gnu_cxx13new_allocatorIPN12ILLIXR_AUDIO5SoundEE10deallocateEPS3_m, .Lfunc_end56-_ZN9__gnu_cxx13new_allocatorIPN12ILLIXR_AUDIO5SoundEE10deallocateEPS3_m
	.cfi_endproc
                                        # -- End function
	.section	.text._ZNSt6vectorIPN12ILLIXR_AUDIO5SoundESaIS2_EE14_S_do_relocateEPS2_S5_S5_RS3_St17integral_constantIbLb1EE,"axG",@progbits,_ZNSt6vectorIPN12ILLIXR_AUDIO5SoundESaIS2_EE14_S_do_relocateEPS2_S5_S5_RS3_St17integral_constantIbLb1EE,comdat
	.weak	_ZNSt6vectorIPN12ILLIXR_AUDIO5SoundESaIS2_EE14_S_do_relocateEPS2_S5_S5_RS3_St17integral_constantIbLb1EE # -- Begin function _ZNSt6vectorIPN12ILLIXR_AUDIO5SoundESaIS2_EE14_S_do_relocateEPS2_S5_S5_RS3_St17integral_constantIbLb1EE
	.p2align	4, 0x90
	.type	_ZNSt6vectorIPN12ILLIXR_AUDIO5SoundESaIS2_EE14_S_do_relocateEPS2_S5_S5_RS3_St17integral_constantIbLb1EE,@function
_ZNSt6vectorIPN12ILLIXR_AUDIO5SoundESaIS2_EE14_S_do_relocateEPS2_S5_S5_RS3_St17integral_constantIbLb1EE: # @_ZNSt6vectorIPN12ILLIXR_AUDIO5SoundESaIS2_EE14_S_do_relocateEPS2_S5_S5_RS3_St17integral_constantIbLb1EE
.Lfunc_begin57:
	.loc	49 452 0                # /usr/lib/gcc/x86_64-linux-gnu/9/../../../../include/c++/9/bits/stl_vector.h:452:0
	.cfi_startproc
# %bb.0:
	#DEBUG_VALUE: _S_do_relocate:__first <- %rdi
	#DEBUG_VALUE: _S_do_relocate:__first <- %rdi
	#DEBUG_VALUE: _S_do_relocate:__first <- %rdi
	#DEBUG_VALUE: _S_do_relocate:__last <- %rsi
	#DEBUG_VALUE: _S_do_relocate:__last <- %rsi
	#DEBUG_VALUE: _S_do_relocate:__last <- %rsi
	#DEBUG_VALUE: _S_do_relocate:__result <- %rdx
	#DEBUG_VALUE: _S_do_relocate:__result <- %rdx
	#DEBUG_VALUE: _S_do_relocate:__result <- %rdx
	#DEBUG_VALUE: _S_do_relocate:__alloc <- %rcx
	#DEBUG_VALUE: _S_do_relocate:__alloc <- %rcx
	#DEBUG_VALUE: _S_do_relocate:__alloc <- %rcx
	.loc	49 453 9 prologue_end   # /usr/lib/gcc/x86_64-linux-gnu/9/../../../../include/c++/9/bits/stl_vector.h:453:9
	jmp	_ZSt12__relocate_aIPPN12ILLIXR_AUDIO5SoundES3_SaIS2_EET0_T_S6_S5_RT1_ # TAILCALL
.Ltmp315:
.Lfunc_end57:
	.size	_ZNSt6vectorIPN12ILLIXR_AUDIO5SoundESaIS2_EE14_S_do_relocateEPS2_S5_S5_RS3_St17integral_constantIbLb1EE, .Lfunc_end57-_ZNSt6vectorIPN12ILLIXR_AUDIO5SoundESaIS2_EE14_S_do_relocateEPS2_S5_S5_RS3_St17integral_constantIbLb1EE
	.cfi_endproc
                                        # -- End function
	.section	.text._ZSt12__relocate_aIPPN12ILLIXR_AUDIO5SoundES3_SaIS2_EET0_T_S6_S5_RT1_,"axG",@progbits,_ZSt12__relocate_aIPPN12ILLIXR_AUDIO5SoundES3_SaIS2_EET0_T_S6_S5_RT1_,comdat
	.weak	_ZSt12__relocate_aIPPN12ILLIXR_AUDIO5SoundES3_SaIS2_EET0_T_S6_S5_RT1_ # -- Begin function _ZSt12__relocate_aIPPN12ILLIXR_AUDIO5SoundES3_SaIS2_EET0_T_S6_S5_RT1_
	.p2align	4, 0x90
	.type	_ZSt12__relocate_aIPPN12ILLIXR_AUDIO5SoundES3_SaIS2_EET0_T_S6_S5_RT1_,@function
_ZSt12__relocate_aIPPN12ILLIXR_AUDIO5SoundES3_SaIS2_EET0_T_S6_S5_RT1_: # @_ZSt12__relocate_aIPPN12ILLIXR_AUDIO5SoundES3_SaIS2_EET0_T_S6_S5_RT1_
.Lfunc_begin58:
	.file	72 "/usr/lib/gcc/x86_64-linux-gnu/9/../../../../include/c++/9/bits/stl_uninitialized.h"
	.loc	72 963 0                # /usr/lib/gcc/x86_64-linux-gnu/9/../../../../include/c++/9/bits/stl_uninitialized.h:963:0
	.cfi_startproc
# %bb.0:
	pushq	%r15
	.cfi_def_cfa_offset 16
	pushq	%r14
	.cfi_def_cfa_offset 24
	pushq	%r12
	.cfi_def_cfa_offset 32
	pushq	%rbx
	.cfi_def_cfa_offset 40
	pushq	%rax
	.cfi_def_cfa_offset 48
	.cfi_offset %rbx, -40
	.cfi_offset %r12, -32
	.cfi_offset %r14, -24
	.cfi_offset %r15, -16
	#DEBUG_VALUE: __relocate_a<ILLIXR_AUDIO::Sound **, ILLIXR_AUDIO::Sound **, std::allocator<ILLIXR_AUDIO::Sound *> >:__first <- %rdi
	#DEBUG_VALUE: __relocate_a<ILLIXR_AUDIO::Sound **, ILLIXR_AUDIO::Sound **, std::allocator<ILLIXR_AUDIO::Sound *> >:__last <- %rsi
	#DEBUG_VALUE: __relocate_a<ILLIXR_AUDIO::Sound **, ILLIXR_AUDIO::Sound **, std::allocator<ILLIXR_AUDIO::Sound *> >:__result <- %rdx
	#DEBUG_VALUE: __relocate_a<ILLIXR_AUDIO::Sound **, ILLIXR_AUDIO::Sound **, std::allocator<ILLIXR_AUDIO::Sound *> >:__alloc <- %rcx
	movq	%rcx, %r14
	movq	%rdx, %r15
	movq	%rsi, %rbx
.Ltmp316:
	#DEBUG_VALUE: __relocate_a<ILLIXR_AUDIO::Sound **, ILLIXR_AUDIO::Sound **, std::allocator<ILLIXR_AUDIO::Sound *> >:__alloc <- %r14
	#DEBUG_VALUE: __relocate_a<ILLIXR_AUDIO::Sound **, ILLIXR_AUDIO::Sound **, std::allocator<ILLIXR_AUDIO::Sound *> >:__result <- %r15
	#DEBUG_VALUE: __relocate_a<ILLIXR_AUDIO::Sound **, ILLIXR_AUDIO::Sound **, std::allocator<ILLIXR_AUDIO::Sound *> >:__last <- %rbx
	#DEBUG_VALUE: __relocate_a<ILLIXR_AUDIO::Sound **, ILLIXR_AUDIO::Sound **, std::allocator<ILLIXR_AUDIO::Sound *> >:__first <- %rdi
	#DEBUG_VALUE: __relocate_a<ILLIXR_AUDIO::Sound **, ILLIXR_AUDIO::Sound **, std::allocator<ILLIXR_AUDIO::Sound *> >:__first <- %rdi
	.loc	72 964 29 prologue_end  # /usr/lib/gcc/x86_64-linux-gnu/9/../../../../include/c++/9/bits/stl_uninitialized.h:964:29
	callq	_ZSt12__niter_baseIPPN12ILLIXR_AUDIO5SoundEET_S4_
.Ltmp317:
	movq	%rax, %r12
	.loc	72 965 8                # /usr/lib/gcc/x86_64-linux-gnu/9/../../../../include/c++/9/bits/stl_uninitialized.h:965:8
	movq	%rbx, %rdi
.Ltmp318:
	#DEBUG_VALUE: __relocate_a<ILLIXR_AUDIO::Sound **, ILLIXR_AUDIO::Sound **, std::allocator<ILLIXR_AUDIO::Sound *> >:__last <- %rdi
	callq	_ZSt12__niter_baseIPPN12ILLIXR_AUDIO5SoundEET_S4_
.Ltmp319:
	movq	%rax, %rbx
	.loc	72 966 8                # /usr/lib/gcc/x86_64-linux-gnu/9/../../../../include/c++/9/bits/stl_uninitialized.h:966:8
	movq	%r15, %rdi
.Ltmp320:
	#DEBUG_VALUE: __relocate_a<ILLIXR_AUDIO::Sound **, ILLIXR_AUDIO::Sound **, std::allocator<ILLIXR_AUDIO::Sound *> >:__result <- %rdi
	callq	_ZSt12__niter_baseIPPN12ILLIXR_AUDIO5SoundEET_S4_
.Ltmp321:
	.loc	72 964 14               # /usr/lib/gcc/x86_64-linux-gnu/9/../../../../include/c++/9/bits/stl_uninitialized.h:964:14
	movq	%r12, %rdi
	movq	%rbx, %rsi
	movq	%rax, %rdx
	movq	%r14, %rcx
.Ltmp322:
	#DEBUG_VALUE: __relocate_a<ILLIXR_AUDIO::Sound **, ILLIXR_AUDIO::Sound **, std::allocator<ILLIXR_AUDIO::Sound *> >:__alloc <- %rcx
	addq	$8, %rsp
	popq	%rbx
	popq	%r12
	popq	%r14
	popq	%r15
	jmp	_ZSt14__relocate_a_1IPN12ILLIXR_AUDIO5SoundES2_ENSt9enable_ifIXsr3std24__is_bitwise_relocatableIT_EE5valueEPS4_E4typeES5_S5_S5_RSaIT0_E # TAILCALL
.Ltmp323:
.Lfunc_end58:
	.size	_ZSt12__relocate_aIPPN12ILLIXR_AUDIO5SoundES3_SaIS2_EET0_T_S6_S5_RT1_, .Lfunc_end58-_ZSt12__relocate_aIPPN12ILLIXR_AUDIO5SoundES3_SaIS2_EET0_T_S6_S5_RT1_
	.cfi_endproc
                                        # -- End function
	.section	.text._ZSt12__niter_baseIPPN12ILLIXR_AUDIO5SoundEET_S4_,"axG",@progbits,_ZSt12__niter_baseIPPN12ILLIXR_AUDIO5SoundEET_S4_,comdat
	.weak	_ZSt12__niter_baseIPPN12ILLIXR_AUDIO5SoundEET_S4_ # -- Begin function _ZSt12__niter_baseIPPN12ILLIXR_AUDIO5SoundEET_S4_
	.p2align	4, 0x90
	.type	_ZSt12__niter_baseIPPN12ILLIXR_AUDIO5SoundEET_S4_,@function
_ZSt12__niter_baseIPPN12ILLIXR_AUDIO5SoundEET_S4_: # @_ZSt12__niter_baseIPPN12ILLIXR_AUDIO5SoundEET_S4_
.Lfunc_begin59:
	.file	73 "/usr/lib/gcc/x86_64-linux-gnu/9/../../../../include/c++/9/bits/stl_algobase.h"
	.loc	73 282 0                # /usr/lib/gcc/x86_64-linux-gnu/9/../../../../include/c++/9/bits/stl_algobase.h:282:0
	.cfi_startproc
# %bb.0:
	#DEBUG_VALUE: __niter_base<ILLIXR_AUDIO::Sound **>:__it <- %rdi
	#DEBUG_VALUE: __niter_base<ILLIXR_AUDIO::Sound **>:__it <- %rdi
	.loc	73 282 7 prologue_end   # /usr/lib/gcc/x86_64-linux-gnu/9/../../../../include/c++/9/bits/stl_algobase.h:282:7
	movq	%rdi, %rax
.Ltmp324:
	#DEBUG_VALUE: __niter_base<ILLIXR_AUDIO::Sound **>:__it <- %rax
	retq
.Ltmp325:
.Lfunc_end59:
	.size	_ZSt12__niter_baseIPPN12ILLIXR_AUDIO5SoundEET_S4_, .Lfunc_end59-_ZSt12__niter_baseIPPN12ILLIXR_AUDIO5SoundEET_S4_
	.cfi_endproc
                                        # -- End function
	.section	.text._ZSt14__relocate_a_1IPN12ILLIXR_AUDIO5SoundES2_ENSt9enable_ifIXsr3std24__is_bitwise_relocatableIT_EE5valueEPS4_E4typeES5_S5_S5_RSaIT0_E,"axG",@progbits,_ZSt14__relocate_a_1IPN12ILLIXR_AUDIO5SoundES2_ENSt9enable_ifIXsr3std24__is_bitwise_relocatableIT_EE5valueEPS4_E4typeES5_S5_S5_RSaIT0_E,comdat
	.weak	_ZSt14__relocate_a_1IPN12ILLIXR_AUDIO5SoundES2_ENSt9enable_ifIXsr3std24__is_bitwise_relocatableIT_EE5valueEPS4_E4typeES5_S5_S5_RSaIT0_E # -- Begin function _ZSt14__relocate_a_1IPN12ILLIXR_AUDIO5SoundES2_ENSt9enable_ifIXsr3std24__is_bitwise_relocatableIT_EE5valueEPS4_E4typeES5_S5_S5_RSaIT0_E
	.p2align	4, 0x90
	.type	_ZSt14__relocate_a_1IPN12ILLIXR_AUDIO5SoundES2_ENSt9enable_ifIXsr3std24__is_bitwise_relocatableIT_EE5valueEPS4_E4typeES5_S5_S5_RSaIT0_E,@function
_ZSt14__relocate_a_1IPN12ILLIXR_AUDIO5SoundES2_ENSt9enable_ifIXsr3std24__is_bitwise_relocatableIT_EE5valueEPS4_E4typeES5_S5_S5_RSaIT0_E: # @_ZSt14__relocate_a_1IPN12ILLIXR_AUDIO5SoundES2_ENSt9enable_ifIXsr3std24__is_bitwise_relocatableIT_EE5valueEPS4_E4typeES5_S5_S5_RSaIT0_E
.Lfunc_begin60:
	.loc	72 926 0                # /usr/lib/gcc/x86_64-linux-gnu/9/../../../../include/c++/9/bits/stl_uninitialized.h:926:0
	.cfi_startproc
# %bb.0:
	pushq	%r14
	.cfi_def_cfa_offset 16
	pushq	%rbx
	.cfi_def_cfa_offset 24
	pushq	%rax
	.cfi_def_cfa_offset 32
	.cfi_offset %rbx, -24
	.cfi_offset %r14, -16
	#DEBUG_VALUE: __relocate_a_1<ILLIXR_AUDIO::Sound *, ILLIXR_AUDIO::Sound *>:__first <- %rdi
	#DEBUG_VALUE: __relocate_a_1<ILLIXR_AUDIO::Sound *, ILLIXR_AUDIO::Sound *>:__last <- %rsi
	#DEBUG_VALUE: __relocate_a_1<ILLIXR_AUDIO::Sound *, ILLIXR_AUDIO::Sound *>:__result <- %rdx
	#DEBUG_VALUE: __relocate_a_1<ILLIXR_AUDIO::Sound *, ILLIXR_AUDIO::Sound *>: <- %rcx
	movq	%rdx, %r14
	movq	%rsi, %rax
	movq	%rdi, %rcx
.Ltmp326:
	#DEBUG_VALUE: __relocate_a_1<ILLIXR_AUDIO::Sound *, ILLIXR_AUDIO::Sound *>:__result <- %r14
	#DEBUG_VALUE: __relocate_a_1<ILLIXR_AUDIO::Sound *, ILLIXR_AUDIO::Sound *>:__last <- %rax
	#DEBUG_VALUE: __relocate_a_1<ILLIXR_AUDIO::Sound *, ILLIXR_AUDIO::Sound *>:__first <- %rcx
	.loc	72 927 34 prologue_end  # /usr/lib/gcc/x86_64-linux-gnu/9/../../../../include/c++/9/bits/stl_uninitialized.h:927:34
	subq	%rcx, %rax
.Ltmp327:
	movq	%rax, %rbx
	sarq	$3, %rbx
.Ltmp328:
	#DEBUG_VALUE: __relocate_a_1<ILLIXR_AUDIO::Sound *, ILLIXR_AUDIO::Sound *>:__count <- %rbx
	.loc	72 928 19               # /usr/lib/gcc/x86_64-linux-gnu/9/../../../../include/c++/9/bits/stl_uninitialized.h:928:19
	testq	%rax, %rax
.Ltmp329:
	.loc	72 928 11 is_stmt 0     # /usr/lib/gcc/x86_64-linux-gnu/9/../../../../include/c++/9/bits/stl_uninitialized.h:928:11
	jle	.LBB60_2
.Ltmp330:
# %bb.1:
	#DEBUG_VALUE: __relocate_a_1<ILLIXR_AUDIO::Sound *, ILLIXR_AUDIO::Sound *>:__count <- %rbx
	#DEBUG_VALUE: __relocate_a_1<ILLIXR_AUDIO::Sound *, ILLIXR_AUDIO::Sound *>:__first <- %rcx
	#DEBUG_VALUE: __relocate_a_1<ILLIXR_AUDIO::Sound *, ILLIXR_AUDIO::Sound *>:__result <- %r14
	.loc	72 929 2 is_stmt 1      # /usr/lib/gcc/x86_64-linux-gnu/9/../../../../include/c++/9/bits/stl_uninitialized.h:929:2
	movq	%r14, %rdi
	movq	%rcx, %rsi
	movq	%rax, %rdx
	callq	memmove
.Ltmp331:
.LBB60_2:
	#DEBUG_VALUE: __relocate_a_1<ILLIXR_AUDIO::Sound *, ILLIXR_AUDIO::Sound *>:__count <- %rbx
	#DEBUG_VALUE: __relocate_a_1<ILLIXR_AUDIO::Sound *, ILLIXR_AUDIO::Sound *>:__result <- %r14
	.loc	72 930 23               # /usr/lib/gcc/x86_64-linux-gnu/9/../../../../include/c++/9/bits/stl_uninitialized.h:930:23
	leaq	(%r14,%rbx,8), %rax
	.loc	72 930 7 is_stmt 0      # /usr/lib/gcc/x86_64-linux-gnu/9/../../../../include/c++/9/bits/stl_uninitialized.h:930:7
	addq	$8, %rsp
	popq	%rbx
.Ltmp332:
	popq	%r14
.Ltmp333:
	retq
.Ltmp334:
.Lfunc_end60:
	.size	_ZSt14__relocate_a_1IPN12ILLIXR_AUDIO5SoundES2_ENSt9enable_ifIXsr3std24__is_bitwise_relocatableIT_EE5valueEPS4_E4typeES5_S5_S5_RSaIT0_E, .Lfunc_end60-_ZSt14__relocate_a_1IPN12ILLIXR_AUDIO5SoundES2_ENSt9enable_ifIXsr3std24__is_bitwise_relocatableIT_EE5valueEPS4_E4typeES5_S5_S5_RSaIT0_E
	.cfi_endproc
                                        # -- End function
	.section	.text._ZNSt16allocator_traitsISaIPN12ILLIXR_AUDIO5SoundEEE8allocateERS3_m,"axG",@progbits,_ZNSt16allocator_traitsISaIPN12ILLIXR_AUDIO5SoundEEE8allocateERS3_m,comdat
	.weak	_ZNSt16allocator_traitsISaIPN12ILLIXR_AUDIO5SoundEEE8allocateERS3_m # -- Begin function _ZNSt16allocator_traitsISaIPN12ILLIXR_AUDIO5SoundEEE8allocateERS3_m
	.p2align	4, 0x90
	.type	_ZNSt16allocator_traitsISaIPN12ILLIXR_AUDIO5SoundEEE8allocateERS3_m,@function
_ZNSt16allocator_traitsISaIPN12ILLIXR_AUDIO5SoundEEE8allocateERS3_m: # @_ZNSt16allocator_traitsISaIPN12ILLIXR_AUDIO5SoundEEE8allocateERS3_m
.Lfunc_begin61:
	.loc	41 444 0 is_stmt 1      # /usr/lib/gcc/x86_64-linux-gnu/9/../../../../include/c++/9/bits/alloc_traits.h:444:0
	.cfi_startproc
# %bb.0:
	#DEBUG_VALUE: allocate:__a <- %rdi
	#DEBUG_VALUE: allocate:__a <- %rdi
	#DEBUG_VALUE: allocate:__n <- %rsi
	#DEBUG_VALUE: allocate:__n <- %rsi
	.loc	41 444 20 prologue_end  # /usr/lib/gcc/x86_64-linux-gnu/9/../../../../include/c++/9/bits/alloc_traits.h:444:20
	xorl	%edx, %edx
	#DEBUG_VALUE: allocate:__n <- %rsi
	#DEBUG_VALUE: allocate:__a <- %rdi
	jmp	_ZN9__gnu_cxx13new_allocatorIPN12ILLIXR_AUDIO5SoundEE8allocateEmPKv # TAILCALL
.Ltmp335:
.Lfunc_end61:
	.size	_ZNSt16allocator_traitsISaIPN12ILLIXR_AUDIO5SoundEEE8allocateERS3_m, .Lfunc_end61-_ZNSt16allocator_traitsISaIPN12ILLIXR_AUDIO5SoundEEE8allocateERS3_m
	.cfi_endproc
                                        # -- End function
	.section	.text._ZN9__gnu_cxx13new_allocatorIPN12ILLIXR_AUDIO5SoundEE8allocateEmPKv,"axG",@progbits,_ZN9__gnu_cxx13new_allocatorIPN12ILLIXR_AUDIO5SoundEE8allocateEmPKv,comdat
	.weak	_ZN9__gnu_cxx13new_allocatorIPN12ILLIXR_AUDIO5SoundEE8allocateEmPKv # -- Begin function _ZN9__gnu_cxx13new_allocatorIPN12ILLIXR_AUDIO5SoundEE8allocateEmPKv
	.p2align	4, 0x90
	.type	_ZN9__gnu_cxx13new_allocatorIPN12ILLIXR_AUDIO5SoundEE8allocateEmPKv,@function
_ZN9__gnu_cxx13new_allocatorIPN12ILLIXR_AUDIO5SoundEE8allocateEmPKv: # @_ZN9__gnu_cxx13new_allocatorIPN12ILLIXR_AUDIO5SoundEE8allocateEmPKv
.Lfunc_begin62:
	.loc	13 103 0                # /usr/lib/gcc/x86_64-linux-gnu/9/../../../../include/c++/9/ext/new_allocator.h:103:0
	.cfi_startproc
# %bb.0:
	pushq	%rbx
	.cfi_def_cfa_offset 16
	.cfi_offset %rbx, -16
	#DEBUG_VALUE: allocate:this <- %rdi
	#DEBUG_VALUE: allocate:__n <- %rsi
	#DEBUG_VALUE: allocate: <- %rdx
	movq	%rsi, %rbx
.Ltmp336:
	#DEBUG_VALUE: allocate:__n <- %rbx
	#DEBUG_VALUE: allocate:this <- %rdi
	#DEBUG_VALUE: allocate:this <- %rdi
	.loc	13 104 18 prologue_end  # /usr/lib/gcc/x86_64-linux-gnu/9/../../../../include/c++/9/ext/new_allocator.h:104:18
	callq	_ZNK9__gnu_cxx13new_allocatorIPN12ILLIXR_AUDIO5SoundEE8max_sizeEv
.Ltmp337:
	.loc	13 104 10 is_stmt 0     # /usr/lib/gcc/x86_64-linux-gnu/9/../../../../include/c++/9/ext/new_allocator.h:104:10
	cmpq	%rbx, %rax
.Ltmp338:
	.loc	13 104 6                # /usr/lib/gcc/x86_64-linux-gnu/9/../../../../include/c++/9/ext/new_allocator.h:104:6
	jb	.LBB62_1
.Ltmp339:
# %bb.2:
	#DEBUG_VALUE: allocate:__n <- %rbx
	.loc	13 114 46 is_stmt 1     # /usr/lib/gcc/x86_64-linux-gnu/9/../../../../include/c++/9/ext/new_allocator.h:114:46
	shlq	$3, %rbx
.Ltmp340:
	.loc	13 114 27 is_stmt 0     # /usr/lib/gcc/x86_64-linux-gnu/9/../../../../include/c++/9/ext/new_allocator.h:114:27
	movq	%rbx, %rdi
	popq	%rbx
	jmp	_Znwm                   # TAILCALL
.LBB62_1:
.Ltmp341:
	#DEBUG_VALUE: allocate:__n <- %rbx
	.loc	13 105 4 is_stmt 1      # /usr/lib/gcc/x86_64-linux-gnu/9/../../../../include/c++/9/ext/new_allocator.h:105:4
	callq	_ZSt17__throw_bad_allocv
.Ltmp342:
.Lfunc_end62:
	.size	_ZN9__gnu_cxx13new_allocatorIPN12ILLIXR_AUDIO5SoundEE8allocateEmPKv, .Lfunc_end62-_ZN9__gnu_cxx13new_allocatorIPN12ILLIXR_AUDIO5SoundEE8allocateEmPKv
	.cfi_endproc
                                        # -- End function
	.section	.text._ZNK9__gnu_cxx13new_allocatorIPN12ILLIXR_AUDIO5SoundEE8max_sizeEv,"axG",@progbits,_ZNK9__gnu_cxx13new_allocatorIPN12ILLIXR_AUDIO5SoundEE8max_sizeEv,comdat
	.weak	_ZNK9__gnu_cxx13new_allocatorIPN12ILLIXR_AUDIO5SoundEE8max_sizeEv # -- Begin function _ZNK9__gnu_cxx13new_allocatorIPN12ILLIXR_AUDIO5SoundEE8max_sizeEv
	.p2align	4, 0x90
	.type	_ZNK9__gnu_cxx13new_allocatorIPN12ILLIXR_AUDIO5SoundEE8max_sizeEv,@function
_ZNK9__gnu_cxx13new_allocatorIPN12ILLIXR_AUDIO5SoundEE8max_sizeEv: # @_ZNK9__gnu_cxx13new_allocatorIPN12ILLIXR_AUDIO5SoundEE8max_sizeEv
.Lfunc_begin63:
	.loc	13 133 0                # /usr/lib/gcc/x86_64-linux-gnu/9/../../../../include/c++/9/ext/new_allocator.h:133:0
	.cfi_startproc
# %bb.0:
	#DEBUG_VALUE: max_size:this <- %rdi
	.loc	13 135 2 prologue_end   # /usr/lib/gcc/x86_64-linux-gnu/9/../../../../include/c++/9/ext/new_allocator.h:135:2
	movabsq	$1152921504606846975, %rax # imm = 0xFFFFFFFFFFFFFFF
	retq
.Ltmp343:
.Lfunc_end63:
	.size	_ZNK9__gnu_cxx13new_allocatorIPN12ILLIXR_AUDIO5SoundEE8max_sizeEv, .Lfunc_end63-_ZNK9__gnu_cxx13new_allocatorIPN12ILLIXR_AUDIO5SoundEE8max_sizeEv
	.cfi_endproc
                                        # -- End function
	.section	.text._ZN9__gnu_cxx17__normal_iteratorIPPN12ILLIXR_AUDIO5SoundESt6vectorIS3_SaIS3_EEEC2ERKS4_,"axG",@progbits,_ZN9__gnu_cxx17__normal_iteratorIPPN12ILLIXR_AUDIO5SoundESt6vectorIS3_SaIS3_EEEC2ERKS4_,comdat
	.weak	_ZN9__gnu_cxx17__normal_iteratorIPPN12ILLIXR_AUDIO5SoundESt6vectorIS3_SaIS3_EEEC2ERKS4_ # -- Begin function _ZN9__gnu_cxx17__normal_iteratorIPPN12ILLIXR_AUDIO5SoundESt6vectorIS3_SaIS3_EEEC2ERKS4_
	.p2align	4, 0x90
	.type	_ZN9__gnu_cxx17__normal_iteratorIPPN12ILLIXR_AUDIO5SoundESt6vectorIS3_SaIS3_EEEC2ERKS4_,@function
_ZN9__gnu_cxx17__normal_iteratorIPPN12ILLIXR_AUDIO5SoundESt6vectorIS3_SaIS3_EEEC2ERKS4_: # @_ZN9__gnu_cxx17__normal_iteratorIPPN12ILLIXR_AUDIO5SoundESt6vectorIS3_SaIS3_EEEC2ERKS4_
.Lfunc_begin64:
	.loc	51 807 0                # /usr/lib/gcc/x86_64-linux-gnu/9/../../../../include/c++/9/bits/stl_iterator.h:807:0
	.cfi_startproc
# %bb.0:
	#DEBUG_VALUE: __normal_iterator:this <- %rdi
	#DEBUG_VALUE: __normal_iterator:this <- %rdi
	#DEBUG_VALUE: __normal_iterator:__i <- %rsi
	#DEBUG_VALUE: __normal_iterator:__i <- %rsi
	.loc	51 807 20 prologue_end  # /usr/lib/gcc/x86_64-linux-gnu/9/../../../../include/c++/9/bits/stl_iterator.h:807:20
	movq	(%rsi), %rax
	.loc	51 807 9 is_stmt 0      # /usr/lib/gcc/x86_64-linux-gnu/9/../../../../include/c++/9/bits/stl_iterator.h:807:9
	movq	%rax, (%rdi)
	.loc	51 807 27               # /usr/lib/gcc/x86_64-linux-gnu/9/../../../../include/c++/9/bits/stl_iterator.h:807:27
	retq
.Ltmp344:
.Lfunc_end64:
	.size	_ZN9__gnu_cxx17__normal_iteratorIPPN12ILLIXR_AUDIO5SoundESt6vectorIS3_SaIS3_EEEC2ERKS4_, .Lfunc_end64-_ZN9__gnu_cxx17__normal_iteratorIPPN12ILLIXR_AUDIO5SoundESt6vectorIS3_SaIS3_EEEC2ERKS4_
	.cfi_endproc
                                        # -- End function
	.section	.text._ZNKSt6vectorIPN12ILLIXR_AUDIO5SoundESaIS2_EE8max_sizeEv,"axG",@progbits,_ZNKSt6vectorIPN12ILLIXR_AUDIO5SoundESaIS2_EE8max_sizeEv,comdat
	.weak	_ZNKSt6vectorIPN12ILLIXR_AUDIO5SoundESaIS2_EE8max_sizeEv # -- Begin function _ZNKSt6vectorIPN12ILLIXR_AUDIO5SoundESaIS2_EE8max_sizeEv
	.p2align	4, 0x90
	.type	_ZNKSt6vectorIPN12ILLIXR_AUDIO5SoundESaIS2_EE8max_sizeEv,@function
_ZNKSt6vectorIPN12ILLIXR_AUDIO5SoundESaIS2_EE8max_sizeEv: # @_ZNKSt6vectorIPN12ILLIXR_AUDIO5SoundESaIS2_EE8max_sizeEv
.Lfunc_begin65:
	.loc	49 921 0 is_stmt 1      # /usr/lib/gcc/x86_64-linux-gnu/9/../../../../include/c++/9/bits/stl_vector.h:921:0
	.cfi_startproc
# %bb.0:
	.loc	49 921 28 prologue_end  # /usr/lib/gcc/x86_64-linux-gnu/9/../../../../include/c++/9/bits/stl_vector.h:921:28
	pushq	%rax
	.cfi_def_cfa_offset 16
	#DEBUG_VALUE: max_size:this <- %rdi
	#DEBUG_VALUE: max_size:this <- %rdi
	#DEBUG_VALUE: max_size:this <- %rdi
	callq	_ZNKSt12_Vector_baseIPN12ILLIXR_AUDIO5SoundESaIS2_EE19_M_get_Tp_allocatorEv
.Ltmp345:
	.loc	49 921 16 is_stmt 0     # /usr/lib/gcc/x86_64-linux-gnu/9/../../../../include/c++/9/bits/stl_vector.h:921:16
	movq	%rax, %rdi
	popq	%rax
	jmp	_ZNSt6vectorIPN12ILLIXR_AUDIO5SoundESaIS2_EE11_S_max_sizeERKS3_ # TAILCALL
.Ltmp346:
.Lfunc_end65:
	.size	_ZNKSt6vectorIPN12ILLIXR_AUDIO5SoundESaIS2_EE8max_sizeEv, .Lfunc_end65-_ZNKSt6vectorIPN12ILLIXR_AUDIO5SoundESaIS2_EE8max_sizeEv
	.cfi_endproc
                                        # -- End function
	.section	.text._ZSt3maxImERKT_S2_S2_,"axG",@progbits,_ZSt3maxImERKT_S2_S2_,comdat
	.weak	_ZSt3maxImERKT_S2_S2_   # -- Begin function _ZSt3maxImERKT_S2_S2_
	.p2align	4, 0x90
	.type	_ZSt3maxImERKT_S2_S2_,@function
_ZSt3maxImERKT_S2_S2_:                  # @_ZSt3maxImERKT_S2_S2_
.Lfunc_begin66:
	.loc	73 223 0 is_stmt 1      # /usr/lib/gcc/x86_64-linux-gnu/9/../../../../include/c++/9/bits/stl_algobase.h:223:0
	.cfi_startproc
# %bb.0:
	#DEBUG_VALUE: max<unsigned long>:__a <- %rdi
	#DEBUG_VALUE: max<unsigned long>:__a <- %rdi
	#DEBUG_VALUE: max<unsigned long>:__b <- %rsi
	#DEBUG_VALUE: max<unsigned long>:__b <- %rsi
	.loc	73 227 11 prologue_end  # /usr/lib/gcc/x86_64-linux-gnu/9/../../../../include/c++/9/bits/stl_algobase.h:227:11
	movq	(%rdi), %rax
	.loc	73 227 15 is_stmt 0     # /usr/lib/gcc/x86_64-linux-gnu/9/../../../../include/c++/9/bits/stl_algobase.h:227:15
	cmpq	(%rsi), %rax
	.loc	73 228 2 is_stmt 1      # /usr/lib/gcc/x86_64-linux-gnu/9/../../../../include/c++/9/bits/stl_algobase.h:228:2
	cmovbq	%rsi, %rdi
.Ltmp347:
	.loc	73 230 5                # /usr/lib/gcc/x86_64-linux-gnu/9/../../../../include/c++/9/bits/stl_algobase.h:230:5
	movq	%rdi, %rax
	retq
.Ltmp348:
.Lfunc_end66:
	.size	_ZSt3maxImERKT_S2_S2_, .Lfunc_end66-_ZSt3maxImERKT_S2_S2_
	.cfi_endproc
                                        # -- End function
	.section	.text._ZNKSt12_Vector_baseIPN12ILLIXR_AUDIO5SoundESaIS2_EE19_M_get_Tp_allocatorEv,"axG",@progbits,_ZNKSt12_Vector_baseIPN12ILLIXR_AUDIO5SoundESaIS2_EE19_M_get_Tp_allocatorEv,comdat
	.weak	_ZNKSt12_Vector_baseIPN12ILLIXR_AUDIO5SoundESaIS2_EE19_M_get_Tp_allocatorEv # -- Begin function _ZNKSt12_Vector_baseIPN12ILLIXR_AUDIO5SoundESaIS2_EE19_M_get_Tp_allocatorEv
	.p2align	4, 0x90
	.type	_ZNKSt12_Vector_baseIPN12ILLIXR_AUDIO5SoundESaIS2_EE19_M_get_Tp_allocatorEv,@function
_ZNKSt12_Vector_baseIPN12ILLIXR_AUDIO5SoundESaIS2_EE19_M_get_Tp_allocatorEv: # @_ZNKSt12_Vector_baseIPN12ILLIXR_AUDIO5SoundESaIS2_EE19_M_get_Tp_allocatorEv
.Lfunc_begin67:
	.loc	49 278 0                # /usr/lib/gcc/x86_64-linux-gnu/9/../../../../include/c++/9/bits/stl_vector.h:278:0
	.cfi_startproc
# %bb.0:
	#DEBUG_VALUE: _M_get_Tp_allocator:this <- %rdi
	#DEBUG_VALUE: _M_get_Tp_allocator:this <- %rdi
	.loc	49 278 9 prologue_end   # /usr/lib/gcc/x86_64-linux-gnu/9/../../../../include/c++/9/bits/stl_vector.h:278:9
	movq	%rdi, %rax
.Ltmp349:
	#DEBUG_VALUE: _M_get_Tp_allocator:this <- %rax
	retq
.Ltmp350:
.Lfunc_end67:
	.size	_ZNKSt12_Vector_baseIPN12ILLIXR_AUDIO5SoundESaIS2_EE19_M_get_Tp_allocatorEv, .Lfunc_end67-_ZNKSt12_Vector_baseIPN12ILLIXR_AUDIO5SoundESaIS2_EE19_M_get_Tp_allocatorEv
	.cfi_endproc
                                        # -- End function
	.section	.text._ZNSt6vectorIPN12ILLIXR_AUDIO5SoundESaIS2_EE11_S_max_sizeERKS3_,"axG",@progbits,_ZNSt6vectorIPN12ILLIXR_AUDIO5SoundESaIS2_EE11_S_max_sizeERKS3_,comdat
	.weak	_ZNSt6vectorIPN12ILLIXR_AUDIO5SoundESaIS2_EE11_S_max_sizeERKS3_ # -- Begin function _ZNSt6vectorIPN12ILLIXR_AUDIO5SoundESaIS2_EE11_S_max_sizeERKS3_
	.p2align	4, 0x90
	.type	_ZNSt6vectorIPN12ILLIXR_AUDIO5SoundESaIS2_EE11_S_max_sizeERKS3_,@function
_ZNSt6vectorIPN12ILLIXR_AUDIO5SoundESaIS2_EE11_S_max_sizeERKS3_: # @_ZNSt6vectorIPN12ILLIXR_AUDIO5SoundESaIS2_EE11_S_max_sizeERKS3_
.Lfunc_begin68:
	.loc	49 1774 0               # /usr/lib/gcc/x86_64-linux-gnu/9/../../../../include/c++/9/bits/stl_vector.h:1774:0
	.cfi_startproc
# %bb.0:
	.loc	49 1778 15 prologue_end # /usr/lib/gcc/x86_64-linux-gnu/9/../../../../include/c++/9/bits/stl_vector.h:1778:15
	subq	$24, %rsp
	.cfi_def_cfa_offset 32
	#DEBUG_VALUE: _S_max_size:__a <- %rdi
	#DEBUG_VALUE: _S_max_size:__a <- %rdi
	movabsq	$1152921504606846975, %rax # imm = 0xFFFFFFFFFFFFFFF
.Ltmp351:
	#DEBUG_VALUE: _S_max_size:__diffmax <- 1152921504606846975
	movq	%rax, 16(%rsp)
	#DEBUG_VALUE: _S_max_size:__a <- %rdi
	.loc	49 1780 28              # /usr/lib/gcc/x86_64-linux-gnu/9/../../../../include/c++/9/bits/stl_vector.h:1780:28
	callq	_ZNSt16allocator_traitsISaIPN12ILLIXR_AUDIO5SoundEEE8max_sizeERKS3_
.Ltmp352:
	#DEBUG_VALUE: _S_max_size:__allocmax <- %rax
	.loc	49 1780 15 is_stmt 0    # /usr/lib/gcc/x86_64-linux-gnu/9/../../../../include/c++/9/bits/stl_vector.h:1780:15
	movq	%rax, 8(%rsp)
	leaq	16(%rsp), %rdi
.Ltmp353:
	#DEBUG_VALUE: _S_max_size:__diffmax <- [DW_OP_plus_uconst 16] [%rsp+0]
	.loc	49 0 15                 # /usr/lib/gcc/x86_64-linux-gnu/9/../../../../include/c++/9/bits/stl_vector.h:0:15
	leaq	8(%rsp), %rsi
.Ltmp354:
	#DEBUG_VALUE: _S_max_size:__allocmax <- [DW_OP_plus_uconst 8] [%rsp+0]
	.loc	49 1781 9 is_stmt 1     # /usr/lib/gcc/x86_64-linux-gnu/9/../../../../include/c++/9/bits/stl_vector.h:1781:9
	callq	_ZSt3minImERKT_S2_S2_
	movq	(%rax), %rax
	.loc	49 1781 2 is_stmt 0     # /usr/lib/gcc/x86_64-linux-gnu/9/../../../../include/c++/9/bits/stl_vector.h:1781:2
	addq	$24, %rsp
.Ltmp355:
	retq
.Ltmp356:
.Lfunc_end68:
	.size	_ZNSt6vectorIPN12ILLIXR_AUDIO5SoundESaIS2_EE11_S_max_sizeERKS3_, .Lfunc_end68-_ZNSt6vectorIPN12ILLIXR_AUDIO5SoundESaIS2_EE11_S_max_sizeERKS3_
	.cfi_endproc
                                        # -- End function
	.section	.text._ZNSt16allocator_traitsISaIPN12ILLIXR_AUDIO5SoundEEE8max_sizeERKS3_,"axG",@progbits,_ZNSt16allocator_traitsISaIPN12ILLIXR_AUDIO5SoundEEE8max_sizeERKS3_,comdat
	.weak	_ZNSt16allocator_traitsISaIPN12ILLIXR_AUDIO5SoundEEE8max_sizeERKS3_ # -- Begin function _ZNSt16allocator_traitsISaIPN12ILLIXR_AUDIO5SoundEEE8max_sizeERKS3_
	.p2align	4, 0x90
	.type	_ZNSt16allocator_traitsISaIPN12ILLIXR_AUDIO5SoundEEE8max_sizeERKS3_,@function
_ZNSt16allocator_traitsISaIPN12ILLIXR_AUDIO5SoundEEE8max_sizeERKS3_: # @_ZNSt16allocator_traitsISaIPN12ILLIXR_AUDIO5SoundEEE8max_sizeERKS3_
.Lfunc_begin69:
	.loc	41 506 0 is_stmt 1      # /usr/lib/gcc/x86_64-linux-gnu/9/../../../../include/c++/9/bits/alloc_traits.h:506:0
	.cfi_startproc
# %bb.0:
	#DEBUG_VALUE: max_size:__a <- %rdi
	#DEBUG_VALUE: max_size:__a <- %rdi
	#DEBUG_VALUE: max_size:__a <- %rdi
	.loc	41 506 20 prologue_end  # /usr/lib/gcc/x86_64-linux-gnu/9/../../../../include/c++/9/bits/alloc_traits.h:506:20
	jmp	_ZNK9__gnu_cxx13new_allocatorIPN12ILLIXR_AUDIO5SoundEE8max_sizeEv # TAILCALL
.Ltmp357:
.Lfunc_end69:
	.size	_ZNSt16allocator_traitsISaIPN12ILLIXR_AUDIO5SoundEEE8max_sizeERKS3_, .Lfunc_end69-_ZNSt16allocator_traitsISaIPN12ILLIXR_AUDIO5SoundEEE8max_sizeERKS3_
	.cfi_endproc
                                        # -- End function
	.section	.text._ZSt3minImERKT_S2_S2_,"axG",@progbits,_ZSt3minImERKT_S2_S2_,comdat
	.weak	_ZSt3minImERKT_S2_S2_   # -- Begin function _ZSt3minImERKT_S2_S2_
	.p2align	4, 0x90
	.type	_ZSt3minImERKT_S2_S2_,@function
_ZSt3minImERKT_S2_S2_:                  # @_ZSt3minImERKT_S2_S2_
.Lfunc_begin70:
	.loc	73 199 0                # /usr/lib/gcc/x86_64-linux-gnu/9/../../../../include/c++/9/bits/stl_algobase.h:199:0
	.cfi_startproc
# %bb.0:
	#DEBUG_VALUE: min<unsigned long>:__a <- %rdi
	#DEBUG_VALUE: min<unsigned long>:__a <- %rdi
	#DEBUG_VALUE: min<unsigned long>:__b <- %rsi
	#DEBUG_VALUE: min<unsigned long>:__b <- %rsi
	.loc	73 203 11 prologue_end  # /usr/lib/gcc/x86_64-linux-gnu/9/../../../../include/c++/9/bits/stl_algobase.h:203:11
	movq	(%rsi), %rax
	.loc	73 203 15 is_stmt 0     # /usr/lib/gcc/x86_64-linux-gnu/9/../../../../include/c++/9/bits/stl_algobase.h:203:15
	cmpq	(%rdi), %rax
	.loc	73 204 2 is_stmt 1      # /usr/lib/gcc/x86_64-linux-gnu/9/../../../../include/c++/9/bits/stl_algobase.h:204:2
	cmovbq	%rsi, %rdi
.Ltmp358:
	.loc	73 206 5                # /usr/lib/gcc/x86_64-linux-gnu/9/../../../../include/c++/9/bits/stl_algobase.h:206:5
	movq	%rdi, %rax
	retq
.Ltmp359:
.Lfunc_end70:
	.size	_ZSt3minImERKT_S2_S2_, .Lfunc_end70-_ZSt3minImERKT_S2_S2_
	.cfi_endproc
                                        # -- End function
	.section	.text._ZN9__gnu_cxx13new_allocatorIPN12ILLIXR_AUDIO5SoundEE9constructIS3_JRKS3_EEEvPT_DpOT0_,"axG",@progbits,_ZN9__gnu_cxx13new_allocatorIPN12ILLIXR_AUDIO5SoundEE9constructIS3_JRKS3_EEEvPT_DpOT0_,comdat
	.weak	_ZN9__gnu_cxx13new_allocatorIPN12ILLIXR_AUDIO5SoundEE9constructIS3_JRKS3_EEEvPT_DpOT0_ # -- Begin function _ZN9__gnu_cxx13new_allocatorIPN12ILLIXR_AUDIO5SoundEE9constructIS3_JRKS3_EEEvPT_DpOT0_
	.p2align	4, 0x90
	.type	_ZN9__gnu_cxx13new_allocatorIPN12ILLIXR_AUDIO5SoundEE9constructIS3_JRKS3_EEEvPT_DpOT0_,@function
_ZN9__gnu_cxx13new_allocatorIPN12ILLIXR_AUDIO5SoundEE9constructIS3_JRKS3_EEEvPT_DpOT0_: # @_ZN9__gnu_cxx13new_allocatorIPN12ILLIXR_AUDIO5SoundEE9constructIS3_JRKS3_EEEvPT_DpOT0_
.Lfunc_begin71:
	.loc	13 147 0                # /usr/lib/gcc/x86_64-linux-gnu/9/../../../../include/c++/9/ext/new_allocator.h:147:0
	.cfi_startproc
# %bb.0:
	pushq	%rbx
	.cfi_def_cfa_offset 16
	.cfi_offset %rbx, -16
	#DEBUG_VALUE: construct<ILLIXR_AUDIO::Sound *, ILLIXR_AUDIO::Sound *const &>:this <- %rdi
	#DEBUG_VALUE: construct<ILLIXR_AUDIO::Sound *, ILLIXR_AUDIO::Sound *const &>:__p <- %rsi
	#DEBUG_VALUE: construct<ILLIXR_AUDIO::Sound *, ILLIXR_AUDIO::Sound *const &>:__args <- %rdx
	movq	%rsi, %rbx
	#DEBUG_VALUE: construct<ILLIXR_AUDIO::Sound *, ILLIXR_AUDIO::Sound *const &>:__args <- %rdx
.Ltmp360:
	#DEBUG_VALUE: construct<ILLIXR_AUDIO::Sound *, ILLIXR_AUDIO::Sound *const &>:__p <- %rbx
	.loc	13 147 27 prologue_end  # /usr/lib/gcc/x86_64-linux-gnu/9/../../../../include/c++/9/ext/new_allocator.h:147:27
	movq	%rdx, %rdi
.Ltmp361:
	#DEBUG_VALUE: construct<ILLIXR_AUDIO::Sound *, ILLIXR_AUDIO::Sound *const &>:__args <- %rdi
	callq	_ZSt7forwardIRKPN12ILLIXR_AUDIO5SoundEEOT_RNSt16remove_referenceIS5_E4typeE
.Ltmp362:
	movq	(%rax), %rax
	.loc	13 147 4 is_stmt 0      # /usr/lib/gcc/x86_64-linux-gnu/9/../../../../include/c++/9/ext/new_allocator.h:147:4
	movq	%rax, (%rbx)
	.loc	13 147 60               # /usr/lib/gcc/x86_64-linux-gnu/9/../../../../include/c++/9/ext/new_allocator.h:147:60
	popq	%rbx
.Ltmp363:
	retq
.Ltmp364:
.Lfunc_end71:
	.size	_ZN9__gnu_cxx13new_allocatorIPN12ILLIXR_AUDIO5SoundEE9constructIS3_JRKS3_EEEvPT_DpOT0_, .Lfunc_end71-_ZN9__gnu_cxx13new_allocatorIPN12ILLIXR_AUDIO5SoundEE9constructIS3_JRKS3_EEEvPT_DpOT0_
	.cfi_endproc
                                        # -- End function
	.text
	.globl	_ZN12ILLIXR_AUDIO7ABAudio12processBlockEv # -- Begin function _ZN12ILLIXR_AUDIO7ABAudio12processBlockEv
	.p2align	4, 0x90
	.type	_ZN12ILLIXR_AUDIO7ABAudio12processBlockEv,@function
_ZN12ILLIXR_AUDIO7ABAudio12processBlockEv: # @_ZN12ILLIXR_AUDIO7ABAudio12processBlockEv
.Lfunc_begin72:
	.loc	53 69 0 is_stmt 1       # src/audio.cpp:69:0
	.cfi_startproc
	.cfi_personality 3, __gxx_personality_v0
	.cfi_lsda 3, .Lexception4
# %bb.0:
	pushq	%r15
	.cfi_def_cfa_offset 16
	pushq	%r14
	.cfi_def_cfa_offset 24
	pushq	%rbx
	.cfi_def_cfa_offset 32
	subq	$64, %rsp
	.cfi_def_cfa_offset 96
	.cfi_offset %rbx, -32
	.cfi_offset %r14, -24
	.cfi_offset %r15, -16
	#DEBUG_VALUE: processBlock:this <- %rdi
	movq	%rdi, %r14
.Ltmp376:
	#DEBUG_VALUE: processBlock:this <- %r14
	.loc	53 70 28 prologue_end   # src/audio.cpp:70:28
	movl	$16, %edi
	callq	_Znam
	movq	%rax, %rbx
.Ltmp377:
	#DEBUG_VALUE: processBlock:resultSample <- %rbx
	.loc	53 71 23                # src/audio.cpp:71:23
	movl	$4096, %edi             # imm = 0x1000
	callq	_Znam
	.loc	53 71 21 is_stmt 0      # src/audio.cpp:71:21
	movq	%rax, (%rbx)
	.loc	53 72 23 is_stmt 1      # src/audio.cpp:72:23
	movl	$4096, %edi             # imm = 0x1000
	callq	_Znam
	.loc	53 72 21 is_stmt 0      # src/audio.cpp:72:21
	movq	%rax, 8(%rbx)
	movq	%rsp, %r15
.Ltmp378:
	#DEBUG_VALUE: processBlock:sumBF <- [%rsp+0]
	.loc	53 75 14 is_stmt 1      # src/audio.cpp:75:14
	movq	%r15, %rdi
	callq	_ZN8CBFormatC1Ev
.Ltmp365:
	.loc	53 76 11                # src/audio.cpp:76:11
	movl	$3, %esi
	movl	$1, %edx
	movl	$1024, %ecx             # imm = 0x400
	movq	%r15, %rdi
	callq	_ZN8CBFormat9ConfigureEjbj
.Ltmp366:
.Ltmp379:
# %bb.1:
	#DEBUG_VALUE: processBlock:sumBF <- [%rsp+0]
	#DEBUG_VALUE: processBlock:resultSample <- %rbx
	#DEBUG_VALUE: processBlock:this <- %r14
	.loc	53 78 21                # src/audio.cpp:78:21
	cmpl	$2, (%r14)
.Ltmp380:
	.loc	53 78 9 is_stmt 0       # src/audio.cpp:78:9
	je	.LBB72_4
.Ltmp381:
# %bb.2:
	#DEBUG_VALUE: processBlock:sumBF <- [%rsp+0]
	#DEBUG_VALUE: processBlock:resultSample <- %rbx
	#DEBUG_VALUE: processBlock:this <- %r14
.Ltmp367:
	.loc	53 0 9                  # src/audio.cpp:0:9
	movq	%rsp, %rsi
.Ltmp382:
	.loc	53 79 9 is_stmt 1       # src/audio.cpp:79:9
	movq	%r14, %rdi
	callq	_ZN12ILLIXR_AUDIO7ABAudio11readNEncodeER8CBFormat
.Ltmp368:
.Ltmp383:
# %bb.3:
	#DEBUG_VALUE: processBlock:sumBF <- [%rsp+0]
	#DEBUG_VALUE: processBlock:resultSample <- %rbx
	#DEBUG_VALUE: processBlock:this <- %r14
	.loc	53 81 21                # src/audio.cpp:81:21
	cmpl	$1, (%r14)
.Ltmp384:
	.loc	53 81 9 is_stmt 0       # src/audio.cpp:81:9
	je	.LBB72_8
.Ltmp385:
.LBB72_4:
	#DEBUG_VALUE: processBlock:sumBF <- [%rsp+0]
	#DEBUG_VALUE: processBlock:resultSample <- %rbx
	#DEBUG_VALUE: processBlock:this <- %r14
.Ltmp369:
	.loc	53 0 9                  # src/audio.cpp:0:9
	movq	%rsp, %rsi
.Ltmp386:
	.loc	53 83 9 is_stmt 1       # src/audio.cpp:83:9
	movq	%r14, %rdi
	callq	_ZN12ILLIXR_AUDIO7ABAudio11rotateNZoomER8CBFormat
.Ltmp370:
.Ltmp387:
# %bb.5:
	#DEBUG_VALUE: processBlock:sumBF <- [%rsp+0]
	#DEBUG_VALUE: processBlock:resultSample <- %rbx
	#DEBUG_VALUE: processBlock:this <- %r14
	.loc	53 84 9                 # src/audio.cpp:84:9
	movq	24(%r14), %rdi
.Ltmp371:
	movq	%rsp, %rsi
	.loc	53 84 18 is_stmt 0      # src/audio.cpp:84:18
	movq	%rbx, %rdx
	callq	_ZN22CAmbisonicBinauralizer7ProcessEP8CBFormatPPf
.Ltmp372:
.Ltmp388:
# %bb.6:
	#DEBUG_VALUE: processBlock:sumBF <- [%rsp+0]
	#DEBUG_VALUE: processBlock:resultSample <- %rbx
	#DEBUG_VALUE: processBlock:this <- %r14
	.loc	53 87 21 is_stmt 1      # src/audio.cpp:87:21
	cmpl	$0, (%r14)
.Ltmp389:
	.loc	53 87 9 is_stmt 0       # src/audio.cpp:87:9
	jne	.LBB72_8
.Ltmp390:
# %bb.7:
	#DEBUG_VALUE: processBlock:sumBF <- [%rsp+0]
	#DEBUG_VALUE: processBlock:resultSample <- %rbx
	#DEBUG_VALUE: processBlock:this <- %r14
.Ltmp373:
	.loc	53 88 9 is_stmt 1       # src/audio.cpp:88:9
	movq	%r14, %rdi
	movq	%rbx, %rsi
	callq	_ZN12ILLIXR_AUDIO7ABAudio9writeFileEPPf
.Ltmp374:
.Ltmp391:
.LBB72_8:
	#DEBUG_VALUE: processBlock:sumBF <- [%rsp+0]
	#DEBUG_VALUE: processBlock:resultSample <- %rbx
	#DEBUG_VALUE: processBlock:this <- %r14
	.loc	53 91 14                # src/audio.cpp:91:14
	movq	(%rbx), %rdi
	.loc	53 91 5 is_stmt 0       # src/audio.cpp:91:5
	testq	%rdi, %rdi
	je	.LBB72_10
.Ltmp392:
# %bb.9:
	#DEBUG_VALUE: processBlock:sumBF <- [%rsp+0]
	#DEBUG_VALUE: processBlock:resultSample <- %rbx
	#DEBUG_VALUE: processBlock:this <- %r14
	callq	_ZdaPv
.Ltmp393:
.LBB72_10:
	#DEBUG_VALUE: processBlock:sumBF <- [%rsp+0]
	#DEBUG_VALUE: processBlock:resultSample <- %rbx
	#DEBUG_VALUE: processBlock:this <- %r14
	.loc	53 92 14 is_stmt 1      # src/audio.cpp:92:14
	movq	8(%rbx), %rdi
	.loc	53 92 5 is_stmt 0       # src/audio.cpp:92:5
	testq	%rdi, %rdi
	je	.LBB72_12
.Ltmp394:
# %bb.11:
	#DEBUG_VALUE: processBlock:sumBF <- [%rsp+0]
	#DEBUG_VALUE: processBlock:resultSample <- %rbx
	#DEBUG_VALUE: processBlock:this <- %r14
	callq	_ZdaPv
.Ltmp395:
.LBB72_12:
	#DEBUG_VALUE: processBlock:sumBF <- [%rsp+0]
	#DEBUG_VALUE: processBlock:resultSample <- %rbx
	#DEBUG_VALUE: processBlock:this <- %r14
	.loc	53 93 5 is_stmt 1       # src/audio.cpp:93:5
	movq	%rbx, %rdi
	callq	_ZdaPv
	movq	%rsp, %rdi
	#DEBUG_VALUE: processBlock:sumBF <- [%rsp+0]
	.loc	53 94 1                 # src/audio.cpp:94:1
	callq	_ZN8CBFormatD2Ev
	addq	$64, %rsp
.Ltmp396:
	popq	%rbx
.Ltmp397:
	popq	%r14
.Ltmp398:
	popq	%r15
	retq
.LBB72_13:
.Ltmp399:
	#DEBUG_VALUE: processBlock:sumBF <- [%rsp+0]
	#DEBUG_VALUE: processBlock:resultSample <- %rbx
	#DEBUG_VALUE: processBlock:this <- %r14
.Ltmp375:
	.loc	53 0 1 is_stmt 0        # src/audio.cpp:0:1
	movq	%rax, %rbx
.Ltmp400:
	movq	%rsp, %rdi
	#DEBUG_VALUE: processBlock:sumBF <- [%rsp+0]
	.loc	53 94 1                 # src/audio.cpp:94:1
	callq	_ZN8CBFormatD2Ev
	movq	%rbx, %rdi
	callq	_Unwind_Resume
.Ltmp401:
.Lfunc_end72:
	.size	_ZN12ILLIXR_AUDIO7ABAudio12processBlockEv, .Lfunc_end72-_ZN12ILLIXR_AUDIO7ABAudio12processBlockEv
	.cfi_endproc
	.section	.gcc_except_table,"a",@progbits
	.p2align	2
GCC_except_table72:
.Lexception4:
	.byte	255                     # @LPStart Encoding = omit
	.byte	3                       # @TType Encoding = udata4
	.byte	41                      # @TType base offset
	.byte	3                       # Call site Encoding = udata4
	.byte	39                      # Call site table length
	.long	.Lfunc_begin72-.Lfunc_begin72 # >> Call Site 1 <<
	.long	.Ltmp365-.Lfunc_begin72 #   Call between .Lfunc_begin72 and .Ltmp365
	.long	0                       #     has no landing pad
	.byte	0                       #   On action: cleanup
	.long	.Ltmp365-.Lfunc_begin72 # >> Call Site 2 <<
	.long	.Ltmp374-.Ltmp365       #   Call between .Ltmp365 and .Ltmp374
	.long	.Ltmp375-.Lfunc_begin72 #     jumps to .Ltmp375
	.byte	0                       #   On action: cleanup
	.long	.Ltmp374-.Lfunc_begin72 # >> Call Site 3 <<
	.long	.Lfunc_end72-.Ltmp374   #   Call between .Ltmp374 and .Lfunc_end72
	.long	0                       #     has no landing pad
	.byte	0                       #   On action: cleanup
	.p2align	2
                                        # -- End function
	.text
	.globl	_ZN12ILLIXR_AUDIO7ABAudio11readNEncodeER8CBFormat # -- Begin function _ZN12ILLIXR_AUDIO7ABAudio11readNEncodeER8CBFormat
	.p2align	4, 0x90
	.type	_ZN12ILLIXR_AUDIO7ABAudio11readNEncodeER8CBFormat,@function
_ZN12ILLIXR_AUDIO7ABAudio11readNEncodeER8CBFormat: # @_ZN12ILLIXR_AUDIO7ABAudio11readNEncodeER8CBFormat
.Lfunc_begin73:
	.loc	53 97 0 is_stmt 1       # src/audio.cpp:97:0
	.cfi_startproc
# %bb.0:
	pushq	%rbp
	.cfi_def_cfa_offset 16
	pushq	%r15
	.cfi_def_cfa_offset 24
	pushq	%r14
	.cfi_def_cfa_offset 32
	pushq	%rbx
	.cfi_def_cfa_offset 40
	pushq	%rax
	.cfi_def_cfa_offset 48
	.cfi_offset %rbx, -40
	.cfi_offset %r14, -32
	.cfi_offset %r15, -24
	.cfi_offset %rbp, -16
	#DEBUG_VALUE: readNEncode:this <- %rdi
	#DEBUG_VALUE: readNEncode:sumBF <- %rsi
	movq	%rsi, %r14
	movq	%rdi, %r15
.Ltmp402:
	#DEBUG_VALUE: soundIdx <- 0
	#DEBUG_VALUE: readNEncode:sumBF <- %r14
	#DEBUG_VALUE: readNEncode:this <- %r15
	.loc	53 99 48 prologue_end   # src/audio.cpp:99:48
	movq	8(%r15), %rdi
	.loc	53 99 59 is_stmt 0      # src/audio.cpp:99:59
	callq	_ZNKSt6vectorIPN12ILLIXR_AUDIO5SoundESaIS2_EE4sizeEv
	.loc	53 99 46                # src/audio.cpp:99:46
	testq	%rax, %rax
.Ltmp403:
	.loc	53 99 5                 # src/audio.cpp:99:5
	je	.LBB73_6
.Ltmp404:
# %bb.1:
	#DEBUG_VALUE: readNEncode:this <- %r15
	#DEBUG_VALUE: readNEncode:sumBF <- %r14
	.loc	53 0 5                  # src/audio.cpp:0:5
	movl	$1, %ebp
	xorl	%ebx, %ebx
.Ltmp405:
	.p2align	4, 0x90
.LBB73_2:                               # =>This Inner Loop Header: Depth=1
	#DEBUG_VALUE: readNEncode:this <- %r15
	#DEBUG_VALUE: readNEncode:sumBF <- %r14
	.loc	53 100 20 is_stmt 1     # src/audio.cpp:100:20
	movq	8(%r15), %rdi
	.loc	53 100 18 is_stmt 0     # src/audio.cpp:100:18
	movq	%rbx, %rsi
	callq	_ZNSt6vectorIPN12ILLIXR_AUDIO5SoundESaIS2_EEixEm
	movq	(%rax), %rdi
	.loc	53 100 42               # src/audio.cpp:100:42
	callq	_ZN12ILLIXR_AUDIO5Sound13readInBFormatEv
.Ltmp406:
	#DEBUG_VALUE: readNEncode:tempBF <- %rax
	.loc	53 104 18 is_stmt 1     # src/audio.cpp:104:18
	movq	%r14, %rdi
	movq	%rax, %rsi
	.loc	53 101 22               # src/audio.cpp:101:22
	cmpl	$1, %ebp
.Ltmp407:
	.loc	53 101 13 is_stmt 0     # src/audio.cpp:101:13
	jne	.LBB73_4
.Ltmp408:
# %bb.3:                                #   in Loop: Header=BB73_2 Depth=1
	#DEBUG_VALUE: readNEncode:tempBF <- %rax
	#DEBUG_VALUE: readNEncode:this <- %r15
	#DEBUG_VALUE: readNEncode:sumBF <- %r14
	.loc	53 102 19 is_stmt 1     # src/audio.cpp:102:19
	callq	_ZN8CBFormataSERKS_
.Ltmp409:
	.loc	53 0 19 is_stmt 0       # src/audio.cpp:0:19
	jmp	.LBB73_5
.Ltmp410:
	.p2align	4, 0x90
.LBB73_4:                               #   in Loop: Header=BB73_2 Depth=1
	#DEBUG_VALUE: readNEncode:tempBF <- %rax
	#DEBUG_VALUE: readNEncode:this <- %r15
	#DEBUG_VALUE: readNEncode:sumBF <- %r14
	.loc	53 104 18 is_stmt 1     # src/audio.cpp:104:18
	callq	_ZN8CBFormatpLERKS_
.Ltmp411:
.LBB73_5:                               #   in Loop: Header=BB73_2 Depth=1
	#DEBUG_VALUE: readNEncode:this <- %r15
	#DEBUG_VALUE: readNEncode:sumBF <- %r14
	.loc	53 99 37                # src/audio.cpp:99:37
	movl	%ebp, %ebx
	.loc	53 99 48 is_stmt 0      # src/audio.cpp:99:48
	movq	8(%r15), %rdi
	.loc	53 99 59                # src/audio.cpp:99:59
	callq	_ZNKSt6vectorIPN12ILLIXR_AUDIO5SoundESaIS2_EE4sizeEv
.Ltmp412:
	.loc	53 99 5                 # src/audio.cpp:99:5
	addl	$1, %ebp
.Ltmp413:
	.loc	53 99 46                # src/audio.cpp:99:46
	cmpq	%rbx, %rax
.Ltmp414:
	.loc	53 99 5                 # src/audio.cpp:99:5
	ja	.LBB73_2
.Ltmp415:
.LBB73_6:
	#DEBUG_VALUE: readNEncode:this <- %r15
	#DEBUG_VALUE: readNEncode:sumBF <- %r14
	.loc	53 106 1 is_stmt 1      # src/audio.cpp:106:1
	addq	$8, %rsp
	popq	%rbx
	popq	%r14
.Ltmp416:
	popq	%r15
.Ltmp417:
	popq	%rbp
	retq
.Ltmp418:
.Lfunc_end73:
	.size	_ZN12ILLIXR_AUDIO7ABAudio11readNEncodeER8CBFormat, .Lfunc_end73-_ZN12ILLIXR_AUDIO7ABAudio11readNEncodeER8CBFormat
	.cfi_endproc
                                        # -- End function
	.section	.text._ZN8CBFormatD2Ev,"axG",@progbits,_ZN8CBFormatD2Ev,comdat
	.weak	_ZN8CBFormatD2Ev        # -- Begin function _ZN8CBFormatD2Ev
	.p2align	4, 0x90
	.type	_ZN8CBFormatD2Ev,@function
_ZN8CBFormatD2Ev:                       # @_ZN8CBFormatD2Ev
.Lfunc_begin74:
	.file	74 "/home/yingj4/Desktop/cs598jtfa20/project/audio_pipeline/./libspatialaudio/build/Release/include/spatialaudio/BFormat.h"
	.loc	74 29 0                 # ./libspatialaudio/build/Release/include/spatialaudio/BFormat.h:29:0
	.cfi_startproc
# %bb.0:
	pushq	%rbx
	.cfi_def_cfa_offset 16
	.cfi_offset %rbx, -16
	#DEBUG_VALUE: ~CBFormat:this <- %rdi
	movq	%rdi, %rbx
.Ltmp419:
	#DEBUG_VALUE: ~CBFormat:this <- %rbx
	.loc	74 29 7 prologue_end    # ./libspatialaudio/build/Release/include/spatialaudio/BFormat.h:29:7
	movq	$_ZTV8CBFormat+16, (%rbx)
.Ltmp420:
	.loc	74 29 7 is_stmt 0       # ./libspatialaudio/build/Release/include/spatialaudio/BFormat.h:29:7
	leaq	56(%rbx), %rdi
	callq	_ZNSt10unique_ptrIA_PfSt14default_deleteIS1_EED2Ev
	leaq	32(%rbx), %rdi
	callq	_ZNSt6vectorIfSaIfEED2Ev
	movq	%rbx, %rdi
	popq	%rbx
.Ltmp421:
	jmp	_ZN14CAmbisonicBaseD2Ev # TAILCALL
.Ltmp422:
.Lfunc_end74:
	.size	_ZN8CBFormatD2Ev, .Lfunc_end74-_ZN8CBFormatD2Ev
	.cfi_endproc
                                        # -- End function
	.text
	.globl	_ZN12ILLIXR_AUDIO7ABAudio11rotateNZoomER8CBFormat # -- Begin function _ZN12ILLIXR_AUDIO7ABAudio11rotateNZoomER8CBFormat
	.p2align	4, 0x90
	.type	_ZN12ILLIXR_AUDIO7ABAudio11rotateNZoomER8CBFormat,@function
_ZN12ILLIXR_AUDIO7ABAudio11rotateNZoomER8CBFormat: # @_ZN12ILLIXR_AUDIO7ABAudio11rotateNZoomER8CBFormat
.Lfunc_begin75:
	.loc	53 124 0 is_stmt 1      # src/audio.cpp:124:0
	.cfi_startproc
# %bb.0:
	pushq	%r14
	.cfi_def_cfa_offset 16
	pushq	%rbx
	.cfi_def_cfa_offset 24
	pushq	%rax
	.cfi_def_cfa_offset 32
	.cfi_offset %rbx, -24
	.cfi_offset %r14, -16
	#DEBUG_VALUE: rotateNZoom:this <- %rdi
	#DEBUG_VALUE: rotateNZoom:sumBF <- %rsi
	movq	%rsi, %r14
	movq	%rdi, %rbx
.Ltmp423:
	#DEBUG_VALUE: rotateNZoom:sumBF <- %r14
	#DEBUG_VALUE: rotateNZoom:this <- %rbx
	.loc	53 125 2 prologue_end   # src/audio.cpp:125:2
	callq	_ZN12ILLIXR_AUDIO7ABAudio14updateRotationEv
	.loc	53 126 2                # src/audio.cpp:126:2
	movq	32(%rbx), %rdi
	.loc	53 126 11 is_stmt 0     # src/audio.cpp:126:11
	movl	$1024, %edx             # imm = 0x400
	movq	%r14, %rsi
	callq	_ZN19CAmbisonicProcessor7ProcessEP8CBFormatj
	.loc	53 127 2 is_stmt 1      # src/audio.cpp:127:2
	movq	%rbx, %rdi
	callq	_ZN12ILLIXR_AUDIO7ABAudio10updateZoomEv
	.loc	53 128 2                # src/audio.cpp:128:2
	movq	40(%rbx), %rdi
	.loc	53 128 10 is_stmt 0     # src/audio.cpp:128:10
	movl	$1024, %edx             # imm = 0x400
	movq	%r14, %rsi
	addq	$8, %rsp
	popq	%rbx
.Ltmp424:
	popq	%r14
.Ltmp425:
	jmp	_ZN16CAmbisonicZoomer7ProcessEP8CBFormatj # TAILCALL
.Ltmp426:
.Lfunc_end75:
	.size	_ZN12ILLIXR_AUDIO7ABAudio11rotateNZoomER8CBFormat, .Lfunc_end75-_ZN12ILLIXR_AUDIO7ABAudio11rotateNZoomER8CBFormat
	.cfi_endproc
                                        # -- End function
	.section	.rodata.cst8,"aM",@progbits,8
	.p2align	3               # -- Begin function _ZN12ILLIXR_AUDIO7ABAudio9writeFileEPPf
.LCPI76_0:
	.quad	4674736138332667904     # double 32767
	.text
	.globl	_ZN12ILLIXR_AUDIO7ABAudio9writeFileEPPf
	.p2align	4, 0x90
	.type	_ZN12ILLIXR_AUDIO7ABAudio9writeFileEPPf,@function
_ZN12ILLIXR_AUDIO7ABAudio9writeFileEPPf: # @_ZN12ILLIXR_AUDIO7ABAudio9writeFileEPPf
.Lfunc_begin76:
	.loc	53 131 0 is_stmt 1      # src/audio.cpp:131:0
	.cfi_startproc
# %bb.0:
	pushq	%r15
	.cfi_def_cfa_offset 16
	pushq	%r14
	.cfi_def_cfa_offset 24
	pushq	%r13
	.cfi_def_cfa_offset 32
	pushq	%r12
	.cfi_def_cfa_offset 40
	pushq	%rbx
	.cfi_def_cfa_offset 48
	subq	$16, %rsp
	.cfi_def_cfa_offset 64
	.cfi_offset %rbx, -48
	.cfi_offset %r12, -40
	.cfi_offset %r13, -32
	.cfi_offset %r14, -24
	.cfi_offset %r15, -16
	#DEBUG_VALUE: writeFile:this <- %rdi
	#DEBUG_VALUE: writeFile:resultSample <- %rsi
	movq	%rsi, %r13
	movq	%rdi, %r14
	xorl	%ebx, %ebx
	leaq	12(%rsp), %r15
	leaq	8(%rsp), %r12
.Ltmp427:
	#DEBUG_VALUE: sampleIdx <- 0
	#DEBUG_VALUE: writeFile:resultSample <- %r13
	#DEBUG_VALUE: writeFile:this <- %r14
	.p2align	4, 0x90
.LBB76_1:                               # =>This Inner Loop Header: Depth=1
	#DEBUG_VALUE: writeFile:this <- %r14
	#DEBUG_VALUE: writeFile:resultSample <- %r13
	movq	(%r13), %rdi
.Ltmp428:
	.loc	53 134 78 prologue_end  # src/audio.cpp:134:78
	addq	%rbx, %rdi
	movl	$1065353216, 12(%rsp)   # imm = 0x3F800000
	.loc	53 134 41 is_stmt 0     # src/audio.cpp:134:41
	movq	%r15, %rsi
	callq	_ZSt3minIfERKT_S2_S2_
	.loc	53 134 86               # src/audio.cpp:134:86
	movl	$-1082130432, 8(%rsp)   # imm = 0xBF800000
	.loc	53 134 32               # src/audio.cpp:134:32
	movq	%rax, %rdi
	movq	%r12, %rsi
	callq	_ZSt3maxIfERKT_S2_S2_
	movl	(%rax), %eax
	.loc	53 134 3                # src/audio.cpp:134:3
	movq	(%r13), %rcx
	.loc	53 134 30               # src/audio.cpp:134:30
	movl	%eax, (%rcx,%rbx)
	movq	8(%r13), %rdi
	.loc	53 135 78 is_stmt 1     # src/audio.cpp:135:78
	addq	%rbx, %rdi
	movl	$1065353216, 12(%rsp)   # imm = 0x3F800000
	.loc	53 135 41 is_stmt 0     # src/audio.cpp:135:41
	movq	%r15, %rsi
	callq	_ZSt3minIfERKT_S2_S2_
	.loc	53 135 86               # src/audio.cpp:135:86
	movl	$-1082130432, 8(%rsp)   # imm = 0xBF800000
	.loc	53 135 32               # src/audio.cpp:135:32
	movq	%rax, %rdi
	movq	%r12, %rsi
	callq	_ZSt3maxIfERKT_S2_S2_
	movl	(%rax), %eax
	.loc	53 135 3                # src/audio.cpp:135:3
	movq	8(%r13), %rcx
	.loc	53 135 30               # src/audio.cpp:135:30
	movl	%eax, (%rcx,%rbx)
	.loc	53 136 35 is_stmt 1     # src/audio.cpp:136:35
	movq	(%r13), %rax
	movss	(%rax,%rbx), %xmm0      # xmm0 = mem[0],zero,zero,zero
	cvtss2sd	%xmm0, %xmm0
	movsd	.LCPI76_0(%rip), %xmm1  # xmm1 = mem[0],zero
	.loc	53 136 66 is_stmt 0     # src/audio.cpp:136:66
	mulsd	%xmm1, %xmm0
	.loc	53 136 34               # src/audio.cpp:136:34
	cvttsd2si	%xmm0, %eax
.Ltmp429:
	#DEBUG_VALUE: tempSample0 <- %ax
	.loc	53 136 11               # src/audio.cpp:136:11
	movw	%ax, 12(%rsp)
	.loc	53 137 35 is_stmt 1     # src/audio.cpp:137:35
	movss	(%rcx,%rbx), %xmm0      # xmm0 = mem[0],zero,zero,zero
	cvtss2sd	%xmm0, %xmm0
	.loc	53 137 66 is_stmt 0     # src/audio.cpp:137:66
	mulsd	%xmm1, %xmm0
	.loc	53 137 34               # src/audio.cpp:137:34
	cvttsd2si	%xmm0, %eax
.Ltmp430:
	#DEBUG_VALUE: tempSample1 <- %ax
	.loc	53 137 11               # src/audio.cpp:137:11
	movw	%ax, 8(%rsp)
	.loc	53 138 3 is_stmt 1      # src/audio.cpp:138:3
	movq	16(%r14), %rdi
	.loc	53 138 15 is_stmt 0     # src/audio.cpp:138:15
	movl	$2, %edx
	movq	%r15, %rsi
	callq	_ZNSo5writeEPKcl
.Ltmp431:
	.loc	53 139 3 is_stmt 1      # src/audio.cpp:139:3
	movq	16(%r14), %rdi
	.loc	53 139 15 is_stmt 0     # src/audio.cpp:139:15
	movl	$2, %edx
	movq	%r12, %rsi
	callq	_ZNSo5writeEPKcl
.Ltmp432:
	.loc	53 133 35 is_stmt 1     # src/audio.cpp:133:35
	addq	$4, %rbx
	cmpq	$4096, %rbx             # imm = 0x1000
.Ltmp433:
	.loc	53 133 2 is_stmt 0      # src/audio.cpp:133:2
	jne	.LBB76_1
.Ltmp434:
# %bb.2:
	#DEBUG_VALUE: writeFile:this <- %r14
	#DEBUG_VALUE: writeFile:resultSample <- %r13
	.loc	53 141 1 is_stmt 1      # src/audio.cpp:141:1
	addq	$16, %rsp
	popq	%rbx
	popq	%r12
	popq	%r13
.Ltmp435:
	popq	%r14
.Ltmp436:
	popq	%r15
	retq
.Ltmp437:
.Lfunc_end76:
	.size	_ZN12ILLIXR_AUDIO7ABAudio9writeFileEPPf, .Lfunc_end76-_ZN12ILLIXR_AUDIO7ABAudio9writeFileEPPf
	.cfi_endproc
                                        # -- End function
	.section	.text._ZSt3minIfERKT_S2_S2_,"axG",@progbits,_ZSt3minIfERKT_S2_S2_,comdat
	.weak	_ZSt3minIfERKT_S2_S2_   # -- Begin function _ZSt3minIfERKT_S2_S2_
	.p2align	4, 0x90
	.type	_ZSt3minIfERKT_S2_S2_,@function
_ZSt3minIfERKT_S2_S2_:                  # @_ZSt3minIfERKT_S2_S2_
.Lfunc_begin77:
	.loc	73 199 0                # /usr/lib/gcc/x86_64-linux-gnu/9/../../../../include/c++/9/bits/stl_algobase.h:199:0
	.cfi_startproc
# %bb.0:
	#DEBUG_VALUE: min<float>:__a <- %rdi
	#DEBUG_VALUE: min<float>:__a <- %rdi
	#DEBUG_VALUE: min<float>:__b <- %rsi
	#DEBUG_VALUE: min<float>:__b <- %rsi
	.loc	73 203 17 prologue_end  # /usr/lib/gcc/x86_64-linux-gnu/9/../../../../include/c++/9/bits/stl_algobase.h:203:17
	movss	(%rdi), %xmm0           # xmm0 = mem[0],zero,zero,zero
	.loc	73 203 15 is_stmt 0     # /usr/lib/gcc/x86_64-linux-gnu/9/../../../../include/c++/9/bits/stl_algobase.h:203:15
	ucomiss	(%rsi), %xmm0
	.loc	73 204 2 is_stmt 1      # /usr/lib/gcc/x86_64-linux-gnu/9/../../../../include/c++/9/bits/stl_algobase.h:204:2
	cmovaq	%rsi, %rdi
.Ltmp438:
	.loc	73 206 5                # /usr/lib/gcc/x86_64-linux-gnu/9/../../../../include/c++/9/bits/stl_algobase.h:206:5
	movq	%rdi, %rax
	retq
.Ltmp439:
.Lfunc_end77:
	.size	_ZSt3minIfERKT_S2_S2_, .Lfunc_end77-_ZSt3minIfERKT_S2_S2_
	.cfi_endproc
                                        # -- End function
	.section	.text._ZSt3maxIfERKT_S2_S2_,"axG",@progbits,_ZSt3maxIfERKT_S2_S2_,comdat
	.weak	_ZSt3maxIfERKT_S2_S2_   # -- Begin function _ZSt3maxIfERKT_S2_S2_
	.p2align	4, 0x90
	.type	_ZSt3maxIfERKT_S2_S2_,@function
_ZSt3maxIfERKT_S2_S2_:                  # @_ZSt3maxIfERKT_S2_S2_
.Lfunc_begin78:
	.loc	73 223 0                # /usr/lib/gcc/x86_64-linux-gnu/9/../../../../include/c++/9/bits/stl_algobase.h:223:0
	.cfi_startproc
# %bb.0:
	#DEBUG_VALUE: max<float>:__a <- %rdi
	#DEBUG_VALUE: max<float>:__a <- %rdi
	#DEBUG_VALUE: max<float>:__b <- %rsi
	#DEBUG_VALUE: max<float>:__b <- %rsi
	.loc	73 227 17 prologue_end  # /usr/lib/gcc/x86_64-linux-gnu/9/../../../../include/c++/9/bits/stl_algobase.h:227:17
	movss	(%rsi), %xmm0           # xmm0 = mem[0],zero,zero,zero
	.loc	73 227 15 is_stmt 0     # /usr/lib/gcc/x86_64-linux-gnu/9/../../../../include/c++/9/bits/stl_algobase.h:227:15
	ucomiss	(%rdi), %xmm0
	.loc	73 228 2 is_stmt 1      # /usr/lib/gcc/x86_64-linux-gnu/9/../../../../include/c++/9/bits/stl_algobase.h:228:2
	cmovaq	%rsi, %rdi
.Ltmp440:
	.loc	73 230 5                # /usr/lib/gcc/x86_64-linux-gnu/9/../../../../include/c++/9/bits/stl_algobase.h:230:5
	movq	%rdi, %rax
	retq
.Ltmp441:
.Lfunc_end78:
	.size	_ZSt3maxIfERKT_S2_S2_, .Lfunc_end78-_ZSt3maxIfERKT_S2_S2_
	.cfi_endproc
                                        # -- End function
	.section	.rodata.cst8,"aM",@progbits,8
	.p2align	3               # -- Begin function _ZN12ILLIXR_AUDIO7ABAudio14updateRotationEv
.LCPI79_0:
	.quad	4654311885213007872     # double 1500
.LCPI79_1:
	.quad	4614253070214989087     # double 3.1400000000000001
	.text
	.globl	_ZN12ILLIXR_AUDIO7ABAudio14updateRotationEv
	.p2align	4, 0x90
	.type	_ZN12ILLIXR_AUDIO7ABAudio14updateRotationEv,@function
_ZN12ILLIXR_AUDIO7ABAudio14updateRotationEv: # @_ZN12ILLIXR_AUDIO7ABAudio14updateRotationEv
.Lfunc_begin79:
	.loc	53 109 0                # src/audio.cpp:109:0
	.cfi_startproc
# %bb.0:
	.loc	53 111 7 prologue_end   # src/audio.cpp:111:7
	pushq	%rbx
	.cfi_def_cfa_offset 16
	subq	$48, %rsp
	.cfi_def_cfa_offset 64
	.cfi_offset %rbx, -16
	#DEBUG_VALUE: updateRotation:this <- %rdi
	movl	_ZZN12ILLIXR_AUDIO7ABAudio14updateRotationEvE5frame(%rip), %eax
	addl	$1, %eax
	movl	%eax, _ZZN12ILLIXR_AUDIO7ABAudio14updateRotationEvE5frame(%rip)
	.loc	53 112 27               # src/audio.cpp:112:27
	cvtsi2sdl	%eax, %xmm0
	.loc	53 112 32 is_stmt 0     # src/audio.cpp:112:32
	divsd	.LCPI79_0(%rip), %xmm0
	.loc	53 112 37               # src/audio.cpp:112:37
	mulsd	.LCPI79_1(%rip), %xmm0
	movq	%rdi, %rbx
.Ltmp442:
	#DEBUG_VALUE: updateRotation:this <- %rbx
	.loc	53 112 42               # src/audio.cpp:112:42
	addsd	%xmm0, %xmm0
	.loc	53 112 23               # src/audio.cpp:112:23
	cvtsd2ss	%xmm0, %xmm2
	leaq	24(%rsp), %rdi
.Ltmp443:
	#DEBUG_VALUE: updateRotation:head <- [DW_OP_plus_uconst 24] [%rsp+0]
	.loc	53 112 14               # src/audio.cpp:112:14
	xorpd	%xmm0, %xmm0
	xorps	%xmm1, %xmm1
	callq	_ZN11OrientationC2Efff
	.loc	53 113 2 is_stmt 1      # src/audio.cpp:113:2
	movq	32(%rbx), %rdi
	.loc	53 113 11 is_stmt 0     # src/audio.cpp:113:11
	movq	40(%rsp), %rax
	movq	%rax, 16(%rsp)
	movups	24(%rsp), %xmm0
	movups	%xmm0, (%rsp)
	callq	_ZN19CAmbisonicProcessor14SetOrientationE11Orientation
	.loc	53 114 2 is_stmt 1      # src/audio.cpp:114:2
	movq	32(%rbx), %rdi
	.loc	53 114 11 is_stmt 0     # src/audio.cpp:114:11
	movq	(%rdi), %rax
	callq	*32(%rax)
	.loc	53 115 1 is_stmt 1      # src/audio.cpp:115:1
	addq	$48, %rsp
.Ltmp444:
	popq	%rbx
.Ltmp445:
	retq
.Ltmp446:
.Lfunc_end79:
	.size	_ZN12ILLIXR_AUDIO7ABAudio14updateRotationEv, .Lfunc_end79-_ZN12ILLIXR_AUDIO7ABAudio14updateRotationEv
	.cfi_endproc
                                        # -- End function
	.globl	_ZN12ILLIXR_AUDIO7ABAudio10updateZoomEv # -- Begin function _ZN12ILLIXR_AUDIO7ABAudio10updateZoomEv
	.p2align	4, 0x90
	.type	_ZN12ILLIXR_AUDIO7ABAudio10updateZoomEv,@function
_ZN12ILLIXR_AUDIO7ABAudio10updateZoomEv: # @_ZN12ILLIXR_AUDIO7ABAudio10updateZoomEv
.Lfunc_begin80:
	.loc	53 117 0                # src/audio.cpp:117:0
	.cfi_startproc
# %bb.0:
	pushq	%r14
	.cfi_def_cfa_offset 16
	pushq	%rbx
	.cfi_def_cfa_offset 24
	pushq	%rax
	.cfi_def_cfa_offset 32
	.cfi_offset %rbx, -24
	.cfi_offset %r14, -16
	#DEBUG_VALUE: updateZoom:this <- %rdi
	movq	%rdi, %rbx
.Ltmp447:
	#DEBUG_VALUE: updateZoom:this <- %rbx
	.loc	53 119 7 prologue_end   # src/audio.cpp:119:7
	movl	_ZZN12ILLIXR_AUDIO7ABAudio10updateZoomEvE5frame(%rip), %eax
	addl	$1, %eax
	movl	%eax, _ZZN12ILLIXR_AUDIO7ABAudio10updateZoomEvE5frame(%rip)
	.loc	53 120 2                # src/audio.cpp:120:2
	movq	40(%rbx), %r14
	.loc	53 120 28 is_stmt 0     # src/audio.cpp:120:28
	cltq
	imulq	$1374389535, %rax, %rax # imm = 0x51EB851F
	movq	%rax, %rcx
	shrq	$63, %rcx
	sarq	$37, %rax
	addl	%ecx, %eax
	.loc	53 120 23               # src/audio.cpp:120:23
	cvtsi2ssl	%eax, %xmm0
	.loc	53 120 18               # src/audio.cpp:120:18
	callq	sinf
	.loc	53 120 10               # src/audio.cpp:120:10
	movq	%r14, %rdi
	callq	_ZN16CAmbisonicZoomer7SetZoomEf
	.loc	53 121 2 is_stmt 1      # src/audio.cpp:121:2
	movq	40(%rbx), %rdi
	.loc	53 121 10 is_stmt 0     # src/audio.cpp:121:10
	movq	(%rdi), %rax
	addq	$8, %rsp
	popq	%rbx
.Ltmp448:
	popq	%r14
	jmpq	*32(%rax)               # TAILCALL
.Ltmp449:
.Lfunc_end80:
	.size	_ZN12ILLIXR_AUDIO7ABAudio10updateZoomEv, .Lfunc_end80-_ZN12ILLIXR_AUDIO7ABAudio10updateZoomEv
	.cfi_endproc
                                        # -- End function
	.section	.rodata.cst4,"aM",@progbits,4
	.p2align	2               # -- Begin function _ZN11OrientationC2Efff
.LCPI81_0:
	.long	1065353216              # float 1
.LCPI81_1:
	.long	3212836864              # float -1
	.section	.rodata.cst16,"aM",@progbits,16
	.p2align	4
.LCPI81_2:
	.long	2147483648              # float -0
	.long	2147483648              # float -0
	.long	2147483648              # float -0
	.long	2147483648              # float -0
	.section	.text._ZN11OrientationC2Efff,"axG",@progbits,_ZN11OrientationC2Efff,comdat
	.weak	_ZN11OrientationC2Efff
	.p2align	4, 0x90
	.type	_ZN11OrientationC2Efff,@function
_ZN11OrientationC2Efff:                 # @_ZN11OrientationC2Efff
.Lfunc_begin81:
	.file	75 "/home/yingj4/Desktop/cs598jtfa20/project/audio_pipeline/./libspatialaudio/build/Release/include/spatialaudio/AmbisonicProcessor.h"
	.loc	75 49 0 is_stmt 1       # ./libspatialaudio/build/Release/include/spatialaudio/AmbisonicProcessor.h:49:0
	.cfi_startproc
# %bb.0:
	pushq	%rbx
	.cfi_def_cfa_offset 16
	subq	$48, %rsp
	.cfi_def_cfa_offset 64
	.cfi_offset %rbx, -16
	#DEBUG_VALUE: Orientation:this <- %rdi
	#DEBUG_VALUE: Orientation:fYaw <- %xmm0
	#DEBUG_VALUE: Orientation:fPitch <- %xmm1
	#DEBUG_VALUE: Orientation:fRoll <- %xmm2
	movss	%xmm2, 12(%rsp)         # 4-byte Spill
	movss	%xmm1, 20(%rsp)         # 4-byte Spill
	movss	%xmm0, 32(%rsp)         # 4-byte Spill
	movq	%rdi, %rbx
	#DEBUG_VALUE: Orientation:fRoll <- %xmm2
	#DEBUG_VALUE: Orientation:fPitch <- %xmm1
	#DEBUG_VALUE: Orientation:fYaw <- %xmm0
.Ltmp450:
	#DEBUG_VALUE: Orientation:this <- %rbx
	.loc	75 48 11 prologue_end   # ./libspatialaudio/build/Release/include/spatialaudio/AmbisonicProcessor.h:48:11
	movss	%xmm0, (%rbx)
	.loc	75 48 23 is_stmt 0      # ./libspatialaudio/build/Release/include/spatialaudio/AmbisonicProcessor.h:48:23
	movss	%xmm1, 4(%rbx)
.Ltmp451:
	#DEBUG_VALUE: Orientation:fPitch <- [DW_OP_plus_uconst 20] [%rsp+0]
	.loc	75 48 39                # ./libspatialaudio/build/Release/include/spatialaudio/AmbisonicProcessor.h:48:39
	movss	%xmm2, 8(%rbx)
.Ltmp452:
	#DEBUG_VALUE: Orientation:fRoll <- [DW_OP_plus_uconst 12] [%rsp+0]
	#DEBUG_VALUE: Orientation:fYaw <- [DW_OP_plus_uconst 32] [%rsp+0]
	.loc	75 50 25 is_stmt 1      # ./libspatialaudio/build/Release/include/spatialaudio/AmbisonicProcessor.h:50:25
	callq	cosf
	movss	%xmm0, 16(%rsp)         # 4-byte Spill
.Ltmp453:
	#DEBUG_VALUE: fCosYaw <- [DW_OP_plus_uconst 16] [%rsp+0]
	.loc	75 51 25                # ./libspatialaudio/build/Release/include/spatialaudio/AmbisonicProcessor.h:51:25
	movss	32(%rsp), %xmm0         # 4-byte Reload
                                        # xmm0 = mem[0],zero,zero,zero
	callq	sinf
	movaps	%xmm0, 32(%rsp)         # 16-byte Spill
.Ltmp454:
	#DEBUG_VALUE: fSinYaw <- [DW_OP_plus_uconst 32] [%rsp+0]
	.loc	75 52 26                # ./libspatialaudio/build/Release/include/spatialaudio/AmbisonicProcessor.h:52:26
	movss	12(%rsp), %xmm0         # 4-byte Reload
                                        # xmm0 = mem[0],zero,zero,zero
	callq	cosf
	movss	%xmm0, 28(%rsp)         # 4-byte Spill
.Ltmp455:
	#DEBUG_VALUE: fCosRoll <- [DW_OP_plus_uconst 28] [%rsp+0]
	.loc	75 53 26                # ./libspatialaudio/build/Release/include/spatialaudio/AmbisonicProcessor.h:53:26
	movss	12(%rsp), %xmm0         # 4-byte Reload
                                        # xmm0 = mem[0],zero,zero,zero
	callq	sinf
	movss	%xmm0, 24(%rsp)         # 4-byte Spill
.Ltmp456:
	#DEBUG_VALUE: fSinRoll <- [DW_OP_plus_uconst 24] [%rsp+0]
	.loc	75 54 27                # ./libspatialaudio/build/Release/include/spatialaudio/AmbisonicProcessor.h:54:27
	movss	20(%rsp), %xmm0         # 4-byte Reload
                                        # xmm0 = mem[0],zero,zero,zero
	callq	cosf
	movss	%xmm0, 12(%rsp)         # 4-byte Spill
.Ltmp457:
	#DEBUG_VALUE: fCosPitch <- [DW_OP_plus_uconst 12] [%rsp+0]
	.loc	75 55 27                # ./libspatialaudio/build/Release/include/spatialaudio/AmbisonicProcessor.h:55:27
	movss	20(%rsp), %xmm0         # 4-byte Reload
                                        # xmm0 = mem[0],zero,zero,zero
	callq	sinf
	movss	28(%rsp), %xmm5         # 4-byte Reload
                                        # xmm5 = mem[0],zero,zero,zero
.Ltmp458:
	#DEBUG_VALUE: fCosRoll <- %xmm5
	movaps	%xmm0, %xmm4
.Ltmp459:
	#DEBUG_VALUE: fSinPitch <- %xmm4
	.loc	75 0 27 is_stmt 0       # ./libspatialaudio/build/Release/include/spatialaudio/AmbisonicProcessor.h:0:27
	movss	12(%rsp), %xmm0         # 4-byte Reload
                                        # xmm0 = mem[0],zero,zero,zero
.Ltmp460:
	#DEBUG_VALUE: fCosPitch <- %xmm0
	.loc	75 59 31 is_stmt 1      # ./libspatialaudio/build/Release/include/spatialaudio/AmbisonicProcessor.h:59:31
	movaps	%xmm5, %xmm6
	mulss	%xmm0, %xmm6
.Ltmp461:
	#DEBUG_VALUE: r33 <- %xmm6
	.loc	75 60 13                # ./libspatialaudio/build/Release/include/spatialaudio/AmbisonicProcessor.h:60:13
	ucomiss	.LCPI81_0(%rip), %xmm6
	jne	.LBB81_2
	jp	.LBB81_2
.Ltmp462:
# %bb.1:
	#DEBUG_VALUE: r33 <- %xmm6
	#DEBUG_VALUE: fCosPitch <- %xmm0
	#DEBUG_VALUE: fSinPitch <- %xmm4
	#DEBUG_VALUE: fCosRoll <- %xmm5
	#DEBUG_VALUE: fSinRoll <- [DW_OP_plus_uconst 24] [%rsp+0]
	#DEBUG_VALUE: fSinYaw <- [DW_OP_plus_uconst 32] [%rsp+0]
	#DEBUG_VALUE: fCosYaw <- [DW_OP_plus_uconst 16] [%rsp+0]
	#DEBUG_VALUE: Orientation:fYaw <- [DW_OP_plus_uconst 32] [%rsp+0]
	#DEBUG_VALUE: Orientation:fRoll <- [DW_OP_plus_uconst 12] [%rsp+0]
	#DEBUG_VALUE: Orientation:fPitch <- [DW_OP_plus_uconst 20] [%rsp+0]
	#DEBUG_VALUE: Orientation:this <- %rbx
	.loc	75 62 19                # ./libspatialaudio/build/Release/include/spatialaudio/AmbisonicProcessor.h:62:19
	movq	$0, 16(%rbx)
	.loc	75 64 22                # ./libspatialaudio/build/Release/include/spatialaudio/AmbisonicProcessor.h:64:22
	movaps	32(%rsp), %xmm0         # 16-byte Reload
.Ltmp463:
	movss	16(%rsp), %xmm1         # 4-byte Reload
                                        # xmm1 = mem[0],zero,zero,zero
	jmp	.LBB81_4
.Ltmp464:
.LBB81_2:
	#DEBUG_VALUE: r33 <- %xmm6
	#DEBUG_VALUE: fCosPitch <- %xmm0
	#DEBUG_VALUE: fSinPitch <- %xmm4
	#DEBUG_VALUE: fCosRoll <- %xmm5
	#DEBUG_VALUE: fSinRoll <- [DW_OP_plus_uconst 24] [%rsp+0]
	#DEBUG_VALUE: fSinYaw <- [DW_OP_plus_uconst 32] [%rsp+0]
	#DEBUG_VALUE: fCosYaw <- [DW_OP_plus_uconst 16] [%rsp+0]
	#DEBUG_VALUE: Orientation:fYaw <- [DW_OP_plus_uconst 32] [%rsp+0]
	#DEBUG_VALUE: Orientation:fRoll <- [DW_OP_plus_uconst 12] [%rsp+0]
	#DEBUG_VALUE: Orientation:fPitch <- [DW_OP_plus_uconst 20] [%rsp+0]
	#DEBUG_VALUE: Orientation:this <- %rbx
	.loc	75 0 22 is_stmt 0       # ./libspatialaudio/build/Release/include/spatialaudio/AmbisonicProcessor.h:0:22
	movss	24(%rsp), %xmm3         # 4-byte Reload
                                        # xmm3 = mem[0],zero,zero,zero
	movaps	32(%rsp), %xmm2         # 16-byte Reload
	movss	16(%rsp), %xmm1         # 4-byte Reload
                                        # xmm1 = mem[0],zero,zero,zero
.Ltmp465:
	.loc	75 68 17 is_stmt 1      # ./libspatialaudio/build/Release/include/spatialaudio/AmbisonicProcessor.h:68:17
	ucomiss	.LCPI81_1(%rip), %xmm6
	jne	.LBB81_5
	jp	.LBB81_5
.Ltmp466:
# %bb.3:
	#DEBUG_VALUE: r33 <- %xmm6
	#DEBUG_VALUE: fCosPitch <- %xmm0
	#DEBUG_VALUE: fSinPitch <- %xmm4
	#DEBUG_VALUE: fCosRoll <- %xmm5
	#DEBUG_VALUE: fSinRoll <- [DW_OP_plus_uconst 24] [%rsp+0]
	#DEBUG_VALUE: fSinYaw <- [DW_OP_plus_uconst 32] [%rsp+0]
	#DEBUG_VALUE: fCosYaw <- [DW_OP_plus_uconst 16] [%rsp+0]
	#DEBUG_VALUE: Orientation:fYaw <- [DW_OP_plus_uconst 32] [%rsp+0]
	#DEBUG_VALUE: Orientation:fRoll <- [DW_OP_plus_uconst 12] [%rsp+0]
	#DEBUG_VALUE: Orientation:fPitch <- [DW_OP_plus_uconst 20] [%rsp+0]
	#DEBUG_VALUE: Orientation:this <- %rbx
	.loc	75 70 23                # ./libspatialaudio/build/Release/include/spatialaudio/AmbisonicProcessor.h:70:23
	movq	$1078530011, 16(%rbx)   # imm = 0x40490FDB
	movaps	.LCPI81_2(%rip), %xmm0  # xmm0 = [-0.000000e+00,-0.000000e+00,-0.000000e+00,-0.000000e+00]
.Ltmp467:
	.loc	75 72 32                # ./libspatialaudio/build/Release/include/spatialaudio/AmbisonicProcessor.h:72:32
	xorps	%xmm2, %xmm0
.Ltmp468:
.LBB81_4:
	#DEBUG_VALUE: Orientation:fYaw <- [DW_OP_plus_uconst 32] [%rsp+0]
	#DEBUG_VALUE: Orientation:fRoll <- [DW_OP_plus_uconst 12] [%rsp+0]
	#DEBUG_VALUE: Orientation:fPitch <- [DW_OP_plus_uconst 20] [%rsp+0]
	#DEBUG_VALUE: Orientation:this <- %rbx
	.loc	75 0 32 is_stmt 0       # ./libspatialaudio/build/Release/include/spatialaudio/AmbisonicProcessor.h:0:32
	callq	_ZSt5atan2ff
	movss	%xmm0, 12(%rbx)
.Ltmp469:
.LBB81_6:
	#DEBUG_VALUE: Orientation:fYaw <- [DW_OP_plus_uconst 32] [%rsp+0]
	#DEBUG_VALUE: Orientation:fRoll <- [DW_OP_plus_uconst 12] [%rsp+0]
	#DEBUG_VALUE: Orientation:fPitch <- [DW_OP_plus_uconst 20] [%rsp+0]
	#DEBUG_VALUE: Orientation:this <- %rbx
	.loc	75 88 5 is_stmt 1       # ./libspatialaudio/build/Release/include/spatialaudio/AmbisonicProcessor.h:88:5
	addq	$48, %rsp
.Ltmp470:
	popq	%rbx
.Ltmp471:
	retq
.LBB81_5:
.Ltmp472:
	#DEBUG_VALUE: r33 <- %xmm6
	#DEBUG_VALUE: fCosPitch <- %xmm0
	#DEBUG_VALUE: fSinPitch <- %xmm4
	#DEBUG_VALUE: fCosRoll <- %xmm5
	#DEBUG_VALUE: fSinRoll <- [DW_OP_plus_uconst 24] [%rsp+0]
	#DEBUG_VALUE: fSinYaw <- [DW_OP_plus_uconst 32] [%rsp+0]
	#DEBUG_VALUE: fCosYaw <- [DW_OP_plus_uconst 16] [%rsp+0]
	#DEBUG_VALUE: Orientation:fYaw <- [DW_OP_plus_uconst 32] [%rsp+0]
	#DEBUG_VALUE: Orientation:fRoll <- [DW_OP_plus_uconst 12] [%rsp+0]
	#DEBUG_VALUE: Orientation:fPitch <- [DW_OP_plus_uconst 20] [%rsp+0]
	#DEBUG_VALUE: Orientation:this <- %rbx
	.loc	75 77 38                # ./libspatialaudio/build/Release/include/spatialaudio/AmbisonicProcessor.h:77:38
	movaps	%xmm1, %xmm0
.Ltmp473:
	mulss	%xmm3, %xmm0
.Ltmp474:
	#DEBUG_VALUE: r32 <- %xmm5
	.loc	75 78 38                # ./libspatialaudio/build/Release/include/spatialaudio/AmbisonicProcessor.h:78:38
	mulss	%xmm5, %xmm1
	.loc	75 77 60                # ./libspatialaudio/build/Release/include/spatialaudio/AmbisonicProcessor.h:77:60
	mulss	%xmm4, %xmm5
.Ltmp475:
	.loc	75 77 72 is_stmt 0      # ./libspatialaudio/build/Release/include/spatialaudio/AmbisonicProcessor.h:77:72
	mulss	%xmm2, %xmm5
	.loc	75 77 49                # ./libspatialaudio/build/Release/include/spatialaudio/AmbisonicProcessor.h:77:49
	subss	%xmm0, %xmm5
	.loc	75 78 48 is_stmt 1      # ./libspatialaudio/build/Release/include/spatialaudio/AmbisonicProcessor.h:78:48
	mulss	%xmm4, %xmm1
	.loc	75 78 71 is_stmt 0      # ./libspatialaudio/build/Release/include/spatialaudio/AmbisonicProcessor.h:78:71
	mulss	%xmm3, %xmm2
	.loc	75 78 60                # ./libspatialaudio/build/Release/include/spatialaudio/AmbisonicProcessor.h:78:60
	addss	%xmm1, %xmm2
.Ltmp476:
	#DEBUG_VALUE: r31 <- %xmm2
	.loc	75 79 26 is_stmt 1      # ./libspatialaudio/build/Release/include/spatialaudio/AmbisonicProcessor.h:79:26
	movaps	%xmm5, %xmm0
	movaps	%xmm2, %xmm1
	movss	%xmm4, 20(%rsp)         # 4-byte Spill
.Ltmp477:
	#DEBUG_VALUE: fSinPitch <- [DW_OP_plus_uconst 20] [%rsp+0]
	.loc	75 0 26 is_stmt 0       # ./libspatialaudio/build/Release/include/spatialaudio/AmbisonicProcessor.h:0:26
	movss	%xmm6, 16(%rsp)         # 4-byte Spill
.Ltmp478:
	#DEBUG_VALUE: r33 <- [DW_OP_plus_uconst 16] [%rsp+0]
	.loc	75 79 26                # ./libspatialaudio/build/Release/include/spatialaudio/AmbisonicProcessor.h:79:26
	callq	_ZSt5atan2ff
.Ltmp479:
	.loc	75 79 24                # ./libspatialaudio/build/Release/include/spatialaudio/AmbisonicProcessor.h:79:24
	movss	%xmm0, 12(%rbx)
	.loc	75 81 25 is_stmt 1      # ./libspatialaudio/build/Release/include/spatialaudio/AmbisonicProcessor.h:81:25
	movss	16(%rsp), %xmm0         # 4-byte Reload
                                        # xmm0 = mem[0],zero,zero,zero
	callq	_ZSt4acosf
	.loc	75 81 23 is_stmt 0      # ./libspatialaudio/build/Release/include/spatialaudio/AmbisonicProcessor.h:81:23
	movss	%xmm0, 16(%rbx)
	movss	12(%rsp), %xmm0         # 4-byte Reload
                                        # xmm0 = mem[0],zero,zero,zero
	.loc	75 83 39 is_stmt 1      # ./libspatialaudio/build/Release/include/spatialaudio/AmbisonicProcessor.h:83:39
	mulss	24(%rsp), %xmm0         # 4-byte Folded Reload
.Ltmp480:
	#DEBUG_VALUE: r23 <- %xmm0
	.loc	75 85 26                # ./libspatialaudio/build/Release/include/spatialaudio/AmbisonicProcessor.h:85:26
	movss	20(%rsp), %xmm1         # 4-byte Reload
                                        # xmm1 = mem[0],zero,zero,zero
	callq	_ZSt5atan2ff
.Ltmp481:
	.loc	75 85 24 is_stmt 0      # ./libspatialaudio/build/Release/include/spatialaudio/AmbisonicProcessor.h:85:24
	movss	%xmm0, 20(%rbx)
	jmp	.LBB81_6
.Ltmp482:
.Lfunc_end81:
	.size	_ZN11OrientationC2Efff, .Lfunc_end81-_ZN11OrientationC2Efff
	.cfi_endproc
                                        # -- End function
	.section	.text._ZSt5atan2ff,"axG",@progbits,_ZSt5atan2ff,comdat
	.weak	_ZSt5atan2ff            # -- Begin function _ZSt5atan2ff
	.p2align	4, 0x90
	.type	_ZSt5atan2ff,@function
_ZSt5atan2ff:                           # @_ZSt5atan2ff
.Lfunc_begin82:
	.loc	8 145 0 is_stmt 1       # /usr/lib/gcc/x86_64-linux-gnu/9/../../../../include/c++/9/cmath:145:0
	.cfi_startproc
# %bb.0:
	#DEBUG_VALUE: atan2:__y <- %xmm0
	#DEBUG_VALUE: atan2:__y <- %xmm0
	#DEBUG_VALUE: atan2:__y <- %xmm0
	#DEBUG_VALUE: atan2:__x <- %xmm1
	#DEBUG_VALUE: atan2:__x <- %xmm1
	#DEBUG_VALUE: atan2:__x <- %xmm1
	.loc	8 145 12 prologue_end   # /usr/lib/gcc/x86_64-linux-gnu/9/../../../../include/c++/9/cmath:145:12
	jmp	atan2f                  # TAILCALL
.Ltmp483:
.Lfunc_end82:
	.size	_ZSt5atan2ff, .Lfunc_end82-_ZSt5atan2ff
	.cfi_endproc
                                        # -- End function
	.section	.text._ZSt4acosf,"axG",@progbits,_ZSt4acosf,comdat
	.weak	_ZSt4acosf              # -- Begin function _ZSt4acosf
	.p2align	4, 0x90
	.type	_ZSt4acosf,@function
_ZSt4acosf:                             # @_ZSt4acosf
.Lfunc_begin83:
	.loc	8 88 0                  # /usr/lib/gcc/x86_64-linux-gnu/9/../../../../include/c++/9/cmath:88:0
	.cfi_startproc
# %bb.0:
	#DEBUG_VALUE: acos:__x <- %xmm0
	#DEBUG_VALUE: acos:__x <- %xmm0
	#DEBUG_VALUE: acos:__x <- %xmm0
	.loc	8 88 12 prologue_end    # /usr/lib/gcc/x86_64-linux-gnu/9/../../../../include/c++/9/cmath:88:12
	jmp	acosf                   # TAILCALL
.Ltmp484:
.Lfunc_end83:
	.size	_ZSt4acosf, .Lfunc_end83-_ZSt4acosf
	.cfi_endproc
                                        # -- End function
	.section	.text._ZNSt10unique_ptrIA_PfSt14default_deleteIS1_EED2Ev,"axG",@progbits,_ZNSt10unique_ptrIA_PfSt14default_deleteIS1_EED2Ev,comdat
	.weak	_ZNSt10unique_ptrIA_PfSt14default_deleteIS1_EED2Ev # -- Begin function _ZNSt10unique_ptrIA_PfSt14default_deleteIS1_EED2Ev
	.p2align	4, 0x90
	.type	_ZNSt10unique_ptrIA_PfSt14default_deleteIS1_EED2Ev,@function
_ZNSt10unique_ptrIA_PfSt14default_deleteIS1_EED2Ev: # @_ZNSt10unique_ptrIA_PfSt14default_deleteIS1_EED2Ev
.Lfunc_begin84:
	.file	76 "/usr/lib/gcc/x86_64-linux-gnu/9/../../../../include/c++/9/bits/unique_ptr.h"
	.loc	76 556 0                # /usr/lib/gcc/x86_64-linux-gnu/9/../../../../include/c++/9/bits/unique_ptr.h:556:0
	.cfi_startproc
# %bb.0:
	pushq	%r14
	.cfi_def_cfa_offset 16
	pushq	%rbx
	.cfi_def_cfa_offset 24
	pushq	%rax
	.cfi_def_cfa_offset 32
	.cfi_offset %rbx, -24
	.cfi_offset %r14, -16
	#DEBUG_VALUE: ~unique_ptr:this <- %rdi
	movq	%rdi, %r14
.Ltmp485:
	#DEBUG_VALUE: ~unique_ptr:this <- %r14
	.loc	76 557 21 prologue_end  # /usr/lib/gcc/x86_64-linux-gnu/9/../../../../include/c++/9/bits/unique_ptr.h:557:21
	callq	_ZNSt15__uniq_ptr_implIPfSt14default_deleteIA_S0_EE6_M_ptrEv
	movq	%rax, %rbx
.Ltmp486:
	#DEBUG_VALUE: __ptr <- %rbx
	.loc	76 558 12               # /usr/lib/gcc/x86_64-linux-gnu/9/../../../../include/c++/9/bits/unique_ptr.h:558:12
	cmpq	$0, (%rbx)
.Ltmp487:
	.loc	76 558 6 is_stmt 0      # /usr/lib/gcc/x86_64-linux-gnu/9/../../../../include/c++/9/bits/unique_ptr.h:558:6
	je	.LBB84_2
.Ltmp488:
# %bb.1:
	#DEBUG_VALUE: __ptr <- %rbx
	#DEBUG_VALUE: ~unique_ptr:this <- %r14
	.loc	76 559 4 is_stmt 1      # /usr/lib/gcc/x86_64-linux-gnu/9/../../../../include/c++/9/bits/unique_ptr.h:559:4
	movq	%r14, %rdi
	callq	_ZNSt10unique_ptrIA_PfSt14default_deleteIS1_EE11get_deleterEv
	.loc	76 559 18 is_stmt 0     # /usr/lib/gcc/x86_64-linux-gnu/9/../../../../include/c++/9/bits/unique_ptr.h:559:18
	movq	(%rbx), %rsi
	.loc	76 559 4                # /usr/lib/gcc/x86_64-linux-gnu/9/../../../../include/c++/9/bits/unique_ptr.h:559:4
	movq	%rax, %rdi
	callq	_ZNKSt14default_deleteIA_PfEclIS0_EENSt9enable_ifIXsr14is_convertibleIPA_T_PS1_EE5valueEvE4typeEPS5_
.Ltmp489:
.LBB84_2:
	#DEBUG_VALUE: __ptr <- %rbx
	#DEBUG_VALUE: ~unique_ptr:this <- %r14
	.loc	76 560 8 is_stmt 1      # /usr/lib/gcc/x86_64-linux-gnu/9/../../../../include/c++/9/bits/unique_ptr.h:560:8
	movq	$0, (%rbx)
.Ltmp490:
	.loc	76 561 7                # /usr/lib/gcc/x86_64-linux-gnu/9/../../../../include/c++/9/bits/unique_ptr.h:561:7
	addq	$8, %rsp
	popq	%rbx
.Ltmp491:
	popq	%r14
.Ltmp492:
	retq
.Ltmp493:
.Lfunc_end84:
	.size	_ZNSt10unique_ptrIA_PfSt14default_deleteIS1_EED2Ev, .Lfunc_end84-_ZNSt10unique_ptrIA_PfSt14default_deleteIS1_EED2Ev
	.cfi_endproc
	.file	77 "/usr/lib/gcc/x86_64-linux-gnu/9/../../../../include/c++/9/tuple"
	.file	78 "/usr/lib/gcc/x86_64-linux-gnu/9/../../../../include/c++/9/bits/uses_allocator.h"
                                        # -- End function
	.section	.text._ZNSt6vectorIfSaIfEED2Ev,"axG",@progbits,_ZNSt6vectorIfSaIfEED2Ev,comdat
	.weak	_ZNSt6vectorIfSaIfEED2Ev # -- Begin function _ZNSt6vectorIfSaIfEED2Ev
	.p2align	4, 0x90
	.type	_ZNSt6vectorIfSaIfEED2Ev,@function
_ZNSt6vectorIfSaIfEED2Ev:               # @_ZNSt6vectorIfSaIfEED2Ev
.Lfunc_begin85:
	.loc	49 676 0                # /usr/lib/gcc/x86_64-linux-gnu/9/../../../../include/c++/9/bits/stl_vector.h:676:0
	.cfi_startproc
	.cfi_personality 3, __gxx_personality_v0
	.cfi_lsda 3, .Lexception5
# %bb.0:
	pushq	%r15
	.cfi_def_cfa_offset 16
	pushq	%r14
	.cfi_def_cfa_offset 24
	pushq	%rbx
	.cfi_def_cfa_offset 32
	.cfi_offset %rbx, -32
	.cfi_offset %r14, -24
	.cfi_offset %r15, -16
	#DEBUG_VALUE: ~vector:this <- %rdi
	movq	%rdi, %rbx
.Ltmp497:
	#DEBUG_VALUE: ~vector:this <- %rbx
	.loc	49 677 30 prologue_end  # /usr/lib/gcc/x86_64-linux-gnu/9/../../../../include/c++/9/bits/stl_vector.h:677:30
	movq	(%rbx), %r14
	.loc	49 677 54 is_stmt 0     # /usr/lib/gcc/x86_64-linux-gnu/9/../../../../include/c++/9/bits/stl_vector.h:677:54
	movq	8(%rbx), %r15
	.loc	49 678 9 is_stmt 1      # /usr/lib/gcc/x86_64-linux-gnu/9/../../../../include/c++/9/bits/stl_vector.h:678:9
	callq	_ZNSt12_Vector_baseIfSaIfEE19_M_get_Tp_allocatorEv
.Ltmp494:
	.loc	49 677 2                # /usr/lib/gcc/x86_64-linux-gnu/9/../../../../include/c++/9/bits/stl_vector.h:677:2
	movq	%r14, %rdi
	movq	%r15, %rsi
	movq	%rax, %rdx
	callq	_ZSt8_DestroyIPffEvT_S1_RSaIT0_E
.Ltmp495:
.Ltmp498:
# %bb.1:
	#DEBUG_VALUE: ~vector:this <- %rbx
	.loc	49 680 7                # /usr/lib/gcc/x86_64-linux-gnu/9/../../../../include/c++/9/bits/stl_vector.h:680:7
	movq	%rbx, %rdi
	popq	%rbx
.Ltmp499:
	popq	%r14
	popq	%r15
	jmp	_ZNSt12_Vector_baseIfSaIfEED2Ev # TAILCALL
.LBB85_2:
.Ltmp500:
	#DEBUG_VALUE: ~vector:this <- %rbx
.Ltmp496:
	.loc	49 0 7 is_stmt 0        # /usr/lib/gcc/x86_64-linux-gnu/9/../../../../include/c++/9/bits/stl_vector.h:0:7
	movq	%rax, %r14
	.loc	49 680 7                # /usr/lib/gcc/x86_64-linux-gnu/9/../../../../include/c++/9/bits/stl_vector.h:680:7
	movq	%rbx, %rdi
	callq	_ZNSt12_Vector_baseIfSaIfEED2Ev
	movq	%r14, %rdi
	callq	__clang_call_terminate
.Ltmp501:
.Lfunc_end85:
	.size	_ZNSt6vectorIfSaIfEED2Ev, .Lfunc_end85-_ZNSt6vectorIfSaIfEED2Ev
	.cfi_endproc
	.section	.gcc_except_table,"a",@progbits
	.p2align	2
GCC_except_table85:
.Lexception5:
	.byte	255                     # @LPStart Encoding = omit
	.byte	3                       # @TType Encoding = udata4
	.byte	21                      # @TType base offset
	.byte	3                       # Call site Encoding = udata4
	.byte	13                      # Call site table length
	.long	.Ltmp494-.Lfunc_begin85 # >> Call Site 1 <<
	.long	.Ltmp495-.Ltmp494       #   Call between .Ltmp494 and .Ltmp495
	.long	.Ltmp496-.Lfunc_begin85 #     jumps to .Ltmp496
	.byte	1                       #   On action: 1
	.byte	1                       # >> Action Record 1 <<
                                        #   Catch TypeInfo 1
	.byte	0                       #   No further actions
                                        # >> Catch TypeInfos <<
	.long	0                       # TypeInfo 1
	.p2align	2
                                        # -- End function
	.section	.text._ZN14CAmbisonicBaseD2Ev,"axG",@progbits,_ZN14CAmbisonicBaseD2Ev,comdat
	.weak	_ZN14CAmbisonicBaseD2Ev # -- Begin function _ZN14CAmbisonicBaseD2Ev
	.p2align	4, 0x90
	.type	_ZN14CAmbisonicBaseD2Ev,@function
_ZN14CAmbisonicBaseD2Ev:                # @_ZN14CAmbisonicBaseD2Ev
.Lfunc_begin86:
	.file	79 "/home/yingj4/Desktop/cs598jtfa20/project/audio_pipeline/./libspatialaudio/build/Release/include/spatialaudio/AmbisonicBase.h"
	.loc	79 30 0 is_stmt 1       # ./libspatialaudio/build/Release/include/spatialaudio/AmbisonicBase.h:30:0
	.cfi_startproc
# %bb.0:
	#DEBUG_VALUE: ~CAmbisonicBase:this <- %rdi
	.loc	79 30 39 prologue_end   # ./libspatialaudio/build/Release/include/spatialaudio/AmbisonicBase.h:30:39
	retq
.Ltmp502:
.Lfunc_end86:
	.size	_ZN14CAmbisonicBaseD2Ev, .Lfunc_end86-_ZN14CAmbisonicBaseD2Ev
	.cfi_endproc
                                        # -- End function
	.section	.text._ZNSt12_Vector_baseIfSaIfEE19_M_get_Tp_allocatorEv,"axG",@progbits,_ZNSt12_Vector_baseIfSaIfEE19_M_get_Tp_allocatorEv,comdat
	.weak	_ZNSt12_Vector_baseIfSaIfEE19_M_get_Tp_allocatorEv # -- Begin function _ZNSt12_Vector_baseIfSaIfEE19_M_get_Tp_allocatorEv
	.p2align	4, 0x90
	.type	_ZNSt12_Vector_baseIfSaIfEE19_M_get_Tp_allocatorEv,@function
_ZNSt12_Vector_baseIfSaIfEE19_M_get_Tp_allocatorEv: # @_ZNSt12_Vector_baseIfSaIfEE19_M_get_Tp_allocatorEv
.Lfunc_begin87:
	.loc	49 274 0                # /usr/lib/gcc/x86_64-linux-gnu/9/../../../../include/c++/9/bits/stl_vector.h:274:0
	.cfi_startproc
# %bb.0:
	#DEBUG_VALUE: _M_get_Tp_allocator:this <- %rdi
	#DEBUG_VALUE: _M_get_Tp_allocator:this <- %rdi
	.loc	49 274 9 prologue_end   # /usr/lib/gcc/x86_64-linux-gnu/9/../../../../include/c++/9/bits/stl_vector.h:274:9
	movq	%rdi, %rax
.Ltmp503:
	#DEBUG_VALUE: _M_get_Tp_allocator:this <- %rax
	retq
.Ltmp504:
.Lfunc_end87:
	.size	_ZNSt12_Vector_baseIfSaIfEE19_M_get_Tp_allocatorEv, .Lfunc_end87-_ZNSt12_Vector_baseIfSaIfEE19_M_get_Tp_allocatorEv
	.cfi_endproc
                                        # -- End function
	.section	.text._ZSt8_DestroyIPffEvT_S1_RSaIT0_E,"axG",@progbits,_ZSt8_DestroyIPffEvT_S1_RSaIT0_E,comdat
	.weak	_ZSt8_DestroyIPffEvT_S1_RSaIT0_E # -- Begin function _ZSt8_DestroyIPffEvT_S1_RSaIT0_E
	.p2align	4, 0x90
	.type	_ZSt8_DestroyIPffEvT_S1_RSaIT0_E,@function
_ZSt8_DestroyIPffEvT_S1_RSaIT0_E:       # @_ZSt8_DestroyIPffEvT_S1_RSaIT0_E
.Lfunc_begin88:
	.file	80 "/usr/lib/gcc/x86_64-linux-gnu/9/../../../../include/c++/9/bits/stl_construct.h"
	.loc	80 205 0                # /usr/lib/gcc/x86_64-linux-gnu/9/../../../../include/c++/9/bits/stl_construct.h:205:0
	.cfi_startproc
# %bb.0:
	#DEBUG_VALUE: _Destroy<float *, float>:__first <- %rdi
	#DEBUG_VALUE: _Destroy<float *, float>:__first <- %rdi
	#DEBUG_VALUE: _Destroy<float *, float>:__first <- %rdi
	#DEBUG_VALUE: _Destroy<float *, float>:__last <- %rsi
	#DEBUG_VALUE: _Destroy<float *, float>:__last <- %rsi
	#DEBUG_VALUE: _Destroy<float *, float>:__last <- %rsi
	#DEBUG_VALUE: _Destroy<float *, float>: <- %rdx
	.loc	80 206 7 prologue_end   # /usr/lib/gcc/x86_64-linux-gnu/9/../../../../include/c++/9/bits/stl_construct.h:206:7
	jmp	_ZSt8_DestroyIPfEvT_S1_ # TAILCALL
.Ltmp505:
.Lfunc_end88:
	.size	_ZSt8_DestroyIPffEvT_S1_RSaIT0_E, .Lfunc_end88-_ZSt8_DestroyIPffEvT_S1_RSaIT0_E
	.cfi_endproc
                                        # -- End function
	.section	.text._ZNSt12_Vector_baseIfSaIfEED2Ev,"axG",@progbits,_ZNSt12_Vector_baseIfSaIfEED2Ev,comdat
	.weak	_ZNSt12_Vector_baseIfSaIfEED2Ev # -- Begin function _ZNSt12_Vector_baseIfSaIfEED2Ev
	.p2align	4, 0x90
	.type	_ZNSt12_Vector_baseIfSaIfEED2Ev,@function
_ZNSt12_Vector_baseIfSaIfEED2Ev:        # @_ZNSt12_Vector_baseIfSaIfEED2Ev
.Lfunc_begin89:
	.loc	49 331 0                # /usr/lib/gcc/x86_64-linux-gnu/9/../../../../include/c++/9/bits/stl_vector.h:331:0
	.cfi_startproc
	.cfi_personality 3, __gxx_personality_v0
	.cfi_lsda 3, .Lexception6
# %bb.0:
	pushq	%r14
	.cfi_def_cfa_offset 16
	pushq	%rbx
	.cfi_def_cfa_offset 24
	pushq	%rax
	.cfi_def_cfa_offset 32
	.cfi_offset %rbx, -24
	.cfi_offset %r14, -16
	#DEBUG_VALUE: ~_Vector_base:this <- %rdi
	movq	%rdi, %rbx
.Ltmp509:
	#DEBUG_VALUE: ~_Vector_base:this <- %rbx
	.loc	49 332 24 prologue_end  # /usr/lib/gcc/x86_64-linux-gnu/9/../../../../include/c++/9/bits/stl_vector.h:332:24
	movq	(%rbx), %rsi
	.loc	49 333 17               # /usr/lib/gcc/x86_64-linux-gnu/9/../../../../include/c++/9/bits/stl_vector.h:333:17
	movq	16(%rbx), %rdx
	.loc	49 333 35 is_stmt 0     # /usr/lib/gcc/x86_64-linux-gnu/9/../../../../include/c++/9/bits/stl_vector.h:333:35
	subq	%rsi, %rdx
	sarq	$2, %rdx
.Ltmp506:
	.loc	49 332 2 is_stmt 1      # /usr/lib/gcc/x86_64-linux-gnu/9/../../../../include/c++/9/bits/stl_vector.h:332:2
	callq	_ZNSt12_Vector_baseIfSaIfEE13_M_deallocateEPfm
.Ltmp507:
.Ltmp510:
# %bb.1:
	#DEBUG_VALUE: ~_Vector_base:this <- %rbx
	.loc	49 334 7                # /usr/lib/gcc/x86_64-linux-gnu/9/../../../../include/c++/9/bits/stl_vector.h:334:7
	movq	%rbx, %rdi
	addq	$8, %rsp
	popq	%rbx
.Ltmp511:
	popq	%r14
	jmp	_ZN9__gnu_cxx13new_allocatorIfED2Ev # TAILCALL
.LBB89_2:
.Ltmp512:
	#DEBUG_VALUE: ~_Vector_base:this <- %rbx
.Ltmp508:
	.loc	49 0 7 is_stmt 0        # /usr/lib/gcc/x86_64-linux-gnu/9/../../../../include/c++/9/bits/stl_vector.h:0:7
	movq	%rax, %r14
	.loc	49 334 7                # /usr/lib/gcc/x86_64-linux-gnu/9/../../../../include/c++/9/bits/stl_vector.h:334:7
	movq	%rbx, %rdi
	callq	_ZN9__gnu_cxx13new_allocatorIfED2Ev
	movq	%r14, %rdi
	callq	__clang_call_terminate
.Ltmp513:
.Lfunc_end89:
	.size	_ZNSt12_Vector_baseIfSaIfEED2Ev, .Lfunc_end89-_ZNSt12_Vector_baseIfSaIfEED2Ev
	.cfi_endproc
	.section	.gcc_except_table,"a",@progbits
	.p2align	2
GCC_except_table89:
.Lexception6:
	.byte	255                     # @LPStart Encoding = omit
	.byte	3                       # @TType Encoding = udata4
	.byte	21                      # @TType base offset
	.byte	3                       # Call site Encoding = udata4
	.byte	13                      # Call site table length
	.long	.Ltmp506-.Lfunc_begin89 # >> Call Site 1 <<
	.long	.Ltmp507-.Ltmp506       #   Call between .Ltmp506 and .Ltmp507
	.long	.Ltmp508-.Lfunc_begin89 #     jumps to .Ltmp508
	.byte	1                       #   On action: 1
	.byte	1                       # >> Action Record 1 <<
                                        #   Catch TypeInfo 1
	.byte	0                       #   No further actions
                                        # >> Catch TypeInfos <<
	.long	0                       # TypeInfo 1
	.p2align	2
                                        # -- End function
	.section	.text._ZNSt12_Vector_baseIfSaIfEE13_M_deallocateEPfm,"axG",@progbits,_ZNSt12_Vector_baseIfSaIfEE13_M_deallocateEPfm,comdat
	.weak	_ZNSt12_Vector_baseIfSaIfEE13_M_deallocateEPfm # -- Begin function _ZNSt12_Vector_baseIfSaIfEE13_M_deallocateEPfm
	.p2align	4, 0x90
	.type	_ZNSt12_Vector_baseIfSaIfEE13_M_deallocateEPfm,@function
_ZNSt12_Vector_baseIfSaIfEE13_M_deallocateEPfm: # @_ZNSt12_Vector_baseIfSaIfEE13_M_deallocateEPfm
.Lfunc_begin90:
	.loc	49 348 0 is_stmt 1      # /usr/lib/gcc/x86_64-linux-gnu/9/../../../../include/c++/9/bits/stl_vector.h:348:0
	.cfi_startproc
# %bb.0:
	#DEBUG_VALUE: _M_deallocate:this <- %rdi
	#DEBUG_VALUE: _M_deallocate:this <- %rdi
	#DEBUG_VALUE: _M_deallocate:__p <- %rsi
	#DEBUG_VALUE: _M_deallocate:__p <- %rsi
	#DEBUG_VALUE: _M_deallocate:__n <- %rdx
	#DEBUG_VALUE: _M_deallocate:__n <- %rdx
	.loc	49 350 6 prologue_end   # /usr/lib/gcc/x86_64-linux-gnu/9/../../../../include/c++/9/bits/stl_vector.h:350:6
	testq	%rsi, %rsi
.Ltmp514:
	.loc	49 350 6 is_stmt 0      # /usr/lib/gcc/x86_64-linux-gnu/9/../../../../include/c++/9/bits/stl_vector.h:350:6
	je	.LBB90_1
# %bb.2:
	#DEBUG_VALUE: _M_deallocate:__n <- %rdx
	#DEBUG_VALUE: _M_deallocate:__p <- %rsi
	#DEBUG_VALUE: _M_deallocate:this <- %rdi
.Ltmp515:
	.loc	49 351 4 is_stmt 1      # /usr/lib/gcc/x86_64-linux-gnu/9/../../../../include/c++/9/bits/stl_vector.h:351:4
	jmp	_ZNSt16allocator_traitsISaIfEE10deallocateERS0_Pfm # TAILCALL
.Ltmp516:
.LBB90_1:
	#DEBUG_VALUE: _M_deallocate:__n <- %rdx
	#DEBUG_VALUE: _M_deallocate:__p <- %rsi
	#DEBUG_VALUE: _M_deallocate:this <- %rdi
	.loc	49 352 7                # /usr/lib/gcc/x86_64-linux-gnu/9/../../../../include/c++/9/bits/stl_vector.h:352:7
	retq
.Ltmp517:
.Lfunc_end90:
	.size	_ZNSt12_Vector_baseIfSaIfEE13_M_deallocateEPfm, .Lfunc_end90-_ZNSt12_Vector_baseIfSaIfEE13_M_deallocateEPfm
	.cfi_endproc
                                        # -- End function
	.section	.text._ZN9__gnu_cxx13new_allocatorIfED2Ev,"axG",@progbits,_ZN9__gnu_cxx13new_allocatorIfED2Ev,comdat
	.weak	_ZN9__gnu_cxx13new_allocatorIfED2Ev # -- Begin function _ZN9__gnu_cxx13new_allocatorIfED2Ev
	.p2align	4, 0x90
	.type	_ZN9__gnu_cxx13new_allocatorIfED2Ev,@function
_ZN9__gnu_cxx13new_allocatorIfED2Ev:    # @_ZN9__gnu_cxx13new_allocatorIfED2Ev
.Lfunc_begin91:
	.loc	13 89 0                 # /usr/lib/gcc/x86_64-linux-gnu/9/../../../../include/c++/9/ext/new_allocator.h:89:0
	.cfi_startproc
# %bb.0:
	#DEBUG_VALUE: ~new_allocator:this <- %rdi
	.loc	13 89 48 prologue_end   # /usr/lib/gcc/x86_64-linux-gnu/9/../../../../include/c++/9/ext/new_allocator.h:89:48
	retq
.Ltmp518:
.Lfunc_end91:
	.size	_ZN9__gnu_cxx13new_allocatorIfED2Ev, .Lfunc_end91-_ZN9__gnu_cxx13new_allocatorIfED2Ev
	.cfi_endproc
                                        # -- End function
	.section	.text._ZNSt16allocator_traitsISaIfEE10deallocateERS0_Pfm,"axG",@progbits,_ZNSt16allocator_traitsISaIfEE10deallocateERS0_Pfm,comdat
	.weak	_ZNSt16allocator_traitsISaIfEE10deallocateERS0_Pfm # -- Begin function _ZNSt16allocator_traitsISaIfEE10deallocateERS0_Pfm
	.p2align	4, 0x90
	.type	_ZNSt16allocator_traitsISaIfEE10deallocateERS0_Pfm,@function
_ZNSt16allocator_traitsISaIfEE10deallocateERS0_Pfm: # @_ZNSt16allocator_traitsISaIfEE10deallocateERS0_Pfm
.Lfunc_begin92:
	.loc	41 470 0                # /usr/lib/gcc/x86_64-linux-gnu/9/../../../../include/c++/9/bits/alloc_traits.h:470:0
	.cfi_startproc
# %bb.0:
	#DEBUG_VALUE: deallocate:__a <- %rdi
	#DEBUG_VALUE: deallocate:__a <- %rdi
	#DEBUG_VALUE: deallocate:__a <- %rdi
	#DEBUG_VALUE: deallocate:__p <- %rsi
	#DEBUG_VALUE: deallocate:__p <- %rsi
	#DEBUG_VALUE: deallocate:__p <- %rsi
	#DEBUG_VALUE: deallocate:__n <- %rdx
	#DEBUG_VALUE: deallocate:__n <- %rdx
	#DEBUG_VALUE: deallocate:__n <- %rdx
	.loc	41 470 13 prologue_end  # /usr/lib/gcc/x86_64-linux-gnu/9/../../../../include/c++/9/bits/alloc_traits.h:470:13
	jmp	_ZN9__gnu_cxx13new_allocatorIfE10deallocateEPfm # TAILCALL
.Ltmp519:
.Lfunc_end92:
	.size	_ZNSt16allocator_traitsISaIfEE10deallocateERS0_Pfm, .Lfunc_end92-_ZNSt16allocator_traitsISaIfEE10deallocateERS0_Pfm
	.cfi_endproc
                                        # -- End function
	.section	.text._ZN9__gnu_cxx13new_allocatorIfE10deallocateEPfm,"axG",@progbits,_ZN9__gnu_cxx13new_allocatorIfE10deallocateEPfm,comdat
	.weak	_ZN9__gnu_cxx13new_allocatorIfE10deallocateEPfm # -- Begin function _ZN9__gnu_cxx13new_allocatorIfE10deallocateEPfm
	.p2align	4, 0x90
	.type	_ZN9__gnu_cxx13new_allocatorIfE10deallocateEPfm,@function
_ZN9__gnu_cxx13new_allocatorIfE10deallocateEPfm: # @_ZN9__gnu_cxx13new_allocatorIfE10deallocateEPfm
.Lfunc_begin93:
	.loc	13 120 0                # /usr/lib/gcc/x86_64-linux-gnu/9/../../../../include/c++/9/ext/new_allocator.h:120:0
	.cfi_startproc
# %bb.0:
	#DEBUG_VALUE: deallocate:this <- %rdi
	#DEBUG_VALUE: deallocate:__p <- %rsi
	#DEBUG_VALUE: deallocate:__p <- %rsi
	#DEBUG_VALUE: deallocate: <- %rdx
	.loc	13 128 2 prologue_end   # /usr/lib/gcc/x86_64-linux-gnu/9/../../../../include/c++/9/ext/new_allocator.h:128:2
	movq	%rsi, %rdi
.Ltmp520:
	#DEBUG_VALUE: deallocate:__p <- %rdi
	jmp	_ZdlPv                  # TAILCALL
.Ltmp521:
.Lfunc_end93:
	.size	_ZN9__gnu_cxx13new_allocatorIfE10deallocateEPfm, .Lfunc_end93-_ZN9__gnu_cxx13new_allocatorIfE10deallocateEPfm
	.cfi_endproc
                                        # -- End function
	.section	.text._ZSt8_DestroyIPfEvT_S1_,"axG",@progbits,_ZSt8_DestroyIPfEvT_S1_,comdat
	.weak	_ZSt8_DestroyIPfEvT_S1_ # -- Begin function _ZSt8_DestroyIPfEvT_S1_
	.p2align	4, 0x90
	.type	_ZSt8_DestroyIPfEvT_S1_,@function
_ZSt8_DestroyIPfEvT_S1_:                # @_ZSt8_DestroyIPfEvT_S1_
.Lfunc_begin94:
	.loc	80 128 0                # /usr/lib/gcc/x86_64-linux-gnu/9/../../../../include/c++/9/bits/stl_construct.h:128:0
	.cfi_startproc
# %bb.0:
	#DEBUG_VALUE: _Destroy<float *>:__first <- %rdi
	#DEBUG_VALUE: _Destroy<float *>:__first <- %rdi
	#DEBUG_VALUE: _Destroy<float *>:__first <- %rdi
	#DEBUG_VALUE: _Destroy<float *>:__last <- %rsi
	#DEBUG_VALUE: _Destroy<float *>:__last <- %rsi
	#DEBUG_VALUE: _Destroy<float *>:__last <- %rsi
	.loc	80 136 7 prologue_end   # /usr/lib/gcc/x86_64-linux-gnu/9/../../../../include/c++/9/bits/stl_construct.h:136:7
	jmp	_ZNSt12_Destroy_auxILb1EE9__destroyIPfEEvT_S3_ # TAILCALL
.Ltmp522:
.Lfunc_end94:
	.size	_ZSt8_DestroyIPfEvT_S1_, .Lfunc_end94-_ZSt8_DestroyIPfEvT_S1_
	.cfi_endproc
                                        # -- End function
	.section	.text._ZNSt12_Destroy_auxILb1EE9__destroyIPfEEvT_S3_,"axG",@progbits,_ZNSt12_Destroy_auxILb1EE9__destroyIPfEEvT_S3_,comdat
	.weak	_ZNSt12_Destroy_auxILb1EE9__destroyIPfEEvT_S3_ # -- Begin function _ZNSt12_Destroy_auxILb1EE9__destroyIPfEEvT_S3_
	.p2align	4, 0x90
	.type	_ZNSt12_Destroy_auxILb1EE9__destroyIPfEEvT_S3_,@function
_ZNSt12_Destroy_auxILb1EE9__destroyIPfEEvT_S3_: # @_ZNSt12_Destroy_auxILb1EE9__destroyIPfEEvT_S3_
.Lfunc_begin95:
	.loc	80 117 0                # /usr/lib/gcc/x86_64-linux-gnu/9/../../../../include/c++/9/bits/stl_construct.h:117:0
	.cfi_startproc
# %bb.0:
	#DEBUG_VALUE: __destroy<float *>: <- %rdi
	#DEBUG_VALUE: __destroy<float *>: <- %rsi
	.loc	80 117 57 prologue_end  # /usr/lib/gcc/x86_64-linux-gnu/9/../../../../include/c++/9/bits/stl_construct.h:117:57
	retq
.Ltmp523:
.Lfunc_end95:
	.size	_ZNSt12_Destroy_auxILb1EE9__destroyIPfEEvT_S3_, .Lfunc_end95-_ZNSt12_Destroy_auxILb1EE9__destroyIPfEEvT_S3_
	.cfi_endproc
                                        # -- End function
	.section	.text._ZNSt15__uniq_ptr_implIPfSt14default_deleteIA_S0_EE6_M_ptrEv,"axG",@progbits,_ZNSt15__uniq_ptr_implIPfSt14default_deleteIA_S0_EE6_M_ptrEv,comdat
	.weak	_ZNSt15__uniq_ptr_implIPfSt14default_deleteIA_S0_EE6_M_ptrEv # -- Begin function _ZNSt15__uniq_ptr_implIPfSt14default_deleteIA_S0_EE6_M_ptrEv
	.p2align	4, 0x90
	.type	_ZNSt15__uniq_ptr_implIPfSt14default_deleteIA_S0_EE6_M_ptrEv,@function
_ZNSt15__uniq_ptr_implIPfSt14default_deleteIA_S0_EE6_M_ptrEv: # @_ZNSt15__uniq_ptr_implIPfSt14default_deleteIA_S0_EE6_M_ptrEv
.Lfunc_begin96:
	.loc	76 153 0                # /usr/lib/gcc/x86_64-linux-gnu/9/../../../../include/c++/9/bits/unique_ptr.h:153:0
	.cfi_startproc
# %bb.0:
	#DEBUG_VALUE: _M_ptr:this <- %rdi
	#DEBUG_VALUE: _M_ptr:this <- %rdi
	#DEBUG_VALUE: _M_ptr:this <- %rdi
	.loc	76 153 36 prologue_end  # /usr/lib/gcc/x86_64-linux-gnu/9/../../../../include/c++/9/bits/unique_ptr.h:153:36
	jmp	_ZSt3getILm0EJPPfSt14default_deleteIA_S0_EEERNSt13tuple_elementIXT_ESt5tupleIJDpT0_EEE4typeERS9_ # TAILCALL
.Ltmp524:
.Lfunc_end96:
	.size	_ZNSt15__uniq_ptr_implIPfSt14default_deleteIA_S0_EE6_M_ptrEv, .Lfunc_end96-_ZNSt15__uniq_ptr_implIPfSt14default_deleteIA_S0_EE6_M_ptrEv
	.cfi_endproc
                                        # -- End function
	.section	.text._ZNSt10unique_ptrIA_PfSt14default_deleteIS1_EE11get_deleterEv,"axG",@progbits,_ZNSt10unique_ptrIA_PfSt14default_deleteIS1_EE11get_deleterEv,comdat
	.weak	_ZNSt10unique_ptrIA_PfSt14default_deleteIS1_EE11get_deleterEv # -- Begin function _ZNSt10unique_ptrIA_PfSt14default_deleteIS1_EE11get_deleterEv
	.p2align	4, 0x90
	.type	_ZNSt10unique_ptrIA_PfSt14default_deleteIS1_EE11get_deleterEv,@function
_ZNSt10unique_ptrIA_PfSt14default_deleteIS1_EE11get_deleterEv: # @_ZNSt10unique_ptrIA_PfSt14default_deleteIS1_EE11get_deleterEv
.Lfunc_begin97:
	.loc	76 625 0                # /usr/lib/gcc/x86_64-linux-gnu/9/../../../../include/c++/9/bits/unique_ptr.h:625:0
	.cfi_startproc
# %bb.0:
	#DEBUG_VALUE: get_deleter:this <- %rdi
	#DEBUG_VALUE: get_deleter:this <- %rdi
	#DEBUG_VALUE: get_deleter:this <- %rdi
	.loc	76 625 21 prologue_end  # /usr/lib/gcc/x86_64-linux-gnu/9/../../../../include/c++/9/bits/unique_ptr.h:625:21
	jmp	_ZNSt15__uniq_ptr_implIPfSt14default_deleteIA_S0_EE10_M_deleterEv # TAILCALL
.Ltmp525:
.Lfunc_end97:
	.size	_ZNSt10unique_ptrIA_PfSt14default_deleteIS1_EE11get_deleterEv, .Lfunc_end97-_ZNSt10unique_ptrIA_PfSt14default_deleteIS1_EE11get_deleterEv
	.cfi_endproc
                                        # -- End function
	.section	.text._ZNKSt14default_deleteIA_PfEclIS0_EENSt9enable_ifIXsr14is_convertibleIPA_T_PS1_EE5valueEvE4typeEPS5_,"axG",@progbits,_ZNKSt14default_deleteIA_PfEclIS0_EENSt9enable_ifIXsr14is_convertibleIPA_T_PS1_EE5valueEvE4typeEPS5_,comdat
	.weak	_ZNKSt14default_deleteIA_PfEclIS0_EENSt9enable_ifIXsr14is_convertibleIPA_T_PS1_EE5valueEvE4typeEPS5_ # -- Begin function _ZNKSt14default_deleteIA_PfEclIS0_EENSt9enable_ifIXsr14is_convertibleIPA_T_PS1_EE5valueEvE4typeEPS5_
	.p2align	4, 0x90
	.type	_ZNKSt14default_deleteIA_PfEclIS0_EENSt9enable_ifIXsr14is_convertibleIPA_T_PS1_EE5valueEvE4typeEPS5_,@function
_ZNKSt14default_deleteIA_PfEclIS0_EENSt9enable_ifIXsr14is_convertibleIPA_T_PS1_EE5valueEvE4typeEPS5_: # @_ZNKSt14default_deleteIA_PfEclIS0_EENSt9enable_ifIXsr14is_convertibleIPA_T_PS1_EE5valueEvE4typeEPS5_
.Lfunc_begin98:
	.loc	76 112 0                # /usr/lib/gcc/x86_64-linux-gnu/9/../../../../include/c++/9/bits/unique_ptr.h:112:0
	.cfi_startproc
# %bb.0:
	#DEBUG_VALUE: operator()<float *>:this <- %rdi
	#DEBUG_VALUE: operator()<float *>:__ptr <- %rsi
	#DEBUG_VALUE: operator()<float *>:__ptr <- %rsi
	.loc	76 115 2 prologue_end   # /usr/lib/gcc/x86_64-linux-gnu/9/../../../../include/c++/9/bits/unique_ptr.h:115:2
	testq	%rsi, %rsi
	je	.LBB98_1
# %bb.2:
	#DEBUG_VALUE: operator()<float *>:__ptr <- %rsi
	#DEBUG_VALUE: operator()<float *>:this <- %rdi
	movq	%rsi, %rdi
	jmp	_ZdaPv                  # TAILCALL
.LBB98_1:
	#DEBUG_VALUE: operator()<float *>:__ptr <- %rsi
	#DEBUG_VALUE: operator()<float *>:this <- %rdi
	.loc	76 116 7                # /usr/lib/gcc/x86_64-linux-gnu/9/../../../../include/c++/9/bits/unique_ptr.h:116:7
	retq
.Ltmp526:
.Lfunc_end98:
	.size	_ZNKSt14default_deleteIA_PfEclIS0_EENSt9enable_ifIXsr14is_convertibleIPA_T_PS1_EE5valueEvE4typeEPS5_, .Lfunc_end98-_ZNKSt14default_deleteIA_PfEclIS0_EENSt9enable_ifIXsr14is_convertibleIPA_T_PS1_EE5valueEvE4typeEPS5_
	.cfi_endproc
                                        # -- End function
	.section	.text._ZNSt15__uniq_ptr_implIPfSt14default_deleteIA_S0_EE10_M_deleterEv,"axG",@progbits,_ZNSt15__uniq_ptr_implIPfSt14default_deleteIA_S0_EE10_M_deleterEv,comdat
	.weak	_ZNSt15__uniq_ptr_implIPfSt14default_deleteIA_S0_EE10_M_deleterEv # -- Begin function _ZNSt15__uniq_ptr_implIPfSt14default_deleteIA_S0_EE10_M_deleterEv
	.p2align	4, 0x90
	.type	_ZNSt15__uniq_ptr_implIPfSt14default_deleteIA_S0_EE10_M_deleterEv,@function
_ZNSt15__uniq_ptr_implIPfSt14default_deleteIA_S0_EE10_M_deleterEv: # @_ZNSt15__uniq_ptr_implIPfSt14default_deleteIA_S0_EE10_M_deleterEv
.Lfunc_begin99:
	.loc	76 155 0                # /usr/lib/gcc/x86_64-linux-gnu/9/../../../../include/c++/9/bits/unique_ptr.h:155:0
	.cfi_startproc
# %bb.0:
	#DEBUG_VALUE: _M_deleter:this <- %rdi
	#DEBUG_VALUE: _M_deleter:this <- %rdi
	#DEBUG_VALUE: _M_deleter:this <- %rdi
	.loc	76 155 40 prologue_end  # /usr/lib/gcc/x86_64-linux-gnu/9/../../../../include/c++/9/bits/unique_ptr.h:155:40
	jmp	_ZSt3getILm1EJPPfSt14default_deleteIA_S0_EEERNSt13tuple_elementIXT_ESt5tupleIJDpT0_EEE4typeERS9_ # TAILCALL
.Ltmp527:
.Lfunc_end99:
	.size	_ZNSt15__uniq_ptr_implIPfSt14default_deleteIA_S0_EE10_M_deleterEv, .Lfunc_end99-_ZNSt15__uniq_ptr_implIPfSt14default_deleteIA_S0_EE10_M_deleterEv
	.cfi_endproc
                                        # -- End function
	.section	.text._ZSt3getILm1EJPPfSt14default_deleteIA_S0_EEERNSt13tuple_elementIXT_ESt5tupleIJDpT0_EEE4typeERS9_,"axG",@progbits,_ZSt3getILm1EJPPfSt14default_deleteIA_S0_EEERNSt13tuple_elementIXT_ESt5tupleIJDpT0_EEE4typeERS9_,comdat
	.weak	_ZSt3getILm1EJPPfSt14default_deleteIA_S0_EEERNSt13tuple_elementIXT_ESt5tupleIJDpT0_EEE4typeERS9_ # -- Begin function _ZSt3getILm1EJPPfSt14default_deleteIA_S0_EEERNSt13tuple_elementIXT_ESt5tupleIJDpT0_EEE4typeERS9_
	.p2align	4, 0x90
	.type	_ZSt3getILm1EJPPfSt14default_deleteIA_S0_EEERNSt13tuple_elementIXT_ESt5tupleIJDpT0_EEE4typeERS9_,@function
_ZSt3getILm1EJPPfSt14default_deleteIA_S0_EEERNSt13tuple_elementIXT_ESt5tupleIJDpT0_EEE4typeERS9_: # @_ZSt3getILm1EJPPfSt14default_deleteIA_S0_EEERNSt13tuple_elementIXT_ESt5tupleIJDpT0_EEE4typeERS9_
.Lfunc_begin100:
	.loc	77 1321 0               # /usr/lib/gcc/x86_64-linux-gnu/9/../../../../include/c++/9/tuple:1321:0
	.cfi_startproc
# %bb.0:
	#DEBUG_VALUE: get<1, float **, std::default_delete<float *[]> >:__t <- %rdi
	#DEBUG_VALUE: get<1, float **, std::default_delete<float *[]> >:__t <- %rdi
	#DEBUG_VALUE: get<1, float **, std::default_delete<float *[]> >:__t <- %rdi
	.loc	77 1321 14 prologue_end # /usr/lib/gcc/x86_64-linux-gnu/9/../../../../include/c++/9/tuple:1321:14
	jmp	_ZSt12__get_helperILm1ESt14default_deleteIA_PfEJEERT0_RSt11_Tuple_implIXT_EJS4_DpT1_EE # TAILCALL
.Ltmp528:
.Lfunc_end100:
	.size	_ZSt3getILm1EJPPfSt14default_deleteIA_S0_EEERNSt13tuple_elementIXT_ESt5tupleIJDpT0_EEE4typeERS9_, .Lfunc_end100-_ZSt3getILm1EJPPfSt14default_deleteIA_S0_EEERNSt13tuple_elementIXT_ESt5tupleIJDpT0_EEE4typeERS9_
	.cfi_endproc
                                        # -- End function
	.section	.text._ZSt12__get_helperILm1ESt14default_deleteIA_PfEJEERT0_RSt11_Tuple_implIXT_EJS4_DpT1_EE,"axG",@progbits,_ZSt12__get_helperILm1ESt14default_deleteIA_PfEJEERT0_RSt11_Tuple_implIXT_EJS4_DpT1_EE,comdat
	.weak	_ZSt12__get_helperILm1ESt14default_deleteIA_PfEJEERT0_RSt11_Tuple_implIXT_EJS4_DpT1_EE # -- Begin function _ZSt12__get_helperILm1ESt14default_deleteIA_PfEJEERT0_RSt11_Tuple_implIXT_EJS4_DpT1_EE
	.p2align	4, 0x90
	.type	_ZSt12__get_helperILm1ESt14default_deleteIA_PfEJEERT0_RSt11_Tuple_implIXT_EJS4_DpT1_EE,@function
_ZSt12__get_helperILm1ESt14default_deleteIA_PfEJEERT0_RSt11_Tuple_implIXT_EJS4_DpT1_EE: # @_ZSt12__get_helperILm1ESt14default_deleteIA_PfEJEERT0_RSt11_Tuple_implIXT_EJS4_DpT1_EE
.Lfunc_begin101:
	.loc	77 1310 0               # /usr/lib/gcc/x86_64-linux-gnu/9/../../../../include/c++/9/tuple:1310:0
	.cfi_startproc
# %bb.0:
	#DEBUG_VALUE: __get_helper<1, std::default_delete<float *[]>>:__t <- %rdi
	#DEBUG_VALUE: __get_helper<1, std::default_delete<float *[]>>:__t <- %rdi
	#DEBUG_VALUE: __get_helper<1, std::default_delete<float *[]>>:__t <- %rdi
	.loc	77 1310 14 prologue_end # /usr/lib/gcc/x86_64-linux-gnu/9/../../../../include/c++/9/tuple:1310:14
	jmp	_ZNSt11_Tuple_implILm1EJSt14default_deleteIA_PfEEE7_M_headERS4_ # TAILCALL
.Ltmp529:
.Lfunc_end101:
	.size	_ZSt12__get_helperILm1ESt14default_deleteIA_PfEJEERT0_RSt11_Tuple_implIXT_EJS4_DpT1_EE, .Lfunc_end101-_ZSt12__get_helperILm1ESt14default_deleteIA_PfEJEERT0_RSt11_Tuple_implIXT_EJS4_DpT1_EE
	.cfi_endproc
                                        # -- End function
	.section	.text._ZNSt11_Tuple_implILm1EJSt14default_deleteIA_PfEEE7_M_headERS4_,"axG",@progbits,_ZNSt11_Tuple_implILm1EJSt14default_deleteIA_PfEEE7_M_headERS4_,comdat
	.weak	_ZNSt11_Tuple_implILm1EJSt14default_deleteIA_PfEEE7_M_headERS4_ # -- Begin function _ZNSt11_Tuple_implILm1EJSt14default_deleteIA_PfEEE7_M_headERS4_
	.p2align	4, 0x90
	.type	_ZNSt11_Tuple_implILm1EJSt14default_deleteIA_PfEEE7_M_headERS4_,@function
_ZNSt11_Tuple_implILm1EJSt14default_deleteIA_PfEEE7_M_headERS4_: # @_ZNSt11_Tuple_implILm1EJSt14default_deleteIA_PfEEE7_M_headERS4_
.Lfunc_begin102:
	.loc	77 334 0                # /usr/lib/gcc/x86_64-linux-gnu/9/../../../../include/c++/9/tuple:334:0
	.cfi_startproc
# %bb.0:
	#DEBUG_VALUE: _M_head:__t <- %rdi
	#DEBUG_VALUE: _M_head:__t <- %rdi
	#DEBUG_VALUE: _M_head:__t <- %rdi
	.loc	77 334 51 prologue_end  # /usr/lib/gcc/x86_64-linux-gnu/9/../../../../include/c++/9/tuple:334:51
	jmp	_ZNSt10_Head_baseILm1ESt14default_deleteIA_PfELb1EE7_M_headERS4_ # TAILCALL
.Ltmp530:
.Lfunc_end102:
	.size	_ZNSt11_Tuple_implILm1EJSt14default_deleteIA_PfEEE7_M_headERS4_, .Lfunc_end102-_ZNSt11_Tuple_implILm1EJSt14default_deleteIA_PfEEE7_M_headERS4_
	.cfi_endproc
                                        # -- End function
	.section	.text._ZNSt10_Head_baseILm1ESt14default_deleteIA_PfELb1EE7_M_headERS4_,"axG",@progbits,_ZNSt10_Head_baseILm1ESt14default_deleteIA_PfELb1EE7_M_headERS4_,comdat
	.weak	_ZNSt10_Head_baseILm1ESt14default_deleteIA_PfELb1EE7_M_headERS4_ # -- Begin function _ZNSt10_Head_baseILm1ESt14default_deleteIA_PfELb1EE7_M_headERS4_
	.p2align	4, 0x90
	.type	_ZNSt10_Head_baseILm1ESt14default_deleteIA_PfELb1EE7_M_headERS4_,@function
_ZNSt10_Head_baseILm1ESt14default_deleteIA_PfELb1EE7_M_headERS4_: # @_ZNSt10_Head_baseILm1ESt14default_deleteIA_PfELb1EE7_M_headERS4_
.Lfunc_begin103:
	.loc	77 113 0                # /usr/lib/gcc/x86_64-linux-gnu/9/../../../../include/c++/9/tuple:113:0
	.cfi_startproc
# %bb.0:
	#DEBUG_VALUE: _M_head:__b <- %rdi
	#DEBUG_VALUE: _M_head:__b <- %rdi
	.loc	77 113 43 prologue_end  # /usr/lib/gcc/x86_64-linux-gnu/9/../../../../include/c++/9/tuple:113:43
	movq	%rdi, %rax
.Ltmp531:
	#DEBUG_VALUE: _M_head:__b <- %rax
	retq
.Ltmp532:
.Lfunc_end103:
	.size	_ZNSt10_Head_baseILm1ESt14default_deleteIA_PfELb1EE7_M_headERS4_, .Lfunc_end103-_ZNSt10_Head_baseILm1ESt14default_deleteIA_PfELb1EE7_M_headERS4_
	.cfi_endproc
                                        # -- End function
	.section	.text._ZSt3getILm0EJPPfSt14default_deleteIA_S0_EEERNSt13tuple_elementIXT_ESt5tupleIJDpT0_EEE4typeERS9_,"axG",@progbits,_ZSt3getILm0EJPPfSt14default_deleteIA_S0_EEERNSt13tuple_elementIXT_ESt5tupleIJDpT0_EEE4typeERS9_,comdat
	.weak	_ZSt3getILm0EJPPfSt14default_deleteIA_S0_EEERNSt13tuple_elementIXT_ESt5tupleIJDpT0_EEE4typeERS9_ # -- Begin function _ZSt3getILm0EJPPfSt14default_deleteIA_S0_EEERNSt13tuple_elementIXT_ESt5tupleIJDpT0_EEE4typeERS9_
	.p2align	4, 0x90
	.type	_ZSt3getILm0EJPPfSt14default_deleteIA_S0_EEERNSt13tuple_elementIXT_ESt5tupleIJDpT0_EEE4typeERS9_,@function
_ZSt3getILm0EJPPfSt14default_deleteIA_S0_EEERNSt13tuple_elementIXT_ESt5tupleIJDpT0_EEE4typeERS9_: # @_ZSt3getILm0EJPPfSt14default_deleteIA_S0_EEERNSt13tuple_elementIXT_ESt5tupleIJDpT0_EEE4typeERS9_
.Lfunc_begin104:
	.loc	77 1321 0               # /usr/lib/gcc/x86_64-linux-gnu/9/../../../../include/c++/9/tuple:1321:0
	.cfi_startproc
# %bb.0:
	#DEBUG_VALUE: get<0, float **, std::default_delete<float *[]> >:__t <- %rdi
	#DEBUG_VALUE: get<0, float **, std::default_delete<float *[]> >:__t <- %rdi
	#DEBUG_VALUE: get<0, float **, std::default_delete<float *[]> >:__t <- %rdi
	.loc	77 1321 14 prologue_end # /usr/lib/gcc/x86_64-linux-gnu/9/../../../../include/c++/9/tuple:1321:14
	jmp	_ZSt12__get_helperILm0EPPfJSt14default_deleteIA_S0_EEERT0_RSt11_Tuple_implIXT_EJS5_DpT1_EE # TAILCALL
.Ltmp533:
.Lfunc_end104:
	.size	_ZSt3getILm0EJPPfSt14default_deleteIA_S0_EEERNSt13tuple_elementIXT_ESt5tupleIJDpT0_EEE4typeERS9_, .Lfunc_end104-_ZSt3getILm0EJPPfSt14default_deleteIA_S0_EEERNSt13tuple_elementIXT_ESt5tupleIJDpT0_EEE4typeERS9_
	.cfi_endproc
                                        # -- End function
	.section	.text._ZSt12__get_helperILm0EPPfJSt14default_deleteIA_S0_EEERT0_RSt11_Tuple_implIXT_EJS5_DpT1_EE,"axG",@progbits,_ZSt12__get_helperILm0EPPfJSt14default_deleteIA_S0_EEERT0_RSt11_Tuple_implIXT_EJS5_DpT1_EE,comdat
	.weak	_ZSt12__get_helperILm0EPPfJSt14default_deleteIA_S0_EEERT0_RSt11_Tuple_implIXT_EJS5_DpT1_EE # -- Begin function _ZSt12__get_helperILm0EPPfJSt14default_deleteIA_S0_EEERT0_RSt11_Tuple_implIXT_EJS5_DpT1_EE
	.p2align	4, 0x90
	.type	_ZSt12__get_helperILm0EPPfJSt14default_deleteIA_S0_EEERT0_RSt11_Tuple_implIXT_EJS5_DpT1_EE,@function
_ZSt12__get_helperILm0EPPfJSt14default_deleteIA_S0_EEERT0_RSt11_Tuple_implIXT_EJS5_DpT1_EE: # @_ZSt12__get_helperILm0EPPfJSt14default_deleteIA_S0_EEERT0_RSt11_Tuple_implIXT_EJS5_DpT1_EE
.Lfunc_begin105:
	.loc	77 1310 0               # /usr/lib/gcc/x86_64-linux-gnu/9/../../../../include/c++/9/tuple:1310:0
	.cfi_startproc
# %bb.0:
	#DEBUG_VALUE: __get_helper<0, float **, std::default_delete<float *[]> >:__t <- %rdi
	#DEBUG_VALUE: __get_helper<0, float **, std::default_delete<float *[]> >:__t <- %rdi
	#DEBUG_VALUE: __get_helper<0, float **, std::default_delete<float *[]> >:__t <- %rdi
	.loc	77 1310 14 prologue_end # /usr/lib/gcc/x86_64-linux-gnu/9/../../../../include/c++/9/tuple:1310:14
	jmp	_ZNSt11_Tuple_implILm0EJPPfSt14default_deleteIA_S0_EEE7_M_headERS5_ # TAILCALL
.Ltmp534:
.Lfunc_end105:
	.size	_ZSt12__get_helperILm0EPPfJSt14default_deleteIA_S0_EEERT0_RSt11_Tuple_implIXT_EJS5_DpT1_EE, .Lfunc_end105-_ZSt12__get_helperILm0EPPfJSt14default_deleteIA_S0_EEERT0_RSt11_Tuple_implIXT_EJS5_DpT1_EE
	.cfi_endproc
                                        # -- End function
	.section	.text._ZNSt11_Tuple_implILm0EJPPfSt14default_deleteIA_S0_EEE7_M_headERS5_,"axG",@progbits,_ZNSt11_Tuple_implILm0EJPPfSt14default_deleteIA_S0_EEE7_M_headERS5_,comdat
	.weak	_ZNSt11_Tuple_implILm0EJPPfSt14default_deleteIA_S0_EEE7_M_headERS5_ # -- Begin function _ZNSt11_Tuple_implILm0EJPPfSt14default_deleteIA_S0_EEE7_M_headERS5_
	.p2align	4, 0x90
	.type	_ZNSt11_Tuple_implILm0EJPPfSt14default_deleteIA_S0_EEE7_M_headERS5_,@function
_ZNSt11_Tuple_implILm0EJPPfSt14default_deleteIA_S0_EEE7_M_headERS5_: # @_ZNSt11_Tuple_implILm0EJPPfSt14default_deleteIA_S0_EEE7_M_headERS5_
.Lfunc_begin106:
	.loc	77 195 0                # /usr/lib/gcc/x86_64-linux-gnu/9/../../../../include/c++/9/tuple:195:0
	.cfi_startproc
# %bb.0:
	#DEBUG_VALUE: _M_head:__t <- %rdi
	#DEBUG_VALUE: _M_head:__t <- %rdi
	#DEBUG_VALUE: _M_head:__t <- %rdi
	.loc	77 195 51 prologue_end  # /usr/lib/gcc/x86_64-linux-gnu/9/../../../../include/c++/9/tuple:195:51
	jmp	_ZNSt10_Head_baseILm0EPPfLb0EE7_M_headERS2_ # TAILCALL
.Ltmp535:
.Lfunc_end106:
	.size	_ZNSt11_Tuple_implILm0EJPPfSt14default_deleteIA_S0_EEE7_M_headERS5_, .Lfunc_end106-_ZNSt11_Tuple_implILm0EJPPfSt14default_deleteIA_S0_EEE7_M_headERS5_
	.cfi_endproc
                                        # -- End function
	.section	.text._ZNSt10_Head_baseILm0EPPfLb0EE7_M_headERS2_,"axG",@progbits,_ZNSt10_Head_baseILm0EPPfLb0EE7_M_headERS2_,comdat
	.weak	_ZNSt10_Head_baseILm0EPPfLb0EE7_M_headERS2_ # -- Begin function _ZNSt10_Head_baseILm0EPPfLb0EE7_M_headERS2_
	.p2align	4, 0x90
	.type	_ZNSt10_Head_baseILm0EPPfLb0EE7_M_headERS2_,@function
_ZNSt10_Head_baseILm0EPPfLb0EE7_M_headERS2_: # @_ZNSt10_Head_baseILm0EPPfLb0EE7_M_headERS2_
.Lfunc_begin107:
	.loc	77 160 0                # /usr/lib/gcc/x86_64-linux-gnu/9/../../../../include/c++/9/tuple:160:0
	.cfi_startproc
# %bb.0:
	#DEBUG_VALUE: _M_head:__b <- %rdi
	#DEBUG_VALUE: _M_head:__b <- %rdi
	.loc	77 160 43 prologue_end  # /usr/lib/gcc/x86_64-linux-gnu/9/../../../../include/c++/9/tuple:160:43
	movq	%rdi, %rax
.Ltmp536:
	#DEBUG_VALUE: _M_head:__b <- %rax
	retq
.Ltmp537:
.Lfunc_end107:
	.size	_ZNSt10_Head_baseILm0EPPfLb0EE7_M_headERS2_, .Lfunc_end107-_ZNSt10_Head_baseILm0EPPfLb0EE7_M_headERS2_
	.cfi_endproc
                                        # -- End function
	.section	.text.startup,"ax",@progbits
	.p2align	4, 0x90         # -- Begin function _GLOBAL__sub_I_main.cpp
	.type	_GLOBAL__sub_I_main.cpp,@function
_GLOBAL__sub_I_main.cpp:                # @_GLOBAL__sub_I_main.cpp
.Lfunc_begin108:
	.file	81 "/home/yingj4/Desktop/cs598jtfa20/project/audio_pipeline/src/main.cpp"
	.loc	81 0 0                  # src/main.cpp:0:0
	.cfi_startproc
# %bb.0:
	.loc	81 0 0 prologue_end     # src/main.cpp:0:0
	jmp	__cxx_global_var_init   # TAILCALL
.Ltmp538:
.Lfunc_end108:
	.size	_GLOBAL__sub_I_main.cpp, .Lfunc_end108-_GLOBAL__sub_I_main.cpp
	.cfi_endproc
                                        # -- End function
	.p2align	4, 0x90         # -- Begin function __cxx_global_var_init
	.type	__cxx_global_var_init,@function
__cxx_global_var_init:                  # @__cxx_global_var_init
.Lfunc_begin109:
	.loc	58 74 0                 # /usr/lib/gcc/x86_64-linux-gnu/9/../../../../include/c++/9/iostream:74:0
	.cfi_startproc
# %bb.0:
	.loc	58 74 25 prologue_end   # /usr/lib/gcc/x86_64-linux-gnu/9/../../../../include/c++/9/iostream:74:25
	pushq	%rax
	.cfi_def_cfa_offset 16
	movl	$1, (%rsp)
	movl	$74, %edi
	movl	$.L.str.7, %esi
	movl	$.L.str.8, %edx
	movl	$.L.str.9, %ecx
	movl	$54, %r8d
	xorl	%r9d, %r9d
	callq	trace_logger_log0
	movq	$.L.str.11, (%rsp)
	movl	$2, %edi
	movl	$64, %esi
	movl	$_ZNSt8ios_base4InitC1Ev, %edx
	movl	$1, %ecx
	movl	$.L.str.10, %r8d
	xorl	%r9d, %r9d
	callq	trace_logger_log_ptr
	movq	$.L.str.11, (%rsp)
	movl	$1, %edi
	movl	$64, %esi
	movl	$_ZStL8__ioinit, %edx
	movl	$1, %ecx
	movl	$.L.str.12, %r8d
	xorl	%r9d, %r9d
	callq	trace_logger_log_ptr
	movl	$_ZStL8__ioinit, %edi
	callq	_ZNSt8ios_base4InitC1Ev
	movl	$1, (%rsp)
	movl	$74, %edi
	movl	$.L.str.7, %esi
	movl	$.L.str.8, %edx
	movl	$.L.str.13, %ecx
	movl	$54, %r8d
	xorl	%r9d, %r9d
	callq	trace_logger_log0
	movq	$.L.str.11, (%rsp)
	movl	$4, %edi
	movl	$64, %esi
	movl	$__cxa_atexit, %edx
	movl	$1, %ecx
	movl	$.L.str.14, %r8d
	xorl	%r9d, %r9d
	callq	trace_logger_log_ptr
	movq	$.L.str.11, (%rsp)
	movl	$1, %edi
	movl	$64, %esi
	movl	$_ZNSt8ios_base4InitD1Ev, %edx
	xorl	%ecx, %ecx
	movl	$.L.str.15, %r8d
	xorl	%r9d, %r9d
	callq	trace_logger_log_ptr
	movq	$.L.str.11, (%rsp)
	movl	$2, %edi
	movl	$64, %esi
	movl	$_ZStL8__ioinit, %edx
	xorl	%ecx, %ecx
	movl	$.L.str.15, %r8d
	xorl	%r9d, %r9d
	callq	trace_logger_log_ptr
	movq	$.L.str.11, (%rsp)
	movl	$3, %edi
	movl	$64, %esi
	movl	$__dso_handle, %edx
	movl	$1, %ecx
	movl	$.L.str.16, %r8d
	xorl	%r9d, %r9d
	callq	trace_logger_log_ptr
	movl	$_ZNSt8ios_base4InitD1Ev, %edi
	movl	$_ZStL8__ioinit, %esi
	movl	$__dso_handle, %edx
	callq	__cxa_atexit
	movl	%eax, %edx
	movq	$.L.str.11, (%rsp)
	movl	$19134, %edi            # imm = 0x4ABE
	movl	$32, %esi
	movl	$1, %ecx
	movl	$.L.str.13, %r8d
	xorl	%r9d, %r9d
	callq	trace_logger_log_int
	movl	$1, (%rsp)
	movl	$74, %edi
	movl	$.L.str.7, %esi
	movl	$.L.str.8, %edx
	movl	$.L.str.17, %ecx
	movl	$1, %r8d
	xorl	%r9d, %r9d
	callq	trace_logger_log0
	movl	$.L.str.7, %edi
	movl	$1, %esi
	xorl	%edx, %edx
	movl	$1, %ecx
	callq	trace_logger_update_status
	popq	%rax
	retq
.Ltmp539:
.Lfunc_end109:
	.size	__cxx_global_var_init, .Lfunc_end109-__cxx_global_var_init
	.cfi_endproc
                                        # -- End function
	.text
	.globl	main                    # -- Begin function main
	.p2align	4, 0x90
	.type	main,@function
main:                                   # @main
.Lfunc_begin110:
	.loc	81 7 0                  # src/main.cpp:7:0
	.cfi_startproc
	.cfi_personality 3, __gxx_personality_v0
	.cfi_lsda 3, .Lexception7
# %bb.0:
	pushq	%rbp
	.cfi_def_cfa_offset 16
	pushq	%r15
	.cfi_def_cfa_offset 24
	pushq	%r14
	.cfi_def_cfa_offset 32
	pushq	%r13
	.cfi_def_cfa_offset 40
	pushq	%r12
	.cfi_def_cfa_offset 48
	pushq	%rbx
	.cfi_def_cfa_offset 56
	subq	$104, %rsp
	.cfi_def_cfa_offset 160
	.cfi_offset %rbx, -56
	.cfi_offset %r12, -48
	.cfi_offset %r13, -40
	.cfi_offset %r14, -32
	.cfi_offset %r15, -24
	.cfi_offset %rbp, -16
	#DEBUG_VALUE: main:argc <- %edi
	#DEBUG_VALUE: main:argv <- %rsi
	movq	%rsi, %r12
	movl	%edi, %ebp
	callq	trace_logger_init
.Ltmp552:
	movl	$1, (%rsp)
	movq	$-1, %rdi
	movl	$.L.str.18, %esi
	movl	$.L.str.19, %edx
	movl	$.L.str.20, %ecx
	movl	$29, %r8d
	xorl	%r9d, %r9d
	callq	trace_logger_log0
	movq	$.L.str.11, (%rsp)
	movl	$1, %edi
	movl	$32, %esi
	movl	$1, %edx
	xorl	%ecx, %ecx
	movl	$.L.str.15, %r8d
	xorl	%r9d, %r9d
	callq	trace_logger_log_int
	movq	$.L.str.11, (%rsp)
	leaq	56(%rsp), %rdx
	movl	$19134, %edi            # imm = 0x4ABE
	movl	$64, %esi
	movl	$1, %ecx
	movl	$.L.str.20, %r8d
	xorl	%r9d, %r9d
	callq	trace_logger_log_ptr
	movl	$1, (%rsp)
	movq	$-1, %rdi
	movl	$.L.str.18, %esi
	movl	$.L.str.19, %edx
	movl	$.L.str.21, %ecx
	movl	$29, %r8d
	xorl	%r9d, %r9d
	callq	trace_logger_log0
	movq	$.L.str.11, (%rsp)
	movl	$1, %edi
	movl	$32, %esi
	movl	$1, %edx
	xorl	%ecx, %ecx
	movl	$.L.str.15, %r8d
	xorl	%r9d, %r9d
	callq	trace_logger_log_int
	movq	$.L.str.11, (%rsp)
	leaq	24(%rsp), %rdx
	movl	$19134, %edi            # imm = 0x4ABE
	movl	$64, %esi
	movl	$1, %ecx
	movl	$.L.str.21, %r8d
	xorl	%r9d, %r9d
	callq	trace_logger_log_ptr
	movl	$1, (%rsp)
	movq	$-1, %rdi
	movl	$.L.str.18, %esi
	movl	$.L.str.19, %edx
	movl	$.L.str.22, %ecx
	movl	$29, %r8d
	xorl	%r9d, %r9d
	callq	trace_logger_log0
	movq	$.L.str.11, (%rsp)
	movl	$1, %edi
	movl	$32, %esi
	movl	$1, %edx
	xorl	%ecx, %ecx
	movl	$.L.str.15, %r8d
	xorl	%r9d, %r9d
	callq	trace_logger_log_int
.Ltmp553:
	#DEBUG_VALUE: main:argv <- %r12
	#DEBUG_VALUE: main:argc <- %ebp
	.loc	81 6 14 prologue_end    # src/main.cpp:6:14
	movq	$.L.str.11, (%rsp)
	leaq	16(%rsp), %rdx
	movl	$19134, %edi            # imm = 0x4ABE
	movl	$64, %esi
	movl	$1, %ecx
	movl	$.L.str.22, %r8d
	xorl	%r9d, %r9d
	callq	trace_logger_log_ptr
.Ltmp554:
	.loc	81 10 14                # src/main.cpp:10:14
	movl	$1, (%rsp)
	movl	$10, %edi
	movl	$.L.str.18, %esi
	movl	$.L.str.19, %edx
	movl	$.L.str.23, %ecx
	movl	$51, %r8d
	xorl	%r9d, %r9d
	callq	trace_logger_log0
	movq	$.L.str.11, (%rsp)
	movl	$2, %edi
	movl	$32, %esi
	movl	$2, %edx
	xorl	%ecx, %ecx
	movl	$.L.str.15, %r8d
	xorl	%r9d, %r9d
	callq	trace_logger_log_int
	movl	%ebp, %r13d
	movq	$.L.str.11, (%rsp)
	movl	$1, %edi
	movl	$32, %esi
	movl	$1, %ecx
	movl	$.L.str.24, %r8d
	xorl	%r9d, %r9d
	movq	%r13, %rdx
	callq	trace_logger_log_int
	xorl	%ebx, %ebx
	cmpl	$2, %ebp
	setl	%bl
.Ltmp555:
	.loc	81 10 9 is_stmt 0       # src/main.cpp:10:9
	movq	$.L.str.11, (%rsp)
	movl	$19134, %edi            # imm = 0x4ABE
	movl	$1, %esi
	movl	$1, %ecx
	movl	$.L.str.23, %r8d
	xorl	%r9d, %r9d
	movq	%rbx, %rdx
	callq	trace_logger_log_int
	movl	$1, (%rsp)
	movl	$10, %edi
	movl	$.L.str.18, %esi
	movl	$.L.str.19, %edx
	movl	$.L.str.25, %ecx
	movl	$2, %r8d
	xorl	%r9d, %r9d
	callq	trace_logger_log0
	movq	$.L.str.11, (%rsp)
	movl	$3, %edi
	movl	$0, %esi
	xorl	%edx, %edx
	movl	$1, %ecx
	movl	$.L.str.26, %r8d
	xorl	%r9d, %r9d
	callq	trace_logger_log_int
	movq	$.L.str.11, (%rsp)
	movl	$2, %edi
	movl	$0, %esi
	xorl	%edx, %edx
	movl	$1, %ecx
	movl	$.L.str.27, %r8d
	xorl	%r9d, %r9d
	callq	trace_logger_log_int
	movq	$.L.str.11, (%rsp)
	movl	$1, %edi
	movl	$1, %esi
	movl	$1, %ecx
	movl	$.L.str.23, %r8d
	xorl	%r9d, %r9d
	movq	%rbx, %rdx
	callq	trace_logger_log_int
.Ltmp556:
	.loc	81 10 14                # src/main.cpp:10:14
	cmpl	$1, %ebp
.Ltmp557:
	.loc	81 10 9                 # src/main.cpp:10:9
	jg	.LBB110_2
.Ltmp558:
# %bb.1:
	#DEBUG_VALUE: main:argc <- %ebp
	#DEBUG_VALUE: main:argv <- %r12
	.loc	81 11 13 is_stmt 1      # src/main.cpp:11:13
	movl	$1, (%rsp)
	movl	$11, %edi
	movl	$.L.str.18, %esi
	movl	$.L.str.26, %edx
	movl	$.L.str.28, %ecx
	movl	$54, %r8d
	xorl	%r9d, %r9d
	callq	trace_logger_log0
	movq	$.L.str.11, (%rsp)
	movl	$3, %edi
	movl	$64, %esi
	movl	$_ZStlsISt11char_traitsIcEERSt13basic_ostreamIcT_ES5_PKc, %edx
	movl	$1, %ecx
	movl	$.L.str.29, %r8d
	xorl	%r9d, %r9d
	callq	trace_logger_log_ptr
	movq	$.L.str.11, (%rsp)
	movl	$1, %edi
	movl	$64, %esi
	movl	$_ZSt4cout, %edx
	movl	$1, %ecx
	movl	$.L.str.30, %r8d
	xorl	%r9d, %r9d
	callq	trace_logger_log_ptr
	movq	$.L.str.11, (%rsp)
	movl	$2, %edi
	movl	$64, %esi
	movl	$.L.str.31, %edx
	xorl	%ecx, %ecx
	movl	$.L.str.15, %r8d
	xorl	%r9d, %r9d
	callq	trace_logger_log_string
	movl	$_ZSt4cout, %edi
	movl	$.L.str.32, %esi
	callq	_ZStlsISt11char_traitsIcEERSt13basic_ostreamIcT_ES5_PKc
	movq	%rax, %rbx
	.loc	81 11 29 is_stmt 0      # src/main.cpp:11:29
	movq	$.L.str.11, (%rsp)
	movl	$19134, %edi            # imm = 0x4ABE
	movl	$64, %esi
	movl	$1, %ecx
	movl	$.L.str.28, %r8d
	xorl	%r9d, %r9d
	movq	%rbx, %rdx
	callq	trace_logger_log_ptr
	movl	$1, (%rsp)
	movl	$11, %edi
	movl	$.L.str.18, %esi
	movl	$.L.str.26, %edx
	movl	$.L.str.32.33, %ecx
	movl	$30, %r8d
	xorl	%r9d, %r9d
	callq	trace_logger_log0
	movq	$.L.str.11, (%rsp)
	movl	$1, %edi
	movl	$64, %esi
	movl	$1, %ecx
