	.text
	.file	"llvm-link"
	.file	1 "/usr/lib/gcc/x86_64-linux-gnu/9/../../../../include/c++/9/ext/concurrence.h"
	.file	2 "/usr/lib/gcc/x86_64-linux-gnu/9/../../../../include/c++/9/bits/ios_base.h"
	.file	3 "/usr/lib/gcc/x86_64-linux-gnu/9/../../../../include/x86_64-linux-gnu/c++/9/bits/c++config.h"
	.file	4 "/usr/lib/gcc/x86_64-linux-gnu/9/../../../../include/c++/9/bits/postypes.h"
	.file	5 "/usr/include/stdlib.h"
	.file	6 "/usr/lib/gcc/x86_64-linux-gnu/9/../../../../include/c++/9/bits/std_abs.h"
	.file	7 "/usr/include/x86_64-linux-gnu/bits/mathcalls.h"
	.file	8 "/usr/lib/gcc/x86_64-linux-gnu/9/../../../../include/c++/9/cmath"
	.file	9 "/usr/include/math.h"
	.file	10 "/usr/lib/gcc/x86_64-linux-gnu/9/../../../../include/c++/9/math.h"
	.file	11 "/usr/lib/gcc/x86_64-linux-gnu/9/../../../../include/c++/9/debug/debug.h"
	.file	12 "/usr/lib/gcc/x86_64-linux-gnu/9/../../../../include/c++/9/bits/exception_ptr.h"
	.file	13 "/usr/lib/gcc/x86_64-linux-gnu/9/../../../../include/c++/9/ext/new_allocator.h"
	.file	14 "/usr/include/x86_64-linux-gnu/bits/types/__mbstate_t.h"
	.file	15 "/usr/include/x86_64-linux-gnu/bits/types/mbstate_t.h"
	.file	16 "/usr/lib/gcc/x86_64-linux-gnu/9/../../../../include/c++/9/cwchar"
	.file	17 "/usr/include/x86_64-linux-gnu/bits/types/wint_t.h"
	.file	18 "/usr/include/wchar.h"
	.file	19 "/usr/include/x86_64-linux-gnu/bits/types/__FILE.h"
	.file	20 "/home/yingj4/llvm-6.0/builtLLVM/lib/clang/6.0.1/include/stddef.h"
	.file	21 "/usr/include/x86_64-linux-gnu/bits/types.h"
	.file	22 "/usr/include/x86_64-linux-gnu/bits/stdint-intn.h"
	.file	23 "/usr/lib/gcc/x86_64-linux-gnu/9/../../../../include/c++/9/cstdint"
	.file	24 "/usr/include/stdint.h"
	.file	25 "/usr/include/x86_64-linux-gnu/bits/stdint-uintn.h"
	.file	26 "/usr/lib/gcc/x86_64-linux-gnu/9/../../../../include/c++/9/clocale"
	.file	27 "/usr/include/locale.h"
	.file	28 "/usr/include/ctype.h"
	.file	29 "/usr/lib/gcc/x86_64-linux-gnu/9/../../../../include/c++/9/cctype"
	.file	30 "/usr/lib/gcc/x86_64-linux-gnu/9/../../../../include/c++/9/cstdlib"
	.file	31 "/usr/include/x86_64-linux-gnu/bits/types/FILE.h"
	.file	32 "/usr/lib/gcc/x86_64-linux-gnu/9/../../../../include/c++/9/cstdio"
	.file	33 "/usr/include/x86_64-linux-gnu/bits/types/__fpos_t.h"
	.file	34 "/usr/include/stdio.h"
	.file	35 "/usr/lib/gcc/x86_64-linux-gnu/9/../../../../include/c++/9/bits/shared_ptr_base.h"
	.file	36 "/usr/lib/gcc/x86_64-linux-gnu/9/../../../../include/c++/9/stdlib.h"
	.file	37 "/usr/include/wctype.h"
	.file	38 "/usr/lib/gcc/x86_64-linux-gnu/9/../../../../include/c++/9/cwctype"
	.file	39 "/usr/include/x86_64-linux-gnu/bits/wctype-wchar.h"
	.globl	_ZN12ILLIXR_AUDIO5SoundC2ENSt7__cxx1112basic_stringIcSt11char_traitsIcESaIcEEEjb # -- Begin function _ZN12ILLIXR_AUDIO5SoundC2ENSt7__cxx1112basic_stringIcSt11char_traitsIcESaIcEEEjb
	.p2align	4, 0x90
	.type	_ZN12ILLIXR_AUDIO5SoundC2ENSt7__cxx1112basic_stringIcSt11char_traitsIcESaIcEEEjb,@function
_ZN12ILLIXR_AUDIO5SoundC2ENSt7__cxx1112basic_stringIcSt11char_traitsIcESaIcEEEjb: # @_ZN12ILLIXR_AUDIO5SoundC2ENSt7__cxx1112basic_stringIcSt11char_traitsIcESaIcEEEjb
.Lfunc_begin0:
	.file	40 "src/sound.cpp"
	.loc	40 5 0                  # src/sound.cpp:5:0
	.cfi_startproc
	.cfi_personality 3, __gxx_personality_v0
	.cfi_lsda 3, .Lexception0
# %bb.0:
	pushq	%rbp
	.cfi_def_cfa_offset 16
	pushq	%r15
	.cfi_def_cfa_offset 24
	pushq	%r14
	.cfi_def_cfa_offset 32
	pushq	%rbx
	.cfi_def_cfa_offset 40
	subq	$56, %rsp
	.cfi_def_cfa_offset 96
	.cfi_offset %rbx, -40
	.cfi_offset %r14, -32
	.cfi_offset %r15, -24
	.cfi_offset %rbp, -16
	#DEBUG_VALUE: Sound:this <- %rdi
	#DEBUG_VALUE: Sound:srcFilename <- [%rsi+0]
	#DEBUG_VALUE: Sound:nOrder <- %edx
	#DEBUG_VALUE: Sound:b3D <- %ecx
	movl	%edx, %r14d
	movq	%rsi, %r15
	movq	%rdi, %rbx
.Ltmp9:
	#DEBUG_VALUE: Sound:nOrder <- %r14d
	#DEBUG_VALUE: Sound:srcFilename <- [%r15+0]
	#DEBUG_VALUE: Sound:this <- %rbx
	.loc	40 6 9 prologue_end     # src/sound.cpp:6:9
	movl	$1065353216, 4132(%rbx) # imm = 0x3F800000
	.loc	40 7 15                 # src/sound.cpp:7:15
	movl	$528, %edi              # imm = 0x210
	callq	_Znwm
.Ltmp10:
	movq	%rax, %rbp
.Ltmp0:
	.loc	40 7 19 is_stmt 0       # src/sound.cpp:7:19
	movl	$8, %edx
	movq	%rbp, %rdi
	movq	%r15, %rsi
.Ltmp11:
	#DEBUG_VALUE: Sound:srcFilename <- [%rsi+0]
	callq	_ZNSt13basic_fstreamIcSt11char_traitsIcEEC1ERKNSt7__cxx1112basic_stringIcS1_SaIcEEESt13_Ios_Openmode
.Ltmp12:
.Ltmp1:
# %bb.1:
	#DEBUG_VALUE: Sound:this <- %rbx
	#DEBUG_VALUE: Sound:nOrder <- %r14d
	.loc	40 7 13                 # src/sound.cpp:7:13
	movq	%rbp, (%rbx)
	movq	%rsp, %rsi
	.loc	40 12 14 is_stmt 1      # src/sound.cpp:12:14
	movl	$44, %edx
	movq	%rbp, %rdi
	callq	_ZNSi4readEPcl
	.loc	40 15 15                # src/sound.cpp:15:15
	movl	$64, %edi
	callq	_Znwm
	movq	%rax, %rbp
.Ltmp3:
	.loc	40 15 19 is_stmt 0      # src/sound.cpp:15:19
	movq	%rbp, %rdi
	callq	_ZN8CBFormatC1Ev
.Ltmp4:
.Ltmp13:
# %bb.2:
	#DEBUG_VALUE: Sound:this <- %rbx
	#DEBUG_VALUE: Sound:nOrder <- %r14d
	.loc	40 15 13                # src/sound.cpp:15:13
	movq	%rbp, 4104(%rbx)
	.loc	40 16 24 is_stmt 1      # src/sound.cpp:16:24
	movq	(%rbp), %rax
	movl	$1, %edx
	movl	$1024, %ecx             # imm = 0x400
	movq	%rbp, %rdi
	movl	%r14d, %esi
	callq	*16(%rax)
	.loc	40 17 5                 # src/sound.cpp:17:5
	movq	4104(%rbx), %rdi
	.loc	40 17 14 is_stmt 0      # src/sound.cpp:17:14
	movq	(%rdi), %rax
	callq	*32(%rax)
	.loc	40 20 16 is_stmt 1      # src/sound.cpp:20:16
	movl	$136, %edi
	callq	_Znwm
	movq	%rax, %rbp
.Ltmp6:
	.loc	40 20 20 is_stmt 0      # src/sound.cpp:20:20
	movq	%rbp, %rdi
	callq	_ZN21CAmbisonicEncoderDistC1Ev
.Ltmp7:
.Ltmp14:
# %bb.3:
	#DEBUG_VALUE: Sound:this <- %rbx
	#DEBUG_VALUE: Sound:nOrder <- %r14d
	.loc	40 20 14                # src/sound.cpp:20:14
	movq	%rbp, 4112(%rbx)
	.loc	40 21 21 is_stmt 1      # src/sound.cpp:21:21
	movq	(%rbp), %rax
	movl	$1, %edx
	movl	$48000, %ecx            # imm = 0xBB80
	movq	%rbp, %rdi
	movl	%r14d, %esi
	callq	*16(%rax)
	.loc	40 22 5                 # src/sound.cpp:22:5
	movq	4112(%rbx), %rdi
	.loc	40 22 15 is_stmt 0      # src/sound.cpp:22:15
	movq	(%rdi), %rax
	callq	*32(%rax)
	.loc	40 23 21 is_stmt 1      # src/sound.cpp:23:21
	movq	$0, 4120(%rbx)
	.loc	40 25 22                # src/sound.cpp:25:22
	movl	$0, 4128(%rbx)
	.loc	40 26 5                 # src/sound.cpp:26:5
	movq	4112(%rbx), %rdi
	.loc	40 26 15 is_stmt 0      # src/sound.cpp:26:15
	movq	(%rdi), %rax
	xorl	%ecx, %ecx
	.loc	40 26 27                # src/sound.cpp:26:27
	movq	%rcx, %xmm0
	.loc	40 26 15                # src/sound.cpp:26:15
	xorps	%xmm1, %xmm1
	callq	*40(%rax)
	.loc	40 27 5 is_stmt 1       # src/sound.cpp:27:5
	movq	4112(%rbx), %rdi
	.loc	40 27 15 is_stmt 0      # src/sound.cpp:27:15
	movq	(%rdi), %rax
	callq	*32(%rax)
.Ltmp15:
	.loc	40 28 1 is_stmt 1       # src/sound.cpp:28:1
	addq	$56, %rsp
	popq	%rbx
.Ltmp16:
	popq	%r14
.Ltmp17:
	popq	%r15
	popq	%rbp
	retq
.Ltmp18:
.LBB0_6:
	#DEBUG_VALUE: Sound:this <- %rbx
	#DEBUG_VALUE: Sound:nOrder <- %r14d
.Ltmp8:
	.loc	40 0 1 is_stmt 0        # src/sound.cpp:0:1
	jmp	.LBB0_7
.Ltmp19:
.LBB0_5:
	#DEBUG_VALUE: Sound:this <- %rbx
	#DEBUG_VALUE: Sound:nOrder <- %r14d
.Ltmp5:
	jmp	.LBB0_7
.Ltmp20:
.LBB0_4:
	#DEBUG_VALUE: Sound:this <- %rbx
	#DEBUG_VALUE: Sound:nOrder <- %r14d
.Ltmp2:
.LBB0_7:
	#DEBUG_VALUE: Sound:this <- %rbx
	#DEBUG_VALUE: Sound:nOrder <- %r14d
	movq	%rax, %rbx
.Ltmp21:
	movq	%rbp, %rdi
	callq	_ZdlPv
	movq	%rbx, %rdi
	callq	_Unwind_Resume
.Lfunc_end0:
	.size	_ZN12ILLIXR_AUDIO5SoundC2ENSt7__cxx1112basic_stringIcSt11char_traitsIcESaIcEEEjb, .Lfunc_end0-_ZN12ILLIXR_AUDIO5SoundC2ENSt7__cxx1112basic_stringIcSt11char_traitsIcESaIcEEEjb
	.cfi_endproc
	.file	41 "/usr/lib/gcc/x86_64-linux-gnu/9/../../../../include/c++/9/iosfwd"
	.file	42 "./include/sound.h"
	.file	43 "./libspatialaudio/build/Release/include/spatialaudio/AmbisonicCommons.h"
	.file	44 "/usr/lib/gcc/x86_64-linux-gnu/9/../../../../include/c++/9/bits/stringfwd.h"
	.section	.gcc_except_table,"a",@progbits
	.p2align	2
GCC_except_table0:
.Lexception0:
	.byte	255                     # @LPStart Encoding = omit
	.byte	3                       # @TType Encoding = udata4
	.byte	93                      # @TType base offset
	.byte	3                       # Call site Encoding = udata4
	.byte	91                      # Call site table length
	.long	.Lfunc_begin0-.Lfunc_begin0 # >> Call Site 1 <<
	.long	.Ltmp0-.Lfunc_begin0    #   Call between .Lfunc_begin0 and .Ltmp0
	.long	0                       #     has no landing pad
	.byte	0                       #   On action: cleanup
	.long	.Ltmp0-.Lfunc_begin0    # >> Call Site 2 <<
	.long	.Ltmp1-.Ltmp0           #   Call between .Ltmp0 and .Ltmp1
	.long	.Ltmp2-.Lfunc_begin0    #     jumps to .Ltmp2
	.byte	0                       #   On action: cleanup
	.long	.Ltmp1-.Lfunc_begin0    # >> Call Site 3 <<
	.long	.Ltmp3-.Ltmp1           #   Call between .Ltmp1 and .Ltmp3
	.long	0                       #     has no landing pad
	.byte	0                       #   On action: cleanup
	.long	.Ltmp3-.Lfunc_begin0    # >> Call Site 4 <<
	.long	.Ltmp4-.Ltmp3           #   Call between .Ltmp3 and .Ltmp4
	.long	.Ltmp5-.Lfunc_begin0    #     jumps to .Ltmp5
	.byte	0                       #   On action: cleanup
	.long	.Ltmp4-.Lfunc_begin0    # >> Call Site 5 <<
	.long	.Ltmp6-.Ltmp4           #   Call between .Ltmp4 and .Ltmp6
	.long	0                       #     has no landing pad
	.byte	0                       #   On action: cleanup
	.long	.Ltmp6-.Lfunc_begin0    # >> Call Site 6 <<
	.long	.Ltmp7-.Ltmp6           #   Call between .Ltmp6 and .Ltmp7
	.long	.Ltmp8-.Lfunc_begin0    #     jumps to .Ltmp8
	.byte	0                       #   On action: cleanup
	.long	.Ltmp7-.Lfunc_begin0    # >> Call Site 7 <<
	.long	.Lfunc_end0-.Ltmp7      #   Call between .Ltmp7 and .Lfunc_end0
	.long	0                       #     has no landing pad
	.byte	0                       #   On action: cleanup
	.p2align	2
                                        # -- End function
	.section	.text._ZStorSt12_Ios_IostateS_,"axG",@progbits,_ZStorSt12_Ios_IostateS_,comdat
	.weak	_ZStorSt12_Ios_IostateS_ # -- Begin function _ZStorSt12_Ios_IostateS_
	.p2align	4, 0x90
	.type	_ZStorSt12_Ios_IostateS_,@function
_ZStorSt12_Ios_IostateS_:               # @_ZStorSt12_Ios_IostateS_
.Lfunc_begin1:
	.loc	2 170 0 is_stmt 1       # /usr/lib/gcc/x86_64-linux-gnu/9/../../../../include/c++/9/bits/ios_base.h:170:0
	.cfi_startproc
# %bb.0:
	#DEBUG_VALUE: operator|:__a <- %edi
	#DEBUG_VALUE: operator|:__a <- %edi
	#DEBUG_VALUE: operator|:__b <- %esi
	#DEBUG_VALUE: operator|:__b <- %esi
	.loc	2 170 47 prologue_end   # /usr/lib/gcc/x86_64-linux-gnu/9/../../../../include/c++/9/bits/ios_base.h:170:47
	orl	%esi, %edi
.Ltmp22:
	.loc	2 170 5 is_stmt 0       # /usr/lib/gcc/x86_64-linux-gnu/9/../../../../include/c++/9/bits/ios_base.h:170:5
	movl	%edi, %eax
	retq
.Ltmp23:
.Lfunc_end1:
	.size	_ZStorSt12_Ios_IostateS_, .Lfunc_end1-_ZStorSt12_Ios_IostateS_
	.cfi_endproc
                                        # -- End function
	.text
	.globl	_ZN12ILLIXR_AUDIO5Sound9setSrcPosER10PolarPoint # -- Begin function _ZN12ILLIXR_AUDIO5Sound9setSrcPosER10PolarPoint
	.p2align	4, 0x90
	.type	_ZN12ILLIXR_AUDIO5Sound9setSrcPosER10PolarPoint,@function
_ZN12ILLIXR_AUDIO5Sound9setSrcPosER10PolarPoint: # @_ZN12ILLIXR_AUDIO5Sound9setSrcPosER10PolarPoint
.Lfunc_begin2:
	.loc	40 30 0 is_stmt 1       # src/sound.cpp:30:0
	.cfi_startproc
# %bb.0:
	pushq	%rbx
	.cfi_def_cfa_offset 16
	.cfi_offset %rbx, -16
	#DEBUG_VALUE: setSrcPos:this <- %rdi
	#DEBUG_VALUE: setSrcPos:pos <- %rsi
	movq	%rdi, %rbx
	#DEBUG_VALUE: setSrcPos:pos <- %rsi
.Ltmp24:
	#DEBUG_VALUE: setSrcPos:this <- %rbx
	.loc	40 31 27 prologue_end   # src/sound.cpp:31:27
	movl	(%rsi), %eax
	.loc	40 31 21 is_stmt 0      # src/sound.cpp:31:21
	movl	%eax, 4120(%rbx)
	.loc	40 32 29 is_stmt 1      # src/sound.cpp:32:29
	movl	4(%rsi), %eax
	.loc	40 32 23 is_stmt 0      # src/sound.cpp:32:23
	movl	%eax, 4124(%rbx)
	.loc	40 33 28 is_stmt 1      # src/sound.cpp:33:28
	movl	8(%rsi), %eax
	.loc	40 33 22 is_stmt 0      # src/sound.cpp:33:22
	movl	%eax, 4128(%rbx)
	.loc	40 34 5 is_stmt 1       # src/sound.cpp:34:5
	movq	4112(%rbx), %rdi
	.loc	40 34 15 is_stmt 0      # src/sound.cpp:34:15
	movq	(%rdi), %rax
	.loc	40 34 27                # src/sound.cpp:34:27
	movsd	4120(%rbx), %xmm0       # xmm0 = mem[0],zero
	movss	4128(%rbx), %xmm1       # xmm1 = mem[0],zero,zero,zero
	.loc	40 34 15                # src/sound.cpp:34:15
	callq	*40(%rax)
.Ltmp25:
	.loc	40 35 5 is_stmt 1       # src/sound.cpp:35:5
	movq	4112(%rbx), %rdi
	.loc	40 35 15 is_stmt 0      # src/sound.cpp:35:15
	movq	(%rdi), %rax
	popq	%rbx
.Ltmp26:
	jmpq	*32(%rax)               # TAILCALL
.Ltmp27:
.Lfunc_end2:
	.size	_ZN12ILLIXR_AUDIO5Sound9setSrcPosER10PolarPoint, .Lfunc_end2-_ZN12ILLIXR_AUDIO5Sound9setSrcPosER10PolarPoint
	.cfi_endproc
                                        # -- End function
	.globl	_ZN12ILLIXR_AUDIO5Sound9setSrcAmpEf # -- Begin function _ZN12ILLIXR_AUDIO5Sound9setSrcAmpEf
	.p2align	4, 0x90
	.type	_ZN12ILLIXR_AUDIO5Sound9setSrcAmpEf,@function
_ZN12ILLIXR_AUDIO5Sound9setSrcAmpEf:    # @_ZN12ILLIXR_AUDIO5Sound9setSrcAmpEf
.Lfunc_begin3:
	.loc	40 38 0 is_stmt 1       # src/sound.cpp:38:0
	.cfi_startproc
# %bb.0:
	#DEBUG_VALUE: setSrcAmp:this <- %rdi
	#DEBUG_VALUE: setSrcAmp:this <- %rdi
	#DEBUG_VALUE: setSrcAmp:ampScale <- %xmm0
	#DEBUG_VALUE: setSrcAmp:ampScale <- %xmm0
	.loc	40 39 9 prologue_end    # src/sound.cpp:39:9
	movss	%xmm0, 4132(%rdi)
	.loc	40 40 1                 # src/sound.cpp:40:1
	retq
.Ltmp28:
.Lfunc_end3:
	.size	_ZN12ILLIXR_AUDIO5Sound9setSrcAmpEf, .Lfunc_end3-_ZN12ILLIXR_AUDIO5Sound9setSrcAmpEf
	.cfi_endproc
                                        # -- End function
	.section	.rodata.cst8,"aM",@progbits,8
	.p2align	3               # -- Begin function _ZN12ILLIXR_AUDIO5Sound13readInBFormatEv
.LCPI4_0:
	.quad	4674736138332667904     # double 32767
	.text
	.globl	_ZN12ILLIXR_AUDIO5Sound13readInBFormatEv
	.p2align	4, 0x90
	.type	_ZN12ILLIXR_AUDIO5Sound13readInBFormatEv,@function
_ZN12ILLIXR_AUDIO5Sound13readInBFormatEv: # @_ZN12ILLIXR_AUDIO5Sound13readInBFormatEv
.Lfunc_begin4:
	.loc	40 43 0                 # src/sound.cpp:43:0
	.cfi_startproc
# %bb.0:
	pushq	%rbx
	.cfi_def_cfa_offset 16
	subq	$2048, %rsp             # imm = 0x800
	.cfi_def_cfa_offset 2064
	.cfi_offset %rbx, -16
	#DEBUG_VALUE: readInBFormat:this <- %rdi
	movq	%rdi, %rbx
.Ltmp29:
	#DEBUG_VALUE: readInBFormat:this <- %rbx
	.loc	40 45 5 prologue_end    # src/sound.cpp:45:5
	movq	(%rbx), %rdi
	movq	%rsp, %rsi
	.loc	40 45 14 is_stmt 0      # src/sound.cpp:45:14
	movl	$2048, %edx             # imm = 0x800
	callq	_ZNSi4readEPcl
	movq	$-2048, %rax            # imm = 0xF800
	movsd	.LCPI4_0(%rip), %xmm0   # xmm0 = mem[0],zero
.Ltmp30:
	#DEBUG_VALUE: i <- 0
	.p2align	4, 0x90
.LBB4_1:                                # =>This Inner Loop Header: Depth=1
	#DEBUG_VALUE: readInBFormat:this <- %rbx
	.loc	40 48 21 is_stmt 1      # src/sound.cpp:48:21
	movss	4132(%rbx), %xmm1       # xmm1 = mem[0],zero,zero,zero
	cvtss2sd	%xmm1, %xmm1
	.loc	40 48 28 is_stmt 0      # src/sound.cpp:48:28
	movswl	2048(%rsp,%rax), %ecx
	xorps	%xmm2, %xmm2
	cvtsi2sdl	%ecx, %xmm2
	.loc	40 48 42                # src/sound.cpp:48:42
	divsd	%xmm0, %xmm2
	.loc	40 48 25                # src/sound.cpp:48:25
	mulsd	%xmm1, %xmm2
	.loc	40 48 21                # src/sound.cpp:48:21
	xorps	%xmm1, %xmm1
	cvtsd2ss	%xmm2, %xmm1
	.loc	40 48 19                # src/sound.cpp:48:19
	movss	%xmm1, 4104(%rbx,%rax,2)
.Ltmp31:
	.loc	40 47 23 is_stmt 1      # src/sound.cpp:47:23
	addq	$2, %rax
.Ltmp32:
	.loc	40 47 5 is_stmt 0       # src/sound.cpp:47:5
	jne	.LBB4_1
.Ltmp33:
# %bb.2:
	#DEBUG_VALUE: readInBFormat:this <- %rbx
	.loc	40 50 43 is_stmt 1      # src/sound.cpp:50:43
	movq	4104(%rbx), %rcx
	.loc	40 50 5 is_stmt 0       # src/sound.cpp:50:5
	movq	4112(%rbx), %rdi
	.loc	40 50 23                # src/sound.cpp:50:23
	leaq	8(%rbx), %rsi
	.loc	40 50 15                # src/sound.cpp:50:15
	movl	$1024, %edx             # imm = 0x400
	callq	_ZN21CAmbisonicEncoderDist7ProcessEPfjP8CBFormat
	.loc	40 51 12 is_stmt 1      # src/sound.cpp:51:12
	movq	4104(%rbx), %rax
	.loc	40 51 5 is_stmt 0       # src/sound.cpp:51:5
	addq	$2048, %rsp             # imm = 0x800
	popq	%rbx
.Ltmp34:
	retq
.Ltmp35:
.Lfunc_end4:
	.size	_ZN12ILLIXR_AUDIO5Sound13readInBFormatEv, .Lfunc_end4-_ZN12ILLIXR_AUDIO5Sound13readInBFormatEv
	.cfi_endproc
                                        # -- End function
	.globl	_ZN12ILLIXR_AUDIO5SoundD2Ev # -- Begin function _ZN12ILLIXR_AUDIO5SoundD2Ev
	.p2align	4, 0x90
	.type	_ZN12ILLIXR_AUDIO5SoundD2Ev,@function
_ZN12ILLIXR_AUDIO5SoundD2Ev:            # @_ZN12ILLIXR_AUDIO5SoundD2Ev
.Lfunc_begin5:
	.loc	40 54 0 is_stmt 1       # src/sound.cpp:54:0
	.cfi_startproc
	.cfi_personality 3, __gxx_personality_v0
	.cfi_lsda 3, .Lexception1
# %bb.0:
	pushq	%rbx
	.cfi_def_cfa_offset 16
	.cfi_offset %rbx, -16
	#DEBUG_VALUE: ~Sound:this <- %rdi
	movq	%rdi, %rbx
.Ltmp39:
	#DEBUG_VALUE: ~Sound:this <- %rbx
	.loc	40 55 5 prologue_end    # src/sound.cpp:55:5
	movq	(%rbx), %rdi
.Ltmp36:
	.loc	40 55 14 is_stmt 0      # src/sound.cpp:55:14
	callq	_ZNSt13basic_fstreamIcSt11char_traitsIcEE5closeEv
.Ltmp37:
.Ltmp40:
# %bb.1:
	#DEBUG_VALUE: ~Sound:this <- %rbx
	.loc	40 56 12 is_stmt 1      # src/sound.cpp:56:12
	movq	(%rbx), %rdi
	.loc	40 56 5 is_stmt 0       # src/sound.cpp:56:5
	testq	%rdi, %rdi
	je	.LBB5_3
.Ltmp41:
# %bb.2:
	#DEBUG_VALUE: ~Sound:this <- %rbx
	movq	(%rdi), %rax
	callq	*8(%rax)
.Ltmp42:
.LBB5_3:
	#DEBUG_VALUE: ~Sound:this <- %rbx
	.loc	40 57 12 is_stmt 1      # src/sound.cpp:57:12
	movq	4104(%rbx), %rdi
	.loc	40 57 5 is_stmt 0       # src/sound.cpp:57:5
	testq	%rdi, %rdi
	je	.LBB5_5
.Ltmp43:
# %bb.4:
	#DEBUG_VALUE: ~Sound:this <- %rbx
	movq	(%rdi), %rax
	callq	*8(%rax)
.Ltmp44:
.LBB5_5:
	#DEBUG_VALUE: ~Sound:this <- %rbx
	.loc	40 58 12 is_stmt 1      # src/sound.cpp:58:12
	movq	4112(%rbx), %rdi
	.loc	40 58 5 is_stmt 0       # src/sound.cpp:58:5
	testq	%rdi, %rdi
	je	.LBB5_6
.Ltmp45:
# %bb.8:
	#DEBUG_VALUE: ~Sound:this <- %rbx
	movq	(%rdi), %rax
	popq	%rbx
.Ltmp46:
	jmpq	*8(%rax)                # TAILCALL
.Ltmp47:
.LBB5_6:
	#DEBUG_VALUE: ~Sound:this <- %rbx
	.loc	40 59 1 is_stmt 1       # src/sound.cpp:59:1
	popq	%rbx
.Ltmp48:
	retq
.LBB5_7:
.Ltmp49:
	#DEBUG_VALUE: ~Sound:this <- %rbx
.Ltmp38:
	.loc	40 55 14                # src/sound.cpp:55:14
	movq	%rax, %rdi
	callq	__clang_call_terminate
.Ltmp50:
.Lfunc_end5:
	.size	_ZN12ILLIXR_AUDIO5SoundD2Ev, .Lfunc_end5-_ZN12ILLIXR_AUDIO5SoundD2Ev
	.cfi_endproc
	.section	.gcc_except_table,"a",@progbits
	.p2align	2
GCC_except_table5:
.Lexception1:
	.byte	255                     # @LPStart Encoding = omit
	.byte	3                       # @TType Encoding = udata4
	.asciz	"\242\200\200"          # @TType base offset
	.byte	3                       # Call site Encoding = udata4
	.byte	26                      # Call site table length
	.long	.Ltmp36-.Lfunc_begin5   # >> Call Site 1 <<
	.long	.Ltmp37-.Ltmp36         #   Call between .Ltmp36 and .Ltmp37
	.long	.Ltmp38-.Lfunc_begin5   #     jumps to .Ltmp38
	.byte	1                       #   On action: 1
	.long	.Ltmp37-.Lfunc_begin5   # >> Call Site 2 <<
	.long	.Lfunc_end5-.Ltmp37     #   Call between .Ltmp37 and .Lfunc_end5
	.long	0                       #     has no landing pad
	.byte	0                       #   On action: cleanup
	.byte	1                       # >> Action Record 1 <<
                                        #   Catch TypeInfo 1
	.byte	0                       #   No further actions
                                        # >> Catch TypeInfos <<
	.long	0                       # TypeInfo 1
	.p2align	2
                                        # -- End function
	.section	.text.__clang_call_terminate,"axG",@progbits,__clang_call_terminate,comdat
	.hidden	__clang_call_terminate  # -- Begin function __clang_call_terminate
	.weak	__clang_call_terminate
	.p2align	4, 0x90
	.type	__clang_call_terminate,@function
__clang_call_terminate:                 # @__clang_call_terminate
.Lfunc_begin6:
	.cfi_startproc
# %bb.0:
	pushq	%rax
	.cfi_def_cfa_offset 16
	callq	__cxa_begin_catch
	callq	_ZSt9terminatev
.Lfunc_end6:
	.size	__clang_call_terminate, .Lfunc_end6-__clang_call_terminate
	.cfi_endproc
                                        # -- End function
	.section	.text.startup,"ax",@progbits
	.p2align	4, 0x90         # -- Begin function _GLOBAL__sub_I_trace_logger.cpp
	.type	_GLOBAL__sub_I_trace_logger.cpp,@function
_GLOBAL__sub_I_trace_logger.cpp:        # @_GLOBAL__sub_I_trace_logger.cpp
.Lfunc_begin7:
	.cfi_startproc
# %bb.0:
	pushq	%rax
	.cfi_def_cfa_offset 16
	callq	__cxx_global_var_init
	popq	%rax
	jmp	__cxx_global_var_init.1 # TAILCALL
.Lfunc_end7:
	.size	_GLOBAL__sub_I_trace_logger.cpp, .Lfunc_end7-_GLOBAL__sub_I_trace_logger.cpp
	.cfi_endproc
                                        # -- End function
	.p2align	4, 0x90         # -- Begin function __cxx_global_var_init
	.type	__cxx_global_var_init,@function
__cxx_global_var_init:                  # @__cxx_global_var_init
.Lfunc_begin8:
	.cfi_startproc
# %bb.0:
	pushq	%rax
	.cfi_def_cfa_offset 16
	movl	$_Z8gz_filesB5cxx11, %edi
	callq	_ZNSt3mapINSt7__cxx1112basic_stringIcSt11char_traitsIcESaIcEEEP8gzFile_sSt4lessIS5_ESaISt4pairIKS5_S7_EEEC2Ev
	movl	$__dtor__Z8gz_filesB5cxx11, %edi
	popq	%rax
	jmp	atexit                  # TAILCALL
.Lfunc_end8:
	.size	__cxx_global_var_init, .Lfunc_end8-__cxx_global_var_init
	.cfi_endproc
                                        # -- End function
	.p2align	4, 0x90         # -- Begin function __cxx_global_var_init.1
	.type	__cxx_global_var_init.1,@function
__cxx_global_var_init.1:                # @__cxx_global_var_init.1
.Lfunc_begin9:
	.cfi_startproc
# %bb.0:
	pushq	%rax
	.cfi_def_cfa_offset 16
	movl	$_Z12labelmap_strB5cxx11, %edi
	callq	_ZNSt7__cxx1112basic_stringIcSt11char_traitsIcESaIcEEC2Ev
	movl	$__dtor__Z12labelmap_strB5cxx11, %edi
	popq	%rax
	jmp	atexit                  # TAILCALL
.Lfunc_end9:
	.size	__cxx_global_var_init.1, .Lfunc_end9-__cxx_global_var_init.1
	.cfi_endproc
                                        # -- End function
	.p2align	4, 0x90         # -- Begin function __dtor__Z12labelmap_strB5cxx11
	.type	__dtor__Z12labelmap_strB5cxx11,@function
__dtor__Z12labelmap_strB5cxx11:         # @__dtor__Z12labelmap_strB5cxx11
.Lfunc_begin10:
	.cfi_startproc
# %bb.0:
	movl	$_Z12labelmap_strB5cxx11, %edi
	jmp	_ZNSt7__cxx1112basic_stringIcSt11char_traitsIcESaIcEED2Ev # TAILCALL
.Lfunc_end10:
	.size	__dtor__Z12labelmap_strB5cxx11, .Lfunc_end10-__dtor__Z12labelmap_strB5cxx11
	.cfi_endproc
                                        # -- End function
	.section	.text._ZNSt3mapINSt7__cxx1112basic_stringIcSt11char_traitsIcESaIcEEEP8gzFile_sSt4lessIS5_ESaISt4pairIKS5_S7_EEEC2Ev,"axG",@progbits,_ZNSt3mapINSt7__cxx1112basic_stringIcSt11char_traitsIcESaIcEEEP8gzFile_sSt4lessIS5_ESaISt4pairIKS5_S7_EEEC2Ev,comdat
	.weak	_ZNSt3mapINSt7__cxx1112basic_stringIcSt11char_traitsIcESaIcEEEP8gzFile_sSt4lessIS5_ESaISt4pairIKS5_S7_EEEC2Ev # -- Begin function _ZNSt3mapINSt7__cxx1112basic_stringIcSt11char_traitsIcESaIcEEEP8gzFile_sSt4lessIS5_ESaISt4pairIKS5_S7_EEEC2Ev
	.p2align	4, 0x90
	.type	_ZNSt3mapINSt7__cxx1112basic_stringIcSt11char_traitsIcESaIcEEEP8gzFile_sSt4lessIS5_ESaISt4pairIKS5_S7_EEEC2Ev,@function
_ZNSt3mapINSt7__cxx1112basic_stringIcSt11char_traitsIcESaIcEEEP8gzFile_sSt4lessIS5_ESaISt4pairIKS5_S7_EEEC2Ev: # @_ZNSt3mapINSt7__cxx1112basic_stringIcSt11char_traitsIcESaIcEEEP8gzFile_sSt4lessIS5_ESaISt4pairIKS5_S7_EEEC2Ev
.Lfunc_begin11:
	.cfi_startproc
# %bb.0:
	jmp	_ZNSt8_Rb_treeINSt7__cxx1112basic_stringIcSt11char_traitsIcESaIcEEESt4pairIKS5_P8gzFile_sESt10_Select1stISA_ESt4lessIS5_ESaISA_EEC2Ev # TAILCALL
.Lfunc_end11:
	.size	_ZNSt3mapINSt7__cxx1112basic_stringIcSt11char_traitsIcESaIcEEEP8gzFile_sSt4lessIS5_ESaISt4pairIKS5_S7_EEEC2Ev, .Lfunc_end11-_ZNSt3mapINSt7__cxx1112basic_stringIcSt11char_traitsIcESaIcEEEP8gzFile_sSt4lessIS5_ESaISt4pairIKS5_S7_EEEC2Ev
	.cfi_endproc
                                        # -- End function
	.section	.text.startup,"ax",@progbits
	.p2align	4, 0x90         # -- Begin function __dtor__Z8gz_filesB5cxx11
	.type	__dtor__Z8gz_filesB5cxx11,@function
__dtor__Z8gz_filesB5cxx11:              # @__dtor__Z8gz_filesB5cxx11
.Lfunc_begin12:
	.cfi_startproc
# %bb.0:
	movl	$_Z8gz_filesB5cxx11, %edi
	jmp	_ZNSt3mapINSt7__cxx1112basic_stringIcSt11char_traitsIcESaIcEEEP8gzFile_sSt4lessIS5_ESaISt4pairIKS5_S7_EEED2Ev # TAILCALL
.Lfunc_end12:
	.size	__dtor__Z8gz_filesB5cxx11, .Lfunc_end12-__dtor__Z8gz_filesB5cxx11
	.cfi_endproc
                                        # -- End function
	.section	.text._ZNSt3mapINSt7__cxx1112basic_stringIcSt11char_traitsIcESaIcEEEP8gzFile_sSt4lessIS5_ESaISt4pairIKS5_S7_EEED2Ev,"axG",@progbits,_ZNSt3mapINSt7__cxx1112basic_stringIcSt11char_traitsIcESaIcEEEP8gzFile_sSt4lessIS5_ESaISt4pairIKS5_S7_EEED2Ev,comdat
	.weak	_ZNSt3mapINSt7__cxx1112basic_stringIcSt11char_traitsIcESaIcEEEP8gzFile_sSt4lessIS5_ESaISt4pairIKS5_S7_EEED2Ev # -- Begin function _ZNSt3mapINSt7__cxx1112basic_stringIcSt11char_traitsIcESaIcEEEP8gzFile_sSt4lessIS5_ESaISt4pairIKS5_S7_EEED2Ev
	.p2align	4, 0x90
	.type	_ZNSt3mapINSt7__cxx1112basic_stringIcSt11char_traitsIcESaIcEEEP8gzFile_sSt4lessIS5_ESaISt4pairIKS5_S7_EEED2Ev,@function
_ZNSt3mapINSt7__cxx1112basic_stringIcSt11char_traitsIcESaIcEEEP8gzFile_sSt4lessIS5_ESaISt4pairIKS5_S7_EEED2Ev: # @_ZNSt3mapINSt7__cxx1112basic_stringIcSt11char_traitsIcESaIcEEEP8gzFile_sSt4lessIS5_ESaISt4pairIKS5_S7_EEED2Ev
.Lfunc_begin13:
	.cfi_startproc
# %bb.0:
	jmp	_ZNSt8_Rb_treeINSt7__cxx1112basic_stringIcSt11char_traitsIcESaIcEEESt4pairIKS5_P8gzFile_sESt10_Select1stISA_ESt4lessIS5_ESaISA_EED2Ev # TAILCALL
.Lfunc_end13:
	.size	_ZNSt3mapINSt7__cxx1112basic_stringIcSt11char_traitsIcESaIcEEEP8gzFile_sSt4lessIS5_ESaISt4pairIKS5_S7_EEED2Ev, .Lfunc_end13-_ZNSt3mapINSt7__cxx1112basic_stringIcSt11char_traitsIcESaIcEEEP8gzFile_sSt4lessIS5_ESaISt4pairIKS5_S7_EEED2Ev
	.cfi_endproc
                                        # -- End function
	.section	.text._ZNSt8_Rb_treeINSt7__cxx1112basic_stringIcSt11char_traitsIcESaIcEEESt4pairIKS5_P8gzFile_sESt10_Select1stISA_ESt4lessIS5_ESaISA_EED2Ev,"axG",@progbits,_ZNSt8_Rb_treeINSt7__cxx1112basic_stringIcSt11char_traitsIcESaIcEEESt4pairIKS5_P8gzFile_sESt10_Select1stISA_ESt4lessIS5_ESaISA_EED2Ev,comdat
	.weak	_ZNSt8_Rb_treeINSt7__cxx1112basic_stringIcSt11char_traitsIcESaIcEEESt4pairIKS5_P8gzFile_sESt10_Select1stISA_ESt4lessIS5_ESaISA_EED2Ev # -- Begin function _ZNSt8_Rb_treeINSt7__cxx1112basic_stringIcSt11char_traitsIcESaIcEEESt4pairIKS5_P8gzFile_sESt10_Select1stISA_ESt4lessIS5_ESaISA_EED2Ev
	.p2align	4, 0x90
	.type	_ZNSt8_Rb_treeINSt7__cxx1112basic_stringIcSt11char_traitsIcESaIcEEESt4pairIKS5_P8gzFile_sESt10_Select1stISA_ESt4lessIS5_ESaISA_EED2Ev,@function
_ZNSt8_Rb_treeINSt7__cxx1112basic_stringIcSt11char_traitsIcESaIcEEESt4pairIKS5_P8gzFile_sESt10_Select1stISA_ESt4lessIS5_ESaISA_EED2Ev: # @_ZNSt8_Rb_treeINSt7__cxx1112basic_stringIcSt11char_traitsIcESaIcEEESt4pairIKS5_P8gzFile_sESt10_Select1stISA_ESt4lessIS5_ESaISA_EED2Ev
.Lfunc_begin14:
	.cfi_startproc
	.cfi_personality 3, __gxx_personality_v0
	.cfi_lsda 3, .Lexception2
# %bb.0:
	pushq	%r14
	.cfi_def_cfa_offset 16
	pushq	%rbx
	.cfi_def_cfa_offset 24
	pushq	%rax
	.cfi_def_cfa_offset 32
	.cfi_offset %rbx, -24
	.cfi_offset %r14, -16
	movq	%rdi, %rbx
	callq	_ZNSt8_Rb_treeINSt7__cxx1112basic_stringIcSt11char_traitsIcESaIcEEESt4pairIKS5_P8gzFile_sESt10_Select1stISA_ESt4lessIS5_ESaISA_EE8_M_beginEv
.Ltmp51:
	movq	%rbx, %rdi
	movq	%rax, %rsi
	callq	_ZNSt8_Rb_treeINSt7__cxx1112basic_stringIcSt11char_traitsIcESaIcEEESt4pairIKS5_P8gzFile_sESt10_Select1stISA_ESt4lessIS5_ESaISA_EE8_M_eraseEPSt13_Rb_tree_nodeISA_E
.Ltmp52:
# %bb.1:
	movq	%rbx, %rdi
	addq	$8, %rsp
	popq	%rbx
	popq	%r14
	jmp	_ZN9__gnu_cxx13new_allocatorISt13_Rb_tree_nodeISt4pairIKNSt7__cxx1112basic_stringIcSt11char_traitsIcESaIcEEEP8gzFile_sEEED2Ev # TAILCALL
.LBB14_2:
.Ltmp53:
	movq	%rax, %r14
	movq	%rbx, %rdi
	callq	_ZN9__gnu_cxx13new_allocatorISt13_Rb_tree_nodeISt4pairIKNSt7__cxx1112basic_stringIcSt11char_traitsIcESaIcEEEP8gzFile_sEEED2Ev
	movq	%r14, %rdi
	callq	__clang_call_terminate
.Lfunc_end14:
	.size	_ZNSt8_Rb_treeINSt7__cxx1112basic_stringIcSt11char_traitsIcESaIcEEESt4pairIKS5_P8gzFile_sESt10_Select1stISA_ESt4lessIS5_ESaISA_EED2Ev, .Lfunc_end14-_ZNSt8_Rb_treeINSt7__cxx1112basic_stringIcSt11char_traitsIcESaIcEEESt4pairIKS5_P8gzFile_sESt10_Select1stISA_ESt4lessIS5_ESaISA_EED2Ev
	.cfi_endproc
	.section	.gcc_except_table,"a",@progbits
	.p2align	2
GCC_except_table14:
.Lexception2:
	.byte	255                     # @LPStart Encoding = omit
	.byte	3                       # @TType Encoding = udata4
	.byte	21                      # @TType base offset
	.byte	3                       # Call site Encoding = udata4
	.byte	13                      # Call site table length
	.long	.Ltmp51-.Lfunc_begin14  # >> Call Site 1 <<
	.long	.Ltmp52-.Ltmp51         #   Call between .Ltmp51 and .Ltmp52
	.long	.Ltmp53-.Lfunc_begin14  #     jumps to .Ltmp53
	.byte	1                       #   On action: 1
	.byte	1                       # >> Action Record 1 <<
                                        #   Catch TypeInfo 1
	.byte	0                       #   No further actions
                                        # >> Catch TypeInfos <<
	.long	0                       # TypeInfo 1
	.p2align	2
                                        # -- End function
	.section	.text._ZNSt8_Rb_treeINSt7__cxx1112basic_stringIcSt11char_traitsIcESaIcEEESt4pairIKS5_P8gzFile_sESt10_Select1stISA_ESt4lessIS5_ESaISA_EE8_M_beginEv,"axG",@progbits,_ZNSt8_Rb_treeINSt7__cxx1112basic_stringIcSt11char_traitsIcESaIcEEESt4pairIKS5_P8gzFile_sESt10_Select1stISA_ESt4lessIS5_ESaISA_EE8_M_beginEv,comdat
	.weak	_ZNSt8_Rb_treeINSt7__cxx1112basic_stringIcSt11char_traitsIcESaIcEEESt4pairIKS5_P8gzFile_sESt10_Select1stISA_ESt4lessIS5_ESaISA_EE8_M_beginEv # -- Begin function _ZNSt8_Rb_treeINSt7__cxx1112basic_stringIcSt11char_traitsIcESaIcEEESt4pairIKS5_P8gzFile_sESt10_Select1stISA_ESt4lessIS5_ESaISA_EE8_M_beginEv
	.p2align	4, 0x90
	.type	_ZNSt8_Rb_treeINSt7__cxx1112basic_stringIcSt11char_traitsIcESaIcEEESt4pairIKS5_P8gzFile_sESt10_Select1stISA_ESt4lessIS5_ESaISA_EE8_M_beginEv,@function
_ZNSt8_Rb_treeINSt7__cxx1112basic_stringIcSt11char_traitsIcESaIcEEESt4pairIKS5_P8gzFile_sESt10_Select1stISA_ESt4lessIS5_ESaISA_EE8_M_beginEv: # @_ZNSt8_Rb_treeINSt7__cxx1112basic_stringIcSt11char_traitsIcESaIcEEESt4pairIKS5_P8gzFile_sESt10_Select1stISA_ESt4lessIS5_ESaISA_EE8_M_beginEv
.Lfunc_begin15:
	.cfi_startproc
# %bb.0:
	movq	16(%rdi), %rax
	retq
.Lfunc_end15:
	.size	_ZNSt8_Rb_treeINSt7__cxx1112basic_stringIcSt11char_traitsIcESaIcEEESt4pairIKS5_P8gzFile_sESt10_Select1stISA_ESt4lessIS5_ESaISA_EE8_M_beginEv, .Lfunc_end15-_ZNSt8_Rb_treeINSt7__cxx1112basic_stringIcSt11char_traitsIcESaIcEEESt4pairIKS5_P8gzFile_sESt10_Select1stISA_ESt4lessIS5_ESaISA_EE8_M_beginEv
	.cfi_endproc
                                        # -- End function
	.section	.text._ZNSt8_Rb_treeINSt7__cxx1112basic_stringIcSt11char_traitsIcESaIcEEESt4pairIKS5_P8gzFile_sESt10_Select1stISA_ESt4lessIS5_ESaISA_EE8_M_eraseEPSt13_Rb_tree_nodeISA_E,"axG",@progbits,_ZNSt8_Rb_treeINSt7__cxx1112basic_stringIcSt11char_traitsIcESaIcEEESt4pairIKS5_P8gzFile_sESt10_Select1stISA_ESt4lessIS5_ESaISA_EE8_M_eraseEPSt13_Rb_tree_nodeISA_E,comdat
	.weak	_ZNSt8_Rb_treeINSt7__cxx1112basic_stringIcSt11char_traitsIcESaIcEEESt4pairIKS5_P8gzFile_sESt10_Select1stISA_ESt4lessIS5_ESaISA_EE8_M_eraseEPSt13_Rb_tree_nodeISA_E # -- Begin function _ZNSt8_Rb_treeINSt7__cxx1112basic_stringIcSt11char_traitsIcESaIcEEESt4pairIKS5_P8gzFile_sESt10_Select1stISA_ESt4lessIS5_ESaISA_EE8_M_eraseEPSt13_Rb_tree_nodeISA_E
	.p2align	4, 0x90
	.type	_ZNSt8_Rb_treeINSt7__cxx1112basic_stringIcSt11char_traitsIcESaIcEEESt4pairIKS5_P8gzFile_sESt10_Select1stISA_ESt4lessIS5_ESaISA_EE8_M_eraseEPSt13_Rb_tree_nodeISA_E,@function
_ZNSt8_Rb_treeINSt7__cxx1112basic_stringIcSt11char_traitsIcESaIcEEESt4pairIKS5_P8gzFile_sESt10_Select1stISA_ESt4lessIS5_ESaISA_EE8_M_eraseEPSt13_Rb_tree_nodeISA_E: # @_ZNSt8_Rb_treeINSt7__cxx1112basic_stringIcSt11char_traitsIcESaIcEEESt4pairIKS5_P8gzFile_sESt10_Select1stISA_ESt4lessIS5_ESaISA_EE8_M_eraseEPSt13_Rb_tree_nodeISA_E
.Lfunc_begin16:
	.cfi_startproc
# %bb.0:
	pushq	%r15
	.cfi_def_cfa_offset 16
	pushq	%r14
	.cfi_def_cfa_offset 24
	pushq	%rbx
	.cfi_def_cfa_offset 32
	.cfi_offset %rbx, -32
	.cfi_offset %r14, -24
	.cfi_offset %r15, -16
	movq	%rsi, %rbx
	movq	%rdi, %r14
	testq	%rbx, %rbx
	je	.LBB16_2
	.p2align	4, 0x90
.LBB16_1:                               # =>This Inner Loop Header: Depth=1
	movq	%rbx, %rdi
	callq	_ZNSt8_Rb_treeINSt7__cxx1112basic_stringIcSt11char_traitsIcESaIcEEESt4pairIKS5_P8gzFile_sESt10_Select1stISA_ESt4lessIS5_ESaISA_EE8_S_rightEPSt18_Rb_tree_node_base
	movq	%r14, %rdi
	movq	%rax, %rsi
	callq	_ZNSt8_Rb_treeINSt7__cxx1112basic_stringIcSt11char_traitsIcESaIcEEESt4pairIKS5_P8gzFile_sESt10_Select1stISA_ESt4lessIS5_ESaISA_EE8_M_eraseEPSt13_Rb_tree_nodeISA_E
	movq	%rbx, %rdi
	callq	_ZNSt8_Rb_treeINSt7__cxx1112basic_stringIcSt11char_traitsIcESaIcEEESt4pairIKS5_P8gzFile_sESt10_Select1stISA_ESt4lessIS5_ESaISA_EE7_S_leftEPSt18_Rb_tree_node_base
	movq	%rax, %r15
	movq	%r14, %rdi
	movq	%rbx, %rsi
	callq	_ZNSt8_Rb_treeINSt7__cxx1112basic_stringIcSt11char_traitsIcESaIcEEESt4pairIKS5_P8gzFile_sESt10_Select1stISA_ESt4lessIS5_ESaISA_EE12_M_drop_nodeEPSt13_Rb_tree_nodeISA_E
	movq	%r15, %rbx
	testq	%r15, %r15
	jne	.LBB16_1
.LBB16_2:
	popq	%rbx
	popq	%r14
	popq	%r15
	retq
.Lfunc_end16:
	.size	_ZNSt8_Rb_treeINSt7__cxx1112basic_stringIcSt11char_traitsIcESaIcEEESt4pairIKS5_P8gzFile_sESt10_Select1stISA_ESt4lessIS5_ESaISA_EE8_M_eraseEPSt13_Rb_tree_nodeISA_E, .Lfunc_end16-_ZNSt8_Rb_treeINSt7__cxx1112basic_stringIcSt11char_traitsIcESaIcEEESt4pairIKS5_P8gzFile_sESt10_Select1stISA_ESt4lessIS5_ESaISA_EE8_M_eraseEPSt13_Rb_tree_nodeISA_E
	.cfi_endproc
                                        # -- End function
	.section	.text._ZN9__gnu_cxx13new_allocatorISt13_Rb_tree_nodeISt4pairIKNSt7__cxx1112basic_stringIcSt11char_traitsIcESaIcEEEP8gzFile_sEEED2Ev,"axG",@progbits,_ZN9__gnu_cxx13new_allocatorISt13_Rb_tree_nodeISt4pairIKNSt7__cxx1112basic_stringIcSt11char_traitsIcESaIcEEEP8gzFile_sEEED2Ev,comdat
	.weak	_ZN9__gnu_cxx13new_allocatorISt13_Rb_tree_nodeISt4pairIKNSt7__cxx1112basic_stringIcSt11char_traitsIcESaIcEEEP8gzFile_sEEED2Ev # -- Begin function _ZN9__gnu_cxx13new_allocatorISt13_Rb_tree_nodeISt4pairIKNSt7__cxx1112basic_stringIcSt11char_traitsIcESaIcEEEP8gzFile_sEEED2Ev
	.p2align	4, 0x90
	.type	_ZN9__gnu_cxx13new_allocatorISt13_Rb_tree_nodeISt4pairIKNSt7__cxx1112basic_stringIcSt11char_traitsIcESaIcEEEP8gzFile_sEEED2Ev,@function
_ZN9__gnu_cxx13new_allocatorISt13_Rb_tree_nodeISt4pairIKNSt7__cxx1112basic_stringIcSt11char_traitsIcESaIcEEEP8gzFile_sEEED2Ev: # @_ZN9__gnu_cxx13new_allocatorISt13_Rb_tree_nodeISt4pairIKNSt7__cxx1112basic_stringIcSt11char_traitsIcESaIcEEEP8gzFile_sEEED2Ev
.Lfunc_begin17:
	.cfi_startproc
# %bb.0:
	retq
.Lfunc_end17:
	.size	_ZN9__gnu_cxx13new_allocatorISt13_Rb_tree_nodeISt4pairIKNSt7__cxx1112basic_stringIcSt11char_traitsIcESaIcEEEP8gzFile_sEEED2Ev, .Lfunc_end17-_ZN9__gnu_cxx13new_allocatorISt13_Rb_tree_nodeISt4pairIKNSt7__cxx1112basic_stringIcSt11char_traitsIcESaIcEEEP8gzFile_sEEED2Ev
	.cfi_endproc
                                        # -- End function
	.section	.text._ZNSt8_Rb_treeINSt7__cxx1112basic_stringIcSt11char_traitsIcESaIcEEESt4pairIKS5_P8gzFile_sESt10_Select1stISA_ESt4lessIS5_ESaISA_EE8_S_rightEPSt18_Rb_tree_node_base,"axG",@progbits,_ZNSt8_Rb_treeINSt7__cxx1112basic_stringIcSt11char_traitsIcESaIcEEESt4pairIKS5_P8gzFile_sESt10_Select1stISA_ESt4lessIS5_ESaISA_EE8_S_rightEPSt18_Rb_tree_node_base,comdat
	.weak	_ZNSt8_Rb_treeINSt7__cxx1112basic_stringIcSt11char_traitsIcESaIcEEESt4pairIKS5_P8gzFile_sESt10_Select1stISA_ESt4lessIS5_ESaISA_EE8_S_rightEPSt18_Rb_tree_node_base # -- Begin function _ZNSt8_Rb_treeINSt7__cxx1112basic_stringIcSt11char_traitsIcESaIcEEESt4pairIKS5_P8gzFile_sESt10_Select1stISA_ESt4lessIS5_ESaISA_EE8_S_rightEPSt18_Rb_tree_node_base
	.p2align	4, 0x90
	.type	_ZNSt8_Rb_treeINSt7__cxx1112basic_stringIcSt11char_traitsIcESaIcEEESt4pairIKS5_P8gzFile_sESt10_Select1stISA_ESt4lessIS5_ESaISA_EE8_S_rightEPSt18_Rb_tree_node_base,@function
_ZNSt8_Rb_treeINSt7__cxx1112basic_stringIcSt11char_traitsIcESaIcEEESt4pairIKS5_P8gzFile_sESt10_Select1stISA_ESt4lessIS5_ESaISA_EE8_S_rightEPSt18_Rb_tree_node_base: # @_ZNSt8_Rb_treeINSt7__cxx1112basic_stringIcSt11char_traitsIcESaIcEEESt4pairIKS5_P8gzFile_sESt10_Select1stISA_ESt4lessIS5_ESaISA_EE8_S_rightEPSt18_Rb_tree_node_base
.Lfunc_begin18:
	.cfi_startproc
# %bb.0:
	movq	24(%rdi), %rax
	retq
.Lfunc_end18:
	.size	_ZNSt8_Rb_treeINSt7__cxx1112basic_stringIcSt11char_traitsIcESaIcEEESt4pairIKS5_P8gzFile_sESt10_Select1stISA_ESt4lessIS5_ESaISA_EE8_S_rightEPSt18_Rb_tree_node_base, .Lfunc_end18-_ZNSt8_Rb_treeINSt7__cxx1112basic_stringIcSt11char_traitsIcESaIcEEESt4pairIKS5_P8gzFile_sESt10_Select1stISA_ESt4lessIS5_ESaISA_EE8_S_rightEPSt18_Rb_tree_node_base
	.cfi_endproc
                                        # -- End function
	.section	.text._ZNSt8_Rb_treeINSt7__cxx1112basic_stringIcSt11char_traitsIcESaIcEEESt4pairIKS5_P8gzFile_sESt10_Select1stISA_ESt4lessIS5_ESaISA_EE7_S_leftEPSt18_Rb_tree_node_base,"axG",@progbits,_ZNSt8_Rb_treeINSt7__cxx1112basic_stringIcSt11char_traitsIcESaIcEEESt4pairIKS5_P8gzFile_sESt10_Select1stISA_ESt4lessIS5_ESaISA_EE7_S_leftEPSt18_Rb_tree_node_base,comdat
	.weak	_ZNSt8_Rb_treeINSt7__cxx1112basic_stringIcSt11char_traitsIcESaIcEEESt4pairIKS5_P8gzFile_sESt10_Select1stISA_ESt4lessIS5_ESaISA_EE7_S_leftEPSt18_Rb_tree_node_base # -- Begin function _ZNSt8_Rb_treeINSt7__cxx1112basic_stringIcSt11char_traitsIcESaIcEEESt4pairIKS5_P8gzFile_sESt10_Select1stISA_ESt4lessIS5_ESaISA_EE7_S_leftEPSt18_Rb_tree_node_base
	.p2align	4, 0x90
	.type	_ZNSt8_Rb_treeINSt7__cxx1112basic_stringIcSt11char_traitsIcESaIcEEESt4pairIKS5_P8gzFile_sESt10_Select1stISA_ESt4lessIS5_ESaISA_EE7_S_leftEPSt18_Rb_tree_node_base,@function
_ZNSt8_Rb_treeINSt7__cxx1112basic_stringIcSt11char_traitsIcESaIcEEESt4pairIKS5_P8gzFile_sESt10_Select1stISA_ESt4lessIS5_ESaISA_EE7_S_leftEPSt18_Rb_tree_node_base: # @_ZNSt8_Rb_treeINSt7__cxx1112basic_stringIcSt11char_traitsIcESaIcEEESt4pairIKS5_P8gzFile_sESt10_Select1stISA_ESt4lessIS5_ESaISA_EE7_S_leftEPSt18_Rb_tree_node_base
.Lfunc_begin19:
	.cfi_startproc
# %bb.0:
	movq	16(%rdi), %rax
	retq
.Lfunc_end19:
	.size	_ZNSt8_Rb_treeINSt7__cxx1112basic_stringIcSt11char_traitsIcESaIcEEESt4pairIKS5_P8gzFile_sESt10_Select1stISA_ESt4lessIS5_ESaISA_EE7_S_leftEPSt18_Rb_tree_node_base, .Lfunc_end19-_ZNSt8_Rb_treeINSt7__cxx1112basic_stringIcSt11char_traitsIcESaIcEEESt4pairIKS5_P8gzFile_sESt10_Select1stISA_ESt4lessIS5_ESaISA_EE7_S_leftEPSt18_Rb_tree_node_base
	.cfi_endproc
                                        # -- End function
	.section	.text._ZNSt8_Rb_treeINSt7__cxx1112basic_stringIcSt11char_traitsIcESaIcEEESt4pairIKS5_P8gzFile_sESt10_Select1stISA_ESt4lessIS5_ESaISA_EE12_M_drop_nodeEPSt13_Rb_tree_nodeISA_E,"axG",@progbits,_ZNSt8_Rb_treeINSt7__cxx1112basic_stringIcSt11char_traitsIcESaIcEEESt4pairIKS5_P8gzFile_sESt10_Select1stISA_ESt4lessIS5_ESaISA_EE12_M_drop_nodeEPSt13_Rb_tree_nodeISA_E,comdat
	.weak	_ZNSt8_Rb_treeINSt7__cxx1112basic_stringIcSt11char_traitsIcESaIcEEESt4pairIKS5_P8gzFile_sESt10_Select1stISA_ESt4lessIS5_ESaISA_EE12_M_drop_nodeEPSt13_Rb_tree_nodeISA_E # -- Begin function _ZNSt8_Rb_treeINSt7__cxx1112basic_stringIcSt11char_traitsIcESaIcEEESt4pairIKS5_P8gzFile_sESt10_Select1stISA_ESt4lessIS5_ESaISA_EE12_M_drop_nodeEPSt13_Rb_tree_nodeISA_E
	.p2align	4, 0x90
	.type	_ZNSt8_Rb_treeINSt7__cxx1112basic_stringIcSt11char_traitsIcESaIcEEESt4pairIKS5_P8gzFile_sESt10_Select1stISA_ESt4lessIS5_ESaISA_EE12_M_drop_nodeEPSt13_Rb_tree_nodeISA_E,@function
_ZNSt8_Rb_treeINSt7__cxx1112basic_stringIcSt11char_traitsIcESaIcEEESt4pairIKS5_P8gzFile_sESt10_Select1stISA_ESt4lessIS5_ESaISA_EE12_M_drop_nodeEPSt13_Rb_tree_nodeISA_E: # @_ZNSt8_Rb_treeINSt7__cxx1112basic_stringIcSt11char_traitsIcESaIcEEESt4pairIKS5_P8gzFile_sESt10_Select1stISA_ESt4lessIS5_ESaISA_EE12_M_drop_nodeEPSt13_Rb_tree_nodeISA_E
.Lfunc_begin20:
	.cfi_startproc
# %bb.0:
	pushq	%r14
	.cfi_def_cfa_offset 16
	pushq	%rbx
	.cfi_def_cfa_offset 24
	pushq	%rax
	.cfi_def_cfa_offset 32
	.cfi_offset %rbx, -24
	.cfi_offset %r14, -16
	movq	%rsi, %r14
	movq	%rdi, %rbx
	callq	_ZNSt8_Rb_treeINSt7__cxx1112basic_stringIcSt11char_traitsIcESaIcEEESt4pairIKS5_P8gzFile_sESt10_Select1stISA_ESt4lessIS5_ESaISA_EE15_M_destroy_nodeEPSt13_Rb_tree_nodeISA_E
	movq	%rbx, %rdi
	movq	%r14, %rsi
	addq	$8, %rsp
	popq	%rbx
	popq	%r14
	jmp	_ZNSt8_Rb_treeINSt7__cxx1112basic_stringIcSt11char_traitsIcESaIcEEESt4pairIKS5_P8gzFile_sESt10_Select1stISA_ESt4lessIS5_ESaISA_EE11_M_put_nodeEPSt13_Rb_tree_nodeISA_E # TAILCALL
.Lfunc_end20:
	.size	_ZNSt8_Rb_treeINSt7__cxx1112basic_stringIcSt11char_traitsIcESaIcEEESt4pairIKS5_P8gzFile_sESt10_Select1stISA_ESt4lessIS5_ESaISA_EE12_M_drop_nodeEPSt13_Rb_tree_nodeISA_E, .Lfunc_end20-_ZNSt8_Rb_treeINSt7__cxx1112basic_stringIcSt11char_traitsIcESaIcEEESt4pairIKS5_P8gzFile_sESt10_Select1stISA_ESt4lessIS5_ESaISA_EE12_M_drop_nodeEPSt13_Rb_tree_nodeISA_E
	.cfi_endproc
                                        # -- End function
	.section	.text._ZNSt8_Rb_treeINSt7__cxx1112basic_stringIcSt11char_traitsIcESaIcEEESt4pairIKS5_P8gzFile_sESt10_Select1stISA_ESt4lessIS5_ESaISA_EE15_M_destroy_nodeEPSt13_Rb_tree_nodeISA_E,"axG",@progbits,_ZNSt8_Rb_treeINSt7__cxx1112basic_stringIcSt11char_traitsIcESaIcEEESt4pairIKS5_P8gzFile_sESt10_Select1stISA_ESt4lessIS5_ESaISA_EE15_M_destroy_nodeEPSt13_Rb_tree_nodeISA_E,comdat
	.weak	_ZNSt8_Rb_treeINSt7__cxx1112basic_stringIcSt11char_traitsIcESaIcEEESt4pairIKS5_P8gzFile_sESt10_Select1stISA_ESt4lessIS5_ESaISA_EE15_M_destroy_nodeEPSt13_Rb_tree_nodeISA_E # -- Begin function _ZNSt8_Rb_treeINSt7__cxx1112basic_stringIcSt11char_traitsIcESaIcEEESt4pairIKS5_P8gzFile_sESt10_Select1stISA_ESt4lessIS5_ESaISA_EE15_M_destroy_nodeEPSt13_Rb_tree_nodeISA_E
	.p2align	4, 0x90
	.type	_ZNSt8_Rb_treeINSt7__cxx1112basic_stringIcSt11char_traitsIcESaIcEEESt4pairIKS5_P8gzFile_sESt10_Select1stISA_ESt4lessIS5_ESaISA_EE15_M_destroy_nodeEPSt13_Rb_tree_nodeISA_E,@function
_ZNSt8_Rb_treeINSt7__cxx1112basic_stringIcSt11char_traitsIcESaIcEEESt4pairIKS5_P8gzFile_sESt10_Select1stISA_ESt4lessIS5_ESaISA_EE15_M_destroy_nodeEPSt13_Rb_tree_nodeISA_E: # @_ZNSt8_Rb_treeINSt7__cxx1112basic_stringIcSt11char_traitsIcESaIcEEESt4pairIKS5_P8gzFile_sESt10_Select1stISA_ESt4lessIS5_ESaISA_EE15_M_destroy_nodeEPSt13_Rb_tree_nodeISA_E
.Lfunc_begin21:
	.cfi_startproc
# %bb.0:
	pushq	%r14
	.cfi_def_cfa_offset 16
	pushq	%rbx
	.cfi_def_cfa_offset 24
	pushq	%rax
	.cfi_def_cfa_offset 32
	.cfi_offset %rbx, -24
	.cfi_offset %r14, -16
	movq	%rsi, %r14
	callq	_ZNSt8_Rb_treeINSt7__cxx1112basic_stringIcSt11char_traitsIcESaIcEEESt4pairIKS5_P8gzFile_sESt10_Select1stISA_ESt4lessIS5_ESaISA_EE21_M_get_Node_allocatorEv
	movq	%rax, %rbx
	movq	%r14, %rdi
	callq	_ZNSt13_Rb_tree_nodeISt4pairIKNSt7__cxx1112basic_stringIcSt11char_traitsIcESaIcEEEP8gzFile_sEE9_M_valptrEv
	movq	%rbx, %rdi
	movq	%rax, %rsi
	addq	$8, %rsp
	popq	%rbx
	popq	%r14
	jmp	_ZNSt16allocator_traitsISaISt13_Rb_tree_nodeISt4pairIKNSt7__cxx1112basic_stringIcSt11char_traitsIcESaIcEEEP8gzFile_sEEEE7destroyISB_EEvRSD_PT_ # TAILCALL
.Lfunc_end21:
	.size	_ZNSt8_Rb_treeINSt7__cxx1112basic_stringIcSt11char_traitsIcESaIcEEESt4pairIKS5_P8gzFile_sESt10_Select1stISA_ESt4lessIS5_ESaISA_EE15_M_destroy_nodeEPSt13_Rb_tree_nodeISA_E, .Lfunc_end21-_ZNSt8_Rb_treeINSt7__cxx1112basic_stringIcSt11char_traitsIcESaIcEEESt4pairIKS5_P8gzFile_sESt10_Select1stISA_ESt4lessIS5_ESaISA_EE15_M_destroy_nodeEPSt13_Rb_tree_nodeISA_E
	.cfi_endproc
                                        # -- End function
	.section	.text._ZNSt8_Rb_treeINSt7__cxx1112basic_stringIcSt11char_traitsIcESaIcEEESt4pairIKS5_P8gzFile_sESt10_Select1stISA_ESt4lessIS5_ESaISA_EE11_M_put_nodeEPSt13_Rb_tree_nodeISA_E,"axG",@progbits,_ZNSt8_Rb_treeINSt7__cxx1112basic_stringIcSt11char_traitsIcESaIcEEESt4pairIKS5_P8gzFile_sESt10_Select1stISA_ESt4lessIS5_ESaISA_EE11_M_put_nodeEPSt13_Rb_tree_nodeISA_E,comdat
	.weak	_ZNSt8_Rb_treeINSt7__cxx1112basic_stringIcSt11char_traitsIcESaIcEEESt4pairIKS5_P8gzFile_sESt10_Select1stISA_ESt4lessIS5_ESaISA_EE11_M_put_nodeEPSt13_Rb_tree_nodeISA_E # -- Begin function _ZNSt8_Rb_treeINSt7__cxx1112basic_stringIcSt11char_traitsIcESaIcEEESt4pairIKS5_P8gzFile_sESt10_Select1stISA_ESt4lessIS5_ESaISA_EE11_M_put_nodeEPSt13_Rb_tree_nodeISA_E
	.p2align	4, 0x90
	.type	_ZNSt8_Rb_treeINSt7__cxx1112basic_stringIcSt11char_traitsIcESaIcEEESt4pairIKS5_P8gzFile_sESt10_Select1stISA_ESt4lessIS5_ESaISA_EE11_M_put_nodeEPSt13_Rb_tree_nodeISA_E,@function
_ZNSt8_Rb_treeINSt7__cxx1112basic_stringIcSt11char_traitsIcESaIcEEESt4pairIKS5_P8gzFile_sESt10_Select1stISA_ESt4lessIS5_ESaISA_EE11_M_put_nodeEPSt13_Rb_tree_nodeISA_E: # @_ZNSt8_Rb_treeINSt7__cxx1112basic_stringIcSt11char_traitsIcESaIcEEESt4pairIKS5_P8gzFile_sESt10_Select1stISA_ESt4lessIS5_ESaISA_EE11_M_put_nodeEPSt13_Rb_tree_nodeISA_E
.Lfunc_begin22:
	.cfi_startproc
	.cfi_personality 3, __gxx_personality_v0
	.cfi_lsda 3, .Lexception3
# %bb.0:
	pushq	%rbx
	.cfi_def_cfa_offset 16
	.cfi_offset %rbx, -16
	movq	%rsi, %rbx
	callq	_ZNSt8_Rb_treeINSt7__cxx1112basic_stringIcSt11char_traitsIcESaIcEEESt4pairIKS5_P8gzFile_sESt10_Select1stISA_ESt4lessIS5_ESaISA_EE21_M_get_Node_allocatorEv
.Ltmp54:
	movl	$1, %edx
	movq	%rax, %rdi
	movq	%rbx, %rsi
	callq	_ZNSt16allocator_traitsISaISt13_Rb_tree_nodeISt4pairIKNSt7__cxx1112basic_stringIcSt11char_traitsIcESaIcEEEP8gzFile_sEEEE10deallocateERSD_PSC_m
.Ltmp55:
# %bb.1:
	popq	%rbx
	retq
.LBB22_2:
.Ltmp56:
	movq	%rax, %rdi
	callq	__clang_call_terminate
.Lfunc_end22:
	.size	_ZNSt8_Rb_treeINSt7__cxx1112basic_stringIcSt11char_traitsIcESaIcEEESt4pairIKS5_P8gzFile_sESt10_Select1stISA_ESt4lessIS5_ESaISA_EE11_M_put_nodeEPSt13_Rb_tree_nodeISA_E, .Lfunc_end22-_ZNSt8_Rb_treeINSt7__cxx1112basic_stringIcSt11char_traitsIcESaIcEEESt4pairIKS5_P8gzFile_sESt10_Select1stISA_ESt4lessIS5_ESaISA_EE11_M_put_nodeEPSt13_Rb_tree_nodeISA_E
	.cfi_endproc
	.section	.gcc_except_table,"a",@progbits
	.p2align	2
GCC_except_table22:
.Lexception3:
	.byte	255                     # @LPStart Encoding = omit
	.byte	3                       # @TType Encoding = udata4
	.byte	21                      # @TType base offset
	.byte	3                       # Call site Encoding = udata4
	.byte	13                      # Call site table length
	.long	.Ltmp54-.Lfunc_begin22  # >> Call Site 1 <<
	.long	.Ltmp55-.Ltmp54         #   Call between .Ltmp54 and .Ltmp55
	.long	.Ltmp56-.Lfunc_begin22  #     jumps to .Ltmp56
	.byte	1                       #   On action: 1
	.byte	1                       # >> Action Record 1 <<
                                        #   Catch TypeInfo 1
	.byte	0                       #   No further actions
                                        # >> Catch TypeInfos <<
	.long	0                       # TypeInfo 1
	.p2align	2
                                        # -- End function
	.section	.text._ZNSt8_Rb_treeINSt7__cxx1112basic_stringIcSt11char_traitsIcESaIcEEESt4pairIKS5_P8gzFile_sESt10_Select1stISA_ESt4lessIS5_ESaISA_EE21_M_get_Node_allocatorEv,"axG",@progbits,_ZNSt8_Rb_treeINSt7__cxx1112basic_stringIcSt11char_traitsIcESaIcEEESt4pairIKS5_P8gzFile_sESt10_Select1stISA_ESt4lessIS5_ESaISA_EE21_M_get_Node_allocatorEv,comdat
	.weak	_ZNSt8_Rb_treeINSt7__cxx1112basic_stringIcSt11char_traitsIcESaIcEEESt4pairIKS5_P8gzFile_sESt10_Select1stISA_ESt4lessIS5_ESaISA_EE21_M_get_Node_allocatorEv # -- Begin function _ZNSt8_Rb_treeINSt7__cxx1112basic_stringIcSt11char_traitsIcESaIcEEESt4pairIKS5_P8gzFile_sESt10_Select1stISA_ESt4lessIS5_ESaISA_EE21_M_get_Node_allocatorEv
	.p2align	4, 0x90
	.type	_ZNSt8_Rb_treeINSt7__cxx1112basic_stringIcSt11char_traitsIcESaIcEEESt4pairIKS5_P8gzFile_sESt10_Select1stISA_ESt4lessIS5_ESaISA_EE21_M_get_Node_allocatorEv,@function
_ZNSt8_Rb_treeINSt7__cxx1112basic_stringIcSt11char_traitsIcESaIcEEESt4pairIKS5_P8gzFile_sESt10_Select1stISA_ESt4lessIS5_ESaISA_EE21_M_get_Node_allocatorEv: # @_ZNSt8_Rb_treeINSt7__cxx1112basic_stringIcSt11char_traitsIcESaIcEEESt4pairIKS5_P8gzFile_sESt10_Select1stISA_ESt4lessIS5_ESaISA_EE21_M_get_Node_allocatorEv
.Lfunc_begin23:
	.cfi_startproc
# %bb.0:
	movq	%rdi, %rax
	retq
.Lfunc_end23:
	.size	_ZNSt8_Rb_treeINSt7__cxx1112basic_stringIcSt11char_traitsIcESaIcEEESt4pairIKS5_P8gzFile_sESt10_Select1stISA_ESt4lessIS5_ESaISA_EE21_M_get_Node_allocatorEv, .Lfunc_end23-_ZNSt8_Rb_treeINSt7__cxx1112basic_stringIcSt11char_traitsIcESaIcEEESt4pairIKS5_P8gzFile_sESt10_Select1stISA_ESt4lessIS5_ESaISA_EE21_M_get_Node_allocatorEv
	.cfi_endproc
                                        # -- End function
	.section	.text._ZNSt16allocator_traitsISaISt13_Rb_tree_nodeISt4pairIKNSt7__cxx1112basic_stringIcSt11char_traitsIcESaIcEEEP8gzFile_sEEEE10deallocateERSD_PSC_m,"axG",@progbits,_ZNSt16allocator_traitsISaISt13_Rb_tree_nodeISt4pairIKNSt7__cxx1112basic_stringIcSt11char_traitsIcESaIcEEEP8gzFile_sEEEE10deallocateERSD_PSC_m,comdat
	.weak	_ZNSt16allocator_traitsISaISt13_Rb_tree_nodeISt4pairIKNSt7__cxx1112basic_stringIcSt11char_traitsIcESaIcEEEP8gzFile_sEEEE10deallocateERSD_PSC_m # -- Begin function _ZNSt16allocator_traitsISaISt13_Rb_tree_nodeISt4pairIKNSt7__cxx1112basic_stringIcSt11char_traitsIcESaIcEEEP8gzFile_sEEEE10deallocateERSD_PSC_m
	.p2align	4, 0x90
	.type	_ZNSt16allocator_traitsISaISt13_Rb_tree_nodeISt4pairIKNSt7__cxx1112basic_stringIcSt11char_traitsIcESaIcEEEP8gzFile_sEEEE10deallocateERSD_PSC_m,@function
_ZNSt16allocator_traitsISaISt13_Rb_tree_nodeISt4pairIKNSt7__cxx1112basic_stringIcSt11char_traitsIcESaIcEEEP8gzFile_sEEEE10deallocateERSD_PSC_m: # @_ZNSt16allocator_traitsISaISt13_Rb_tree_nodeISt4pairIKNSt7__cxx1112basic_stringIcSt11char_traitsIcESaIcEEEP8gzFile_sEEEE10deallocateERSD_PSC_m
.Lfunc_begin24:
	.cfi_startproc
# %bb.0:
	jmp	_ZN9__gnu_cxx13new_allocatorISt13_Rb_tree_nodeISt4pairIKNSt7__cxx1112basic_stringIcSt11char_traitsIcESaIcEEEP8gzFile_sEEE10deallocateEPSD_m # TAILCALL
.Lfunc_end24:
	.size	_ZNSt16allocator_traitsISaISt13_Rb_tree_nodeISt4pairIKNSt7__cxx1112basic_stringIcSt11char_traitsIcESaIcEEEP8gzFile_sEEEE10deallocateERSD_PSC_m, .Lfunc_end24-_ZNSt16allocator_traitsISaISt13_Rb_tree_nodeISt4pairIKNSt7__cxx1112basic_stringIcSt11char_traitsIcESaIcEEEP8gzFile_sEEEE10deallocateERSD_PSC_m
	.cfi_endproc
                                        # -- End function
	.section	.text._ZN9__gnu_cxx13new_allocatorISt13_Rb_tree_nodeISt4pairIKNSt7__cxx1112basic_stringIcSt11char_traitsIcESaIcEEEP8gzFile_sEEE10deallocateEPSD_m,"axG",@progbits,_ZN9__gnu_cxx13new_allocatorISt13_Rb_tree_nodeISt4pairIKNSt7__cxx1112basic_stringIcSt11char_traitsIcESaIcEEEP8gzFile_sEEE10deallocateEPSD_m,comdat
	.weak	_ZN9__gnu_cxx13new_allocatorISt13_Rb_tree_nodeISt4pairIKNSt7__cxx1112basic_stringIcSt11char_traitsIcESaIcEEEP8gzFile_sEEE10deallocateEPSD_m # -- Begin function _ZN9__gnu_cxx13new_allocatorISt13_Rb_tree_nodeISt4pairIKNSt7__cxx1112basic_stringIcSt11char_traitsIcESaIcEEEP8gzFile_sEEE10deallocateEPSD_m
	.p2align	4, 0x90
	.type	_ZN9__gnu_cxx13new_allocatorISt13_Rb_tree_nodeISt4pairIKNSt7__cxx1112basic_stringIcSt11char_traitsIcESaIcEEEP8gzFile_sEEE10deallocateEPSD_m,@function
_ZN9__gnu_cxx13new_allocatorISt13_Rb_tree_nodeISt4pairIKNSt7__cxx1112basic_stringIcSt11char_traitsIcESaIcEEEP8gzFile_sEEE10deallocateEPSD_m: # @_ZN9__gnu_cxx13new_allocatorISt13_Rb_tree_nodeISt4pairIKNSt7__cxx1112basic_stringIcSt11char_traitsIcESaIcEEEP8gzFile_sEEE10deallocateEPSD_m
.Lfunc_begin25:
	.cfi_startproc
# %bb.0:
	movq	%rsi, %rdi
	jmp	_ZdlPv                  # TAILCALL
.Lfunc_end25:
	.size	_ZN9__gnu_cxx13new_allocatorISt13_Rb_tree_nodeISt4pairIKNSt7__cxx1112basic_stringIcSt11char_traitsIcESaIcEEEP8gzFile_sEEE10deallocateEPSD_m, .Lfunc_end25-_ZN9__gnu_cxx13new_allocatorISt13_Rb_tree_nodeISt4pairIKNSt7__cxx1112basic_stringIcSt11char_traitsIcESaIcEEEP8gzFile_sEEE10deallocateEPSD_m
	.cfi_endproc
                                        # -- End function
	.section	.text._ZNSt13_Rb_tree_nodeISt4pairIKNSt7__cxx1112basic_stringIcSt11char_traitsIcESaIcEEEP8gzFile_sEE9_M_valptrEv,"axG",@progbits,_ZNSt13_Rb_tree_nodeISt4pairIKNSt7__cxx1112basic_stringIcSt11char_traitsIcESaIcEEEP8gzFile_sEE9_M_valptrEv,comdat
	.weak	_ZNSt13_Rb_tree_nodeISt4pairIKNSt7__cxx1112basic_stringIcSt11char_traitsIcESaIcEEEP8gzFile_sEE9_M_valptrEv # -- Begin function _ZNSt13_Rb_tree_nodeISt4pairIKNSt7__cxx1112basic_stringIcSt11char_traitsIcESaIcEEEP8gzFile_sEE9_M_valptrEv
	.p2align	4, 0x90
	.type	_ZNSt13_Rb_tree_nodeISt4pairIKNSt7__cxx1112basic_stringIcSt11char_traitsIcESaIcEEEP8gzFile_sEE9_M_valptrEv,@function
_ZNSt13_Rb_tree_nodeISt4pairIKNSt7__cxx1112basic_stringIcSt11char_traitsIcESaIcEEEP8gzFile_sEE9_M_valptrEv: # @_ZNSt13_Rb_tree_nodeISt4pairIKNSt7__cxx1112basic_stringIcSt11char_traitsIcESaIcEEEP8gzFile_sEE9_M_valptrEv
.Lfunc_begin26:
	.cfi_startproc
# %bb.0:
	addq	$32, %rdi
	jmp	_ZN9__gnu_cxx16__aligned_membufISt4pairIKNSt7__cxx1112basic_stringIcSt11char_traitsIcESaIcEEEP8gzFile_sEE6_M_ptrEv # TAILCALL
.Lfunc_end26:
	.size	_ZNSt13_Rb_tree_nodeISt4pairIKNSt7__cxx1112basic_stringIcSt11char_traitsIcESaIcEEEP8gzFile_sEE9_M_valptrEv, .Lfunc_end26-_ZNSt13_Rb_tree_nodeISt4pairIKNSt7__cxx1112basic_stringIcSt11char_traitsIcESaIcEEEP8gzFile_sEE9_M_valptrEv
	.cfi_endproc
                                        # -- End function
	.section	.text._ZNSt16allocator_traitsISaISt13_Rb_tree_nodeISt4pairIKNSt7__cxx1112basic_stringIcSt11char_traitsIcESaIcEEEP8gzFile_sEEEE7destroyISB_EEvRSD_PT_,"axG",@progbits,_ZNSt16allocator_traitsISaISt13_Rb_tree_nodeISt4pairIKNSt7__cxx1112basic_stringIcSt11char_traitsIcESaIcEEEP8gzFile_sEEEE7destroyISB_EEvRSD_PT_,comdat
	.weak	_ZNSt16allocator_traitsISaISt13_Rb_tree_nodeISt4pairIKNSt7__cxx1112basic_stringIcSt11char_traitsIcESaIcEEEP8gzFile_sEEEE7destroyISB_EEvRSD_PT_ # -- Begin function _ZNSt16allocator_traitsISaISt13_Rb_tree_nodeISt4pairIKNSt7__cxx1112basic_stringIcSt11char_traitsIcESaIcEEEP8gzFile_sEEEE7destroyISB_EEvRSD_PT_
	.p2align	4, 0x90
	.type	_ZNSt16allocator_traitsISaISt13_Rb_tree_nodeISt4pairIKNSt7__cxx1112basic_stringIcSt11char_traitsIcESaIcEEEP8gzFile_sEEEE7destroyISB_EEvRSD_PT_,@function
_ZNSt16allocator_traitsISaISt13_Rb_tree_nodeISt4pairIKNSt7__cxx1112basic_stringIcSt11char_traitsIcESaIcEEEP8gzFile_sEEEE7destroyISB_EEvRSD_PT_: # @_ZNSt16allocator_traitsISaISt13_Rb_tree_nodeISt4pairIKNSt7__cxx1112basic_stringIcSt11char_traitsIcESaIcEEEP8gzFile_sEEEE7destroyISB_EEvRSD_PT_
.Lfunc_begin27:
	.cfi_startproc
# %bb.0:
	jmp	_ZN9__gnu_cxx13new_allocatorISt13_Rb_tree_nodeISt4pairIKNSt7__cxx1112basic_stringIcSt11char_traitsIcESaIcEEEP8gzFile_sEEE7destroyISC_EEvPT_ # TAILCALL
.Lfunc_end27:
	.size	_ZNSt16allocator_traitsISaISt13_Rb_tree_nodeISt4pairIKNSt7__cxx1112basic_stringIcSt11char_traitsIcESaIcEEEP8gzFile_sEEEE7destroyISB_EEvRSD_PT_, .Lfunc_end27-_ZNSt16allocator_traitsISaISt13_Rb_tree_nodeISt4pairIKNSt7__cxx1112basic_stringIcSt11char_traitsIcESaIcEEEP8gzFile_sEEEE7destroyISB_EEvRSD_PT_
	.cfi_endproc
                                        # -- End function
	.section	.text._ZN9__gnu_cxx13new_allocatorISt13_Rb_tree_nodeISt4pairIKNSt7__cxx1112basic_stringIcSt11char_traitsIcESaIcEEEP8gzFile_sEEE7destroyISC_EEvPT_,"axG",@progbits,_ZN9__gnu_cxx13new_allocatorISt13_Rb_tree_nodeISt4pairIKNSt7__cxx1112basic_stringIcSt11char_traitsIcESaIcEEEP8gzFile_sEEE7destroyISC_EEvPT_,comdat
	.weak	_ZN9__gnu_cxx13new_allocatorISt13_Rb_tree_nodeISt4pairIKNSt7__cxx1112basic_stringIcSt11char_traitsIcESaIcEEEP8gzFile_sEEE7destroyISC_EEvPT_ # -- Begin function _ZN9__gnu_cxx13new_allocatorISt13_Rb_tree_nodeISt4pairIKNSt7__cxx1112basic_stringIcSt11char_traitsIcESaIcEEEP8gzFile_sEEE7destroyISC_EEvPT_
	.p2align	4, 0x90
	.type	_ZN9__gnu_cxx13new_allocatorISt13_Rb_tree_nodeISt4pairIKNSt7__cxx1112basic_stringIcSt11char_traitsIcESaIcEEEP8gzFile_sEEE7destroyISC_EEvPT_,@function
_ZN9__gnu_cxx13new_allocatorISt13_Rb_tree_nodeISt4pairIKNSt7__cxx1112basic_stringIcSt11char_traitsIcESaIcEEEP8gzFile_sEEE7destroyISC_EEvPT_: # @_ZN9__gnu_cxx13new_allocatorISt13_Rb_tree_nodeISt4pairIKNSt7__cxx1112basic_stringIcSt11char_traitsIcESaIcEEEP8gzFile_sEEE7destroyISC_EEvPT_
.Lfunc_begin28:
	.cfi_startproc
# %bb.0:
	movq	%rsi, %rdi
	jmp	_ZNSt4pairIKNSt7__cxx1112basic_stringIcSt11char_traitsIcESaIcEEEP8gzFile_sED2Ev # TAILCALL
.Lfunc_end28:
	.size	_ZN9__gnu_cxx13new_allocatorISt13_Rb_tree_nodeISt4pairIKNSt7__cxx1112basic_stringIcSt11char_traitsIcESaIcEEEP8gzFile_sEEE7destroyISC_EEvPT_, .Lfunc_end28-_ZN9__gnu_cxx13new_allocatorISt13_Rb_tree_nodeISt4pairIKNSt7__cxx1112basic_stringIcSt11char_traitsIcESaIcEEEP8gzFile_sEEE7destroyISC_EEvPT_
	.cfi_endproc
                                        # -- End function
	.section	.text._ZNSt4pairIKNSt7__cxx1112basic_stringIcSt11char_traitsIcESaIcEEEP8gzFile_sED2Ev,"axG",@progbits,_ZNSt4pairIKNSt7__cxx1112basic_stringIcSt11char_traitsIcESaIcEEEP8gzFile_sED2Ev,comdat
	.weak	_ZNSt4pairIKNSt7__cxx1112basic_stringIcSt11char_traitsIcESaIcEEEP8gzFile_sED2Ev # -- Begin function _ZNSt4pairIKNSt7__cxx1112basic_stringIcSt11char_traitsIcESaIcEEEP8gzFile_sED2Ev
	.p2align	4, 0x90
	.type	_ZNSt4pairIKNSt7__cxx1112basic_stringIcSt11char_traitsIcESaIcEEEP8gzFile_sED2Ev,@function
_ZNSt4pairIKNSt7__cxx1112basic_stringIcSt11char_traitsIcESaIcEEEP8gzFile_sED2Ev: # @_ZNSt4pairIKNSt7__cxx1112basic_stringIcSt11char_traitsIcESaIcEEEP8gzFile_sED2Ev
.Lfunc_begin29:
	.cfi_startproc
# %bb.0:
	jmp	_ZNSt7__cxx1112basic_stringIcSt11char_traitsIcESaIcEED2Ev # TAILCALL
.Lfunc_end29:
	.size	_ZNSt4pairIKNSt7__cxx1112basic_stringIcSt11char_traitsIcESaIcEEEP8gzFile_sED2Ev, .Lfunc_end29-_ZNSt4pairIKNSt7__cxx1112basic_stringIcSt11char_traitsIcESaIcEEEP8gzFile_sED2Ev
	.cfi_endproc
                                        # -- End function
	.section	.text._ZN9__gnu_cxx16__aligned_membufISt4pairIKNSt7__cxx1112basic_stringIcSt11char_traitsIcESaIcEEEP8gzFile_sEE6_M_ptrEv,"axG",@progbits,_ZN9__gnu_cxx16__aligned_membufISt4pairIKNSt7__cxx1112basic_stringIcSt11char_traitsIcESaIcEEEP8gzFile_sEE6_M_ptrEv,comdat
	.weak	_ZN9__gnu_cxx16__aligned_membufISt4pairIKNSt7__cxx1112basic_stringIcSt11char_traitsIcESaIcEEEP8gzFile_sEE6_M_ptrEv # -- Begin function _ZN9__gnu_cxx16__aligned_membufISt4pairIKNSt7__cxx1112basic_stringIcSt11char_traitsIcESaIcEEEP8gzFile_sEE6_M_ptrEv
	.p2align	4, 0x90
	.type	_ZN9__gnu_cxx16__aligned_membufISt4pairIKNSt7__cxx1112basic_stringIcSt11char_traitsIcESaIcEEEP8gzFile_sEE6_M_ptrEv,@function
_ZN9__gnu_cxx16__aligned_membufISt4pairIKNSt7__cxx1112basic_stringIcSt11char_traitsIcESaIcEEEP8gzFile_sEE6_M_ptrEv: # @_ZN9__gnu_cxx16__aligned_membufISt4pairIKNSt7__cxx1112basic_stringIcSt11char_traitsIcESaIcEEEP8gzFile_sEE6_M_ptrEv
.Lfunc_begin30:
	.cfi_startproc
# %bb.0:
	jmp	_ZN9__gnu_cxx16__aligned_membufISt4pairIKNSt7__cxx1112basic_stringIcSt11char_traitsIcESaIcEEEP8gzFile_sEE7_M_addrEv # TAILCALL
.Lfunc_end30:
	.size	_ZN9__gnu_cxx16__aligned_membufISt4pairIKNSt7__cxx1112basic_stringIcSt11char_traitsIcESaIcEEEP8gzFile_sEE6_M_ptrEv, .Lfunc_end30-_ZN9__gnu_cxx16__aligned_membufISt4pairIKNSt7__cxx1112basic_stringIcSt11char_traitsIcESaIcEEEP8gzFile_sEE6_M_ptrEv
	.cfi_endproc
                                        # -- End function
	.section	.text._ZN9__gnu_cxx16__aligned_membufISt4pairIKNSt7__cxx1112basic_stringIcSt11char_traitsIcESaIcEEEP8gzFile_sEE7_M_addrEv,"axG",@progbits,_ZN9__gnu_cxx16__aligned_membufISt4pairIKNSt7__cxx1112basic_stringIcSt11char_traitsIcESaIcEEEP8gzFile_sEE7_M_addrEv,comdat
	.weak	_ZN9__gnu_cxx16__aligned_membufISt4pairIKNSt7__cxx1112basic_stringIcSt11char_traitsIcESaIcEEEP8gzFile_sEE7_M_addrEv # -- Begin function _ZN9__gnu_cxx16__aligned_membufISt4pairIKNSt7__cxx1112basic_stringIcSt11char_traitsIcESaIcEEEP8gzFile_sEE7_M_addrEv
	.p2align	4, 0x90
	.type	_ZN9__gnu_cxx16__aligned_membufISt4pairIKNSt7__cxx1112basic_stringIcSt11char_traitsIcESaIcEEEP8gzFile_sEE7_M_addrEv,@function
_ZN9__gnu_cxx16__aligned_membufISt4pairIKNSt7__cxx1112basic_stringIcSt11char_traitsIcESaIcEEEP8gzFile_sEE7_M_addrEv: # @_ZN9__gnu_cxx16__aligned_membufISt4pairIKNSt7__cxx1112basic_stringIcSt11char_traitsIcESaIcEEEP8gzFile_sEE7_M_addrEv
.Lfunc_begin31:
	.cfi_startproc
# %bb.0:
	movq	%rdi, %rax
	retq
.Lfunc_end31:
	.size	_ZN9__gnu_cxx16__aligned_membufISt4pairIKNSt7__cxx1112basic_stringIcSt11char_traitsIcESaIcEEEP8gzFile_sEE7_M_addrEv, .Lfunc_end31-_ZN9__gnu_cxx16__aligned_membufISt4pairIKNSt7__cxx1112basic_stringIcSt11char_traitsIcESaIcEEEP8gzFile_sEE7_M_addrEv
	.cfi_endproc
                                        # -- End function
	.section	.text._ZNSt8_Rb_treeINSt7__cxx1112basic_stringIcSt11char_traitsIcESaIcEEESt4pairIKS5_P8gzFile_sESt10_Select1stISA_ESt4lessIS5_ESaISA_EEC2Ev,"axG",@progbits,_ZNSt8_Rb_treeINSt7__cxx1112basic_stringIcSt11char_traitsIcESaIcEEESt4pairIKS5_P8gzFile_sESt10_Select1stISA_ESt4lessIS5_ESaISA_EEC2Ev,comdat
	.weak	_ZNSt8_Rb_treeINSt7__cxx1112basic_stringIcSt11char_traitsIcESaIcEEESt4pairIKS5_P8gzFile_sESt10_Select1stISA_ESt4lessIS5_ESaISA_EEC2Ev # -- Begin function _ZNSt8_Rb_treeINSt7__cxx1112basic_stringIcSt11char_traitsIcESaIcEEESt4pairIKS5_P8gzFile_sESt10_Select1stISA_ESt4lessIS5_ESaISA_EEC2Ev
	.p2align	4, 0x90
	.type	_ZNSt8_Rb_treeINSt7__cxx1112basic_stringIcSt11char_traitsIcESaIcEEESt4pairIKS5_P8gzFile_sESt10_Select1stISA_ESt4lessIS5_ESaISA_EEC2Ev,@function
_ZNSt8_Rb_treeINSt7__cxx1112basic_stringIcSt11char_traitsIcESaIcEEESt4pairIKS5_P8gzFile_sESt10_Select1stISA_ESt4lessIS5_ESaISA_EEC2Ev: # @_ZNSt8_Rb_treeINSt7__cxx1112basic_stringIcSt11char_traitsIcESaIcEEESt4pairIKS5_P8gzFile_sESt10_Select1stISA_ESt4lessIS5_ESaISA_EEC2Ev
.Lfunc_begin32:
	.cfi_startproc
# %bb.0:
	jmp	_ZNSt8_Rb_treeINSt7__cxx1112basic_stringIcSt11char_traitsIcESaIcEEESt4pairIKS5_P8gzFile_sESt10_Select1stISA_ESt4lessIS5_ESaISA_EE13_Rb_tree_implISE_Lb1EEC2Ev # TAILCALL
.Lfunc_end32:
	.size	_ZNSt8_Rb_treeINSt7__cxx1112basic_stringIcSt11char_traitsIcESaIcEEESt4pairIKS5_P8gzFile_sESt10_Select1stISA_ESt4lessIS5_ESaISA_EEC2Ev, .Lfunc_end32-_ZNSt8_Rb_treeINSt7__cxx1112basic_stringIcSt11char_traitsIcESaIcEEESt4pairIKS5_P8gzFile_sESt10_Select1stISA_ESt4lessIS5_ESaISA_EEC2Ev
	.cfi_endproc
                                        # -- End function
	.section	.text._ZNSt8_Rb_treeINSt7__cxx1112basic_stringIcSt11char_traitsIcESaIcEEESt4pairIKS5_P8gzFile_sESt10_Select1stISA_ESt4lessIS5_ESaISA_EE13_Rb_tree_implISE_Lb1EEC2Ev,"axG",@progbits,_ZNSt8_Rb_treeINSt7__cxx1112basic_stringIcSt11char_traitsIcESaIcEEESt4pairIKS5_P8gzFile_sESt10_Select1stISA_ESt4lessIS5_ESaISA_EE13_Rb_tree_implISE_Lb1EEC2Ev,comdat
	.weak	_ZNSt8_Rb_treeINSt7__cxx1112basic_stringIcSt11char_traitsIcESaIcEEESt4pairIKS5_P8gzFile_sESt10_Select1stISA_ESt4lessIS5_ESaISA_EE13_Rb_tree_implISE_Lb1EEC2Ev # -- Begin function _ZNSt8_Rb_treeINSt7__cxx1112basic_stringIcSt11char_traitsIcESaIcEEESt4pairIKS5_P8gzFile_sESt10_Select1stISA_ESt4lessIS5_ESaISA_EE13_Rb_tree_implISE_Lb1EEC2Ev
	.p2align	4, 0x90
	.type	_ZNSt8_Rb_treeINSt7__cxx1112basic_stringIcSt11char_traitsIcESaIcEEESt4pairIKS5_P8gzFile_sESt10_Select1stISA_ESt4lessIS5_ESaISA_EE13_Rb_tree_implISE_Lb1EEC2Ev,@function
_ZNSt8_Rb_treeINSt7__cxx1112basic_stringIcSt11char_traitsIcESaIcEEESt4pairIKS5_P8gzFile_sESt10_Select1stISA_ESt4lessIS5_ESaISA_EE13_Rb_tree_implISE_Lb1EEC2Ev: # @_ZNSt8_Rb_treeINSt7__cxx1112basic_stringIcSt11char_traitsIcESaIcEEESt4pairIKS5_P8gzFile_sESt10_Select1stISA_ESt4lessIS5_ESaISA_EE13_Rb_tree_implISE_Lb1EEC2Ev
.Lfunc_begin33:
	.cfi_startproc
# %bb.0:
	pushq	%rbx
	.cfi_def_cfa_offset 16
	.cfi_offset %rbx, -16
	movq	%rdi, %rbx
	callq	_ZNSaISt13_Rb_tree_nodeISt4pairIKNSt7__cxx1112basic_stringIcSt11char_traitsIcESaIcEEEP8gzFile_sEEEC2Ev
	movq	%rbx, %rdi
	callq	_ZNSt20_Rb_tree_key_compareISt4lessINSt7__cxx1112basic_stringIcSt11char_traitsIcESaIcEEEEEC2Ev
	addq	$8, %rbx
	movq	%rbx, %rdi
	popq	%rbx
	jmp	_ZNSt15_Rb_tree_headerC2Ev # TAILCALL
.Lfunc_end33:
	.size	_ZNSt8_Rb_treeINSt7__cxx1112basic_stringIcSt11char_traitsIcESaIcEEESt4pairIKS5_P8gzFile_sESt10_Select1stISA_ESt4lessIS5_ESaISA_EE13_Rb_tree_implISE_Lb1EEC2Ev, .Lfunc_end33-_ZNSt8_Rb_treeINSt7__cxx1112basic_stringIcSt11char_traitsIcESaIcEEESt4pairIKS5_P8gzFile_sESt10_Select1stISA_ESt4lessIS5_ESaISA_EE13_Rb_tree_implISE_Lb1EEC2Ev
	.cfi_endproc
                                        # -- End function
	.section	.text._ZNSaISt13_Rb_tree_nodeISt4pairIKNSt7__cxx1112basic_stringIcSt11char_traitsIcESaIcEEEP8gzFile_sEEEC2Ev,"axG",@progbits,_ZNSaISt13_Rb_tree_nodeISt4pairIKNSt7__cxx1112basic_stringIcSt11char_traitsIcESaIcEEEP8gzFile_sEEEC2Ev,comdat
	.weak	_ZNSaISt13_Rb_tree_nodeISt4pairIKNSt7__cxx1112basic_stringIcSt11char_traitsIcESaIcEEEP8gzFile_sEEEC2Ev # -- Begin function _ZNSaISt13_Rb_tree_nodeISt4pairIKNSt7__cxx1112basic_stringIcSt11char_traitsIcESaIcEEEP8gzFile_sEEEC2Ev
	.p2align	4, 0x90
	.type	_ZNSaISt13_Rb_tree_nodeISt4pairIKNSt7__cxx1112basic_stringIcSt11char_traitsIcESaIcEEEP8gzFile_sEEEC2Ev,@function
_ZNSaISt13_Rb_tree_nodeISt4pairIKNSt7__cxx1112basic_stringIcSt11char_traitsIcESaIcEEEP8gzFile_sEEEC2Ev: # @_ZNSaISt13_Rb_tree_nodeISt4pairIKNSt7__cxx1112basic_stringIcSt11char_traitsIcESaIcEEEP8gzFile_sEEEC2Ev
.Lfunc_begin34:
	.cfi_startproc
# %bb.0:
	jmp	_ZN9__gnu_cxx13new_allocatorISt13_Rb_tree_nodeISt4pairIKNSt7__cxx1112basic_stringIcSt11char_traitsIcESaIcEEEP8gzFile_sEEEC2Ev # TAILCALL
.Lfunc_end34:
	.size	_ZNSaISt13_Rb_tree_nodeISt4pairIKNSt7__cxx1112basic_stringIcSt11char_traitsIcESaIcEEEP8gzFile_sEEEC2Ev, .Lfunc_end34-_ZNSaISt13_Rb_tree_nodeISt4pairIKNSt7__cxx1112basic_stringIcSt11char_traitsIcESaIcEEEP8gzFile_sEEEC2Ev
	.cfi_endproc
                                        # -- End function
	.section	.text._ZNSt20_Rb_tree_key_compareISt4lessINSt7__cxx1112basic_stringIcSt11char_traitsIcESaIcEEEEEC2Ev,"axG",@progbits,_ZNSt20_Rb_tree_key_compareISt4lessINSt7__cxx1112basic_stringIcSt11char_traitsIcESaIcEEEEEC2Ev,comdat
	.weak	_ZNSt20_Rb_tree_key_compareISt4lessINSt7__cxx1112basic_stringIcSt11char_traitsIcESaIcEEEEEC2Ev # -- Begin function _ZNSt20_Rb_tree_key_compareISt4lessINSt7__cxx1112basic_stringIcSt11char_traitsIcESaIcEEEEEC2Ev
	.p2align	4, 0x90
	.type	_ZNSt20_Rb_tree_key_compareISt4lessINSt7__cxx1112basic_stringIcSt11char_traitsIcESaIcEEEEEC2Ev,@function
_ZNSt20_Rb_tree_key_compareISt4lessINSt7__cxx1112basic_stringIcSt11char_traitsIcESaIcEEEEEC2Ev: # @_ZNSt20_Rb_tree_key_compareISt4lessINSt7__cxx1112basic_stringIcSt11char_traitsIcESaIcEEEEEC2Ev
.Lfunc_begin35:
	.cfi_startproc
# %bb.0:
	retq
.Lfunc_end35:
	.size	_ZNSt20_Rb_tree_key_compareISt4lessINSt7__cxx1112basic_stringIcSt11char_traitsIcESaIcEEEEEC2Ev, .Lfunc_end35-_ZNSt20_Rb_tree_key_compareISt4lessINSt7__cxx1112basic_stringIcSt11char_traitsIcESaIcEEEEEC2Ev
	.cfi_endproc
                                        # -- End function
	.section	.text._ZNSt15_Rb_tree_headerC2Ev,"axG",@progbits,_ZNSt15_Rb_tree_headerC2Ev,comdat
	.weak	_ZNSt15_Rb_tree_headerC2Ev # -- Begin function _ZNSt15_Rb_tree_headerC2Ev
	.p2align	4, 0x90
	.type	_ZNSt15_Rb_tree_headerC2Ev,@function
_ZNSt15_Rb_tree_headerC2Ev:             # @_ZNSt15_Rb_tree_headerC2Ev
.Lfunc_begin36:
	.cfi_startproc
# %bb.0:
	movl	$0, (%rdi)
	jmp	_ZNSt15_Rb_tree_header8_M_resetEv # TAILCALL
.Lfunc_end36:
	.size	_ZNSt15_Rb_tree_headerC2Ev, .Lfunc_end36-_ZNSt15_Rb_tree_headerC2Ev
	.cfi_endproc
                                        # -- End function
	.section	.text._ZNSt15_Rb_tree_header8_M_resetEv,"axG",@progbits,_ZNSt15_Rb_tree_header8_M_resetEv,comdat
	.weak	_ZNSt15_Rb_tree_header8_M_resetEv # -- Begin function _ZNSt15_Rb_tree_header8_M_resetEv
	.p2align	4, 0x90
	.type	_ZNSt15_Rb_tree_header8_M_resetEv,@function
_ZNSt15_Rb_tree_header8_M_resetEv:      # @_ZNSt15_Rb_tree_header8_M_resetEv
.Lfunc_begin37:
	.cfi_startproc
# %bb.0:
	movq	$0, 8(%rdi)
	movq	%rdi, 16(%rdi)
	movq	%rdi, 24(%rdi)
	movq	$0, 32(%rdi)
	retq
.Lfunc_end37:
	.size	_ZNSt15_Rb_tree_header8_M_resetEv, .Lfunc_end37-_ZNSt15_Rb_tree_header8_M_resetEv
	.cfi_endproc
                                        # -- End function
	.section	.text._ZN9__gnu_cxx13new_allocatorISt13_Rb_tree_nodeISt4pairIKNSt7__cxx1112basic_stringIcSt11char_traitsIcESaIcEEEP8gzFile_sEEEC2Ev,"axG",@progbits,_ZN9__gnu_cxx13new_allocatorISt13_Rb_tree_nodeISt4pairIKNSt7__cxx1112basic_stringIcSt11char_traitsIcESaIcEEEP8gzFile_sEEEC2Ev,comdat
	.weak	_ZN9__gnu_cxx13new_allocatorISt13_Rb_tree_nodeISt4pairIKNSt7__cxx1112basic_stringIcSt11char_traitsIcESaIcEEEP8gzFile_sEEEC2Ev # -- Begin function _ZN9__gnu_cxx13new_allocatorISt13_Rb_tree_nodeISt4pairIKNSt7__cxx1112basic_stringIcSt11char_traitsIcESaIcEEEP8gzFile_sEEEC2Ev
	.p2align	4, 0x90
	.type	_ZN9__gnu_cxx13new_allocatorISt13_Rb_tree_nodeISt4pairIKNSt7__cxx1112basic_stringIcSt11char_traitsIcESaIcEEEP8gzFile_sEEEC2Ev,@function
_ZN9__gnu_cxx13new_allocatorISt13_Rb_tree_nodeISt4pairIKNSt7__cxx1112basic_stringIcSt11char_traitsIcESaIcEEEP8gzFile_sEEEC2Ev: # @_ZN9__gnu_cxx13new_allocatorISt13_Rb_tree_nodeISt4pairIKNSt7__cxx1112basic_stringIcSt11char_traitsIcESaIcEEEP8gzFile_sEEEC2Ev
.Lfunc_begin38:
	.cfi_startproc
# %bb.0:
	retq
.Lfunc_end38:
	.size	_ZN9__gnu_cxx13new_allocatorISt13_Rb_tree_nodeISt4pairIKNSt7__cxx1112basic_stringIcSt11char_traitsIcESaIcEEEP8gzFile_sEEEC2Ev, .Lfunc_end38-_ZN9__gnu_cxx13new_allocatorISt13_Rb_tree_nodeISt4pairIKNSt7__cxx1112basic_stringIcSt11char_traitsIcESaIcEEEP8gzFile_sEEEC2Ev
	.cfi_endproc
                                        # -- End function
	.text
	.globl	_Z12create_tracePKc     # -- Begin function _Z12create_tracePKc
	.p2align	4, 0x90
	.type	_Z12create_tracePKc,@function
_Z12create_tracePKc:                    # @_Z12create_tracePKc
.Lfunc_begin39:
	.cfi_startproc
	.cfi_personality 3, __gxx_personality_v0
	.cfi_lsda 3, .Lexception4
# %bb.0:
	pushq	%r14
	.cfi_def_cfa_offset 16
	pushq	%rbx
	.cfi_def_cfa_offset 24
	pushq	%rax
	.cfi_def_cfa_offset 32
	.cfi_offset %rbx, -24
	.cfi_offset %r14, -16
	movq	%rdi, %r14
	callq	_ZTW5trace
	cmpq	$0, (%rax)
	jne	.LBB39_4
# %bb.1:
	movl	$88, %edi
	callq	_Znwm
	movq	%rax, %rbx
.Ltmp57:
	movq	%rbx, %rdi
	movq	%r14, %rsi
	callq	_ZN10trace_infoC2EPKc
.Ltmp58:
# %bb.2:
	callq	_ZTW5trace
	movq	%rbx, (%rax)
	addq	$8, %rsp
	popq	%rbx
	popq	%r14
	retq
.LBB39_4:
	movl	$.L.str.3, %edi
	movl	$.L.str.4, %esi
	movl	$10, %edx
	movl	$.L__PRETTY_FUNCTION__._Z12create_tracePKc, %ecx
	callq	__assert_fail
.LBB39_3:
.Ltmp59:
	movq	%rax, %r14
	movq	%rbx, %rdi
	callq	_ZdlPv
	movq	%r14, %rdi
	callq	_Unwind_Resume
.Lfunc_end39:
	.size	_Z12create_tracePKc, .Lfunc_end39-_Z12create_tracePKc
	.cfi_endproc
	.section	.gcc_except_table,"a",@progbits
	.p2align	2
GCC_except_table39:
.Lexception4:
	.byte	255                     # @LPStart Encoding = omit
	.byte	3                       # @TType Encoding = udata4
	.byte	41                      # @TType base offset
	.byte	3                       # Call site Encoding = udata4
	.byte	39                      # Call site table length
	.long	.Lfunc_begin39-.Lfunc_begin39 # >> Call Site 1 <<
	.long	.Ltmp57-.Lfunc_begin39  #   Call between .Lfunc_begin39 and .Ltmp57
	.long	0                       #     has no landing pad
	.byte	0                       #   On action: cleanup
	.long	.Ltmp57-.Lfunc_begin39  # >> Call Site 2 <<
	.long	.Ltmp58-.Ltmp57         #   Call between .Ltmp57 and .Ltmp58
	.long	.Ltmp59-.Lfunc_begin39  #     jumps to .Ltmp59
	.byte	0                       #   On action: cleanup
	.long	.Ltmp58-.Lfunc_begin39  # >> Call Site 3 <<
	.long	.Lfunc_end39-.Ltmp58    #   Call between .Ltmp58 and .Lfunc_end39
	.long	0                       #     has no landing pad
	.byte	0                       #   On action: cleanup
	.p2align	2
                                        # -- End function
	.text
	.hidden	_ZTW5trace              # -- Begin function _ZTW5trace
	.weak	_ZTW5trace
	.p2align	4, 0x90
	.type	_ZTW5trace,@function
_ZTW5trace:                             # @_ZTW5trace
.Lfunc_begin40:
	.cfi_startproc
# %bb.0:
	movq	%fs:0, %rax
	leaq	trace@TPOFF(%rax), %rax
	retq
.Lfunc_end40:
	.size	_ZTW5trace, .Lfunc_end40-_ZTW5trace
	.cfi_endproc
                                        # -- End function
	.section	.text._ZN10trace_infoC2EPKc,"axG",@progbits,_ZN10trace_infoC2EPKc,comdat
	.weak	_ZN10trace_infoC2EPKc   # -- Begin function _ZN10trace_infoC2EPKc
	.p2align	4, 0x90
	.type	_ZN10trace_infoC2EPKc,@function
_ZN10trace_infoC2EPKc:                  # @_ZN10trace_infoC2EPKc
.Lfunc_begin41:
	.cfi_startproc
	.cfi_personality 3, __gxx_personality_v0
	.cfi_lsda 3, .Lexception5
# %bb.0:
	pushq	%r15
	.cfi_def_cfa_offset 16
	pushq	%r14
	.cfi_def_cfa_offset 24
	pushq	%rbx
	.cfi_def_cfa_offset 32
	subq	$16, %rsp
	.cfi_def_cfa_offset 48
	.cfi_offset %rbx, -32
	.cfi_offset %r14, -24
	.cfi_offset %r15, -16
	movq	%rsi, %r14
	movq	%rdi, %rbx
	leaq	8(%rsp), %r15
	movq	%r15, %rdi
	callq	_ZNSaIcEC2Ev
.Ltmp60:
	movq	%rbx, %rdi
	movq	%r14, %rsi
	movq	%r15, %rdx
	callq	_ZNSt7__cxx1112basic_stringIcSt11char_traitsIcESaIcEEC2EPKcRKS3_
.Ltmp61:
# %bb.1:
	leaq	8(%rsp), %rdi
	callq	_ZNSaIcED2Ev
	movq	$0, 40(%rbx)
	leaq	48(%rbx), %rdi
	callq	_ZNSt7__cxx1112basic_stringIcSt11char_traitsIcESaIcEEC2Ev
	movl	$1, 80(%rbx)
	addq	$16, %rsp
	popq	%rbx
	popq	%r14
	popq	%r15
	retq
.LBB41_2:
.Ltmp62:
	movq	%rax, %rbx
	leaq	8(%rsp), %rdi
	callq	_ZNSaIcED2Ev
	movq	%rbx, %rdi
	callq	_Unwind_Resume
.Lfunc_end41:
	.size	_ZN10trace_infoC2EPKc, .Lfunc_end41-_ZN10trace_infoC2EPKc
	.cfi_endproc
	.section	.gcc_except_table,"a",@progbits
	.p2align	2
GCC_except_table41:
.Lexception5:
	.byte	255                     # @LPStart Encoding = omit
	.byte	3                       # @TType Encoding = udata4
	.asciz	"\234"                  # @TType base offset
	.byte	3                       # Call site Encoding = udata4
	.byte	26                      # Call site table length
	.long	.Ltmp60-.Lfunc_begin41  # >> Call Site 1 <<
	.long	.Ltmp61-.Ltmp60         #   Call between .Ltmp60 and .Ltmp61
	.long	.Ltmp62-.Lfunc_begin41  #     jumps to .Ltmp62
	.byte	0                       #   On action: cleanup
	.long	.Ltmp61-.Lfunc_begin41  # >> Call Site 2 <<
	.long	.Lfunc_end41-.Ltmp61    #   Call between .Ltmp61 and .Lfunc_end41
	.long	0                       #     has no landing pad
	.byte	0                       #   On action: cleanup
	.p2align	2
                                        # -- End function
	.text
	.globl	_Z14write_labelmapv     # -- Begin function _Z14write_labelmapv
	.p2align	4, 0x90
	.type	_Z14write_labelmapv,@function
_Z14write_labelmapv:                    # @_Z14write_labelmapv
.Lfunc_begin42:
	.cfi_startproc
# %bb.0:
	pushq	%r14
	.cfi_def_cfa_offset 16
	pushq	%rbx
	.cfi_def_cfa_offset 24
	pushq	%rax
	.cfi_def_cfa_offset 32
	.cfi_offset %rbx, -24
	.cfi_offset %r14, -16
	callq	_ZTW5trace
	movq	(%rax), %rax
	movq	32(%rax), %rbx
	movl	$.L.str.5, %esi
	movl	$26, %edx
	movq	%rbx, %rdi
	callq	gzwrite
	movl	$_Z12labelmap_strB5cxx11, %edi
	callq	_ZNKSt7__cxx1112basic_stringIcSt11char_traitsIcESaIcEE5c_strEv
	movq	%rax, %r14
	movl	$_Z12labelmap_strB5cxx11, %edi
	callq	_ZNKSt7__cxx1112basic_stringIcSt11char_traitsIcESaIcEE6lengthEv
	movq	%rbx, %rdi
	movq	%r14, %rsi
	movl	%eax, %edx
	callq	gzwrite
	movl	$.L.str.6, %esi
	movl	$25, %edx
	movq	%rbx, %rdi
	addq	$8, %rsp
	popq	%rbx
	popq	%r14
	jmp	gzwrite                 # TAILCALL
.Lfunc_end42:
	.size	_Z14write_labelmapv, .Lfunc_end42-_Z14write_labelmapv
	.cfi_endproc
                                        # -- End function
	.globl	_Z15open_trace_filev    # -- Begin function _Z15open_trace_filev
	.p2align	4, 0x90
	.type	_Z15open_trace_filev,@function
_Z15open_trace_filev:                   # @_Z15open_trace_filev
.Lfunc_begin43:
	.cfi_startproc
# %bb.0:
	pushq	%rbx
	.cfi_def_cfa_offset 16
	subq	$16, %rsp
	.cfi_def_cfa_offset 32
	.cfi_offset %rbx, -16
	movl	$lock, %edi
	callq	pthread_mutex_lock
	callq	_ZTW5trace
	movq	(%rax), %rsi
	movl	$_Z8gz_filesB5cxx11, %edi
	callq	_ZNSt3mapINSt7__cxx1112basic_stringIcSt11char_traitsIcESaIcEEEP8gzFile_sSt4lessIS5_ESaISt4pairIKS5_S7_EEE4findERSB_
	movq	%rax, 8(%rsp)
	movl	$_Z8gz_filesB5cxx11, %edi
	callq	_ZNSt3mapINSt7__cxx1112basic_stringIcSt11char_traitsIcESaIcEEEP8gzFile_sSt4lessIS5_ESaISt4pairIKS5_S7_EEE3endEv
	movq	%rax, (%rsp)
	leaq	8(%rsp), %rdi
	movq	%rsp, %rsi
	callq	_ZStneRKSt17_Rb_tree_iteratorISt4pairIKNSt7__cxx1112basic_stringIcSt11char_traitsIcESaIcEEEP8gzFile_sEESD_
	movl	%eax, %ebx
	callq	_ZTW5trace
	movq	(%rax), %rax
	testb	%bl, %bl
	je	.LBB43_2
# %bb.1:
	movl	$_Z8gz_filesB5cxx11, %edi
	movq	%rax, %rsi
	callq	_ZNSt3mapINSt7__cxx1112basic_stringIcSt11char_traitsIcESaIcEEEP8gzFile_sSt4lessIS5_ESaISt4pairIKS5_S7_EEE2atERSB_
	movq	(%rax), %rbx
	callq	_ZTW5trace
	movq	(%rax), %rax
	movq	%rbx, 32(%rax)
	jmp	.LBB43_4
.LBB43_2:
	movq	%rax, %rdi
	callq	_ZNKSt7__cxx1112basic_stringIcSt11char_traitsIcESaIcEE5c_strEv
	movl	$.L.str.7, %esi
	movq	%rax, %rdi
	callq	gzopen
	movq	%rax, %rbx
	testq	%rbx, %rbx
	je	.LBB43_5
# %bb.3:
	callq	_ZTW5trace
	movq	(%rax), %rsi
	movl	$_Z8gz_filesB5cxx11, %edi
	callq	_ZNSt3mapINSt7__cxx1112basic_stringIcSt11char_traitsIcESaIcEEEP8gzFile_sSt4lessIS5_ESaISt4pairIKS5_S7_EEEixERSB_
	movq	%rbx, (%rax)
	callq	_ZTW5trace
	movq	(%rax), %rax
	movq	%rbx, 32(%rax)
	callq	_Z14write_labelmapv
.LBB43_4:
	movl	$lock, %edi
	callq	pthread_mutex_unlock
	addq	$16, %rsp
	popq	%rbx
	retq
.LBB43_5:
	movl	$.L.str.8, %edi
	callq	perror
	movl	$-1, %edi
	callq	exit
.Lfunc_end43:
	.size	_Z15open_trace_filev, .Lfunc_end43-_Z15open_trace_filev
	.cfi_endproc
                                        # -- End function
	.section	.text._ZNSt3mapINSt7__cxx1112basic_stringIcSt11char_traitsIcESaIcEEEP8gzFile_sSt4lessIS5_ESaISt4pairIKS5_S7_EEE4findERSB_,"axG",@progbits,_ZNSt3mapINSt7__cxx1112basic_stringIcSt11char_traitsIcESaIcEEEP8gzFile_sSt4lessIS5_ESaISt4pairIKS5_S7_EEE4findERSB_,comdat
	.weak	_ZNSt3mapINSt7__cxx1112basic_stringIcSt11char_traitsIcESaIcEEEP8gzFile_sSt4lessIS5_ESaISt4pairIKS5_S7_EEE4findERSB_ # -- Begin function _ZNSt3mapINSt7__cxx1112basic_stringIcSt11char_traitsIcESaIcEEEP8gzFile_sSt4lessIS5_ESaISt4pairIKS5_S7_EEE4findERSB_
	.p2align	4, 0x90
	.type	_ZNSt3mapINSt7__cxx1112basic_stringIcSt11char_traitsIcESaIcEEEP8gzFile_sSt4lessIS5_ESaISt4pairIKS5_S7_EEE4findERSB_,@function
_ZNSt3mapINSt7__cxx1112basic_stringIcSt11char_traitsIcESaIcEEEP8gzFile_sSt4lessIS5_ESaISt4pairIKS5_S7_EEE4findERSB_: # @_ZNSt3mapINSt7__cxx1112basic_stringIcSt11char_traitsIcESaIcEEEP8gzFile_sSt4lessIS5_ESaISt4pairIKS5_S7_EEE4findERSB_
.Lfunc_begin44:
	.cfi_startproc
# %bb.0:
	jmp	_ZNSt8_Rb_treeINSt7__cxx1112basic_stringIcSt11char_traitsIcESaIcEEESt4pairIKS5_P8gzFile_sESt10_Select1stISA_ESt4lessIS5_ESaISA_EE4findERS7_ # TAILCALL
.Lfunc_end44:
	.size	_ZNSt3mapINSt7__cxx1112basic_stringIcSt11char_traitsIcESaIcEEEP8gzFile_sSt4lessIS5_ESaISt4pairIKS5_S7_EEE4findERSB_, .Lfunc_end44-_ZNSt3mapINSt7__cxx1112basic_stringIcSt11char_traitsIcESaIcEEEP8gzFile_sSt4lessIS5_ESaISt4pairIKS5_S7_EEE4findERSB_
	.cfi_endproc
                                        # -- End function
	.section	.text._ZNSt3mapINSt7__cxx1112basic_stringIcSt11char_traitsIcESaIcEEEP8gzFile_sSt4lessIS5_ESaISt4pairIKS5_S7_EEE3endEv,"axG",@progbits,_ZNSt3mapINSt7__cxx1112basic_stringIcSt11char_traitsIcESaIcEEEP8gzFile_sSt4lessIS5_ESaISt4pairIKS5_S7_EEE3endEv,comdat
	.weak	_ZNSt3mapINSt7__cxx1112basic_stringIcSt11char_traitsIcESaIcEEEP8gzFile_sSt4lessIS5_ESaISt4pairIKS5_S7_EEE3endEv # -- Begin function _ZNSt3mapINSt7__cxx1112basic_stringIcSt11char_traitsIcESaIcEEEP8gzFile_sSt4lessIS5_ESaISt4pairIKS5_S7_EEE3endEv
	.p2align	4, 0x90
	.type	_ZNSt3mapINSt7__cxx1112basic_stringIcSt11char_traitsIcESaIcEEEP8gzFile_sSt4lessIS5_ESaISt4pairIKS5_S7_EEE3endEv,@function
_ZNSt3mapINSt7__cxx1112basic_stringIcSt11char_traitsIcESaIcEEEP8gzFile_sSt4lessIS5_ESaISt4pairIKS5_S7_EEE3endEv: # @_ZNSt3mapINSt7__cxx1112basic_stringIcSt11char_traitsIcESaIcEEEP8gzFile_sSt4lessIS5_ESaISt4pairIKS5_S7_EEE3endEv
.Lfunc_begin45:
	.cfi_startproc
# %bb.0:
	jmp	_ZNSt8_Rb_treeINSt7__cxx1112basic_stringIcSt11char_traitsIcESaIcEEESt4pairIKS5_P8gzFile_sESt10_Select1stISA_ESt4lessIS5_ESaISA_EE3endEv # TAILCALL
.Lfunc_end45:
	.size	_ZNSt3mapINSt7__cxx1112basic_stringIcSt11char_traitsIcESaIcEEEP8gzFile_sSt4lessIS5_ESaISt4pairIKS5_S7_EEE3endEv, .Lfunc_end45-_ZNSt3mapINSt7__cxx1112basic_stringIcSt11char_traitsIcESaIcEEEP8gzFile_sSt4lessIS5_ESaISt4pairIKS5_S7_EEE3endEv
	.cfi_endproc
                                        # -- End function
	.section	.text._ZStneRKSt17_Rb_tree_iteratorISt4pairIKNSt7__cxx1112basic_stringIcSt11char_traitsIcESaIcEEEP8gzFile_sEESD_,"axG",@progbits,_ZStneRKSt17_Rb_tree_iteratorISt4pairIKNSt7__cxx1112basic_stringIcSt11char_traitsIcESaIcEEEP8gzFile_sEESD_,comdat
	.weak	_ZStneRKSt17_Rb_tree_iteratorISt4pairIKNSt7__cxx1112basic_stringIcSt11char_traitsIcESaIcEEEP8gzFile_sEESD_ # -- Begin function _ZStneRKSt17_Rb_tree_iteratorISt4pairIKNSt7__cxx1112basic_stringIcSt11char_traitsIcESaIcEEEP8gzFile_sEESD_
	.p2align	4, 0x90
	.type	_ZStneRKSt17_Rb_tree_iteratorISt4pairIKNSt7__cxx1112basic_stringIcSt11char_traitsIcESaIcEEEP8gzFile_sEESD_,@function
_ZStneRKSt17_Rb_tree_iteratorISt4pairIKNSt7__cxx1112basic_stringIcSt11char_traitsIcESaIcEEEP8gzFile_sEESD_: # @_ZStneRKSt17_Rb_tree_iteratorISt4pairIKNSt7__cxx1112basic_stringIcSt11char_traitsIcESaIcEEEP8gzFile_sEESD_
.Lfunc_begin46:
	.cfi_startproc
# %bb.0:
	movq	(%rdi), %rax
	cmpq	(%rsi), %rax
	setne	%al
	retq
.Lfunc_end46:
	.size	_ZStneRKSt17_Rb_tree_iteratorISt4pairIKNSt7__cxx1112basic_stringIcSt11char_traitsIcESaIcEEEP8gzFile_sEESD_, .Lfunc_end46-_ZStneRKSt17_Rb_tree_iteratorISt4pairIKNSt7__cxx1112basic_stringIcSt11char_traitsIcESaIcEEEP8gzFile_sEESD_
	.cfi_endproc
                                        # -- End function
	.section	.text._ZNSt3mapINSt7__cxx1112basic_stringIcSt11char_traitsIcESaIcEEEP8gzFile_sSt4lessIS5_ESaISt4pairIKS5_S7_EEE2atERSB_,"axG",@progbits,_ZNSt3mapINSt7__cxx1112basic_stringIcSt11char_traitsIcESaIcEEEP8gzFile_sSt4lessIS5_ESaISt4pairIKS5_S7_EEE2atERSB_,comdat
	.weak	_ZNSt3mapINSt7__cxx1112basic_stringIcSt11char_traitsIcESaIcEEEP8gzFile_sSt4lessIS5_ESaISt4pairIKS5_S7_EEE2atERSB_ # -- Begin function _ZNSt3mapINSt7__cxx1112basic_stringIcSt11char_traitsIcESaIcEEEP8gzFile_sSt4lessIS5_ESaISt4pairIKS5_S7_EEE2atERSB_
	.p2align	4, 0x90
	.type	_ZNSt3mapINSt7__cxx1112basic_stringIcSt11char_traitsIcESaIcEEEP8gzFile_sSt4lessIS5_ESaISt4pairIKS5_S7_EEE2atERSB_,@function
_ZNSt3mapINSt7__cxx1112basic_stringIcSt11char_traitsIcESaIcEEEP8gzFile_sSt4lessIS5_ESaISt4pairIKS5_S7_EEE2atERSB_: # @_ZNSt3mapINSt7__cxx1112basic_stringIcSt11char_traitsIcESaIcEEEP8gzFile_sSt4lessIS5_ESaISt4pairIKS5_S7_EEE2atERSB_
.Lfunc_begin47:
	.cfi_startproc
# %bb.0:
	pushq	%r14
	.cfi_def_cfa_offset 16
	pushq	%rbx
	.cfi_def_cfa_offset 24
	subq	$24, %rsp
	.cfi_def_cfa_offset 48
	.cfi_offset %rbx, -24
	.cfi_offset %r14, -16
	movq	%rsi, %r14
	movq	%rdi, %rbx
	callq	_ZNSt3mapINSt7__cxx1112basic_stringIcSt11char_traitsIcESaIcEEEP8gzFile_sSt4lessIS5_ESaISt4pairIKS5_S7_EEE11lower_boundERSB_
	movq	%rax, 8(%rsp)
	movq	%rbx, %rdi
	callq	_ZNSt3mapINSt7__cxx1112basic_stringIcSt11char_traitsIcESaIcEEEP8gzFile_sSt4lessIS5_ESaISt4pairIKS5_S7_EEE3endEv
	movq	%rax, 16(%rsp)
	leaq	8(%rsp), %rdi
	leaq	16(%rsp), %rsi
	callq	_ZSteqRKSt17_Rb_tree_iteratorISt4pairIKNSt7__cxx1112basic_stringIcSt11char_traitsIcESaIcEEEP8gzFile_sEESD_
	testb	%al, %al
	jne	.LBB47_3
# %bb.1:
	movq	%rbx, %rdi
	callq	_ZNKSt3mapINSt7__cxx1112basic_stringIcSt11char_traitsIcESaIcEEEP8gzFile_sSt4lessIS5_ESaISt4pairIKS5_S7_EEE8key_compEv
	leaq	8(%rsp), %rdi
	callq	_ZNKSt17_Rb_tree_iteratorISt4pairIKNSt7__cxx1112basic_stringIcSt11char_traitsIcESaIcEEEP8gzFile_sEEdeEv
	movq	%rsp, %rdi
	movq	%r14, %rsi
	movq	%rax, %rdx
	callq	_ZNKSt4lessINSt7__cxx1112basic_stringIcSt11char_traitsIcESaIcEEEEclERKS5_S8_
	testb	%al, %al
	jne	.LBB47_3
# %bb.2:
	leaq	8(%rsp), %rdi
	callq	_ZNKSt17_Rb_tree_iteratorISt4pairIKNSt7__cxx1112basic_stringIcSt11char_traitsIcESaIcEEEP8gzFile_sEEdeEv
	addq	$32, %rax
	addq	$24, %rsp
	popq	%rbx
	popq	%r14
	retq
.LBB47_3:
	movl	$.L.str.36, %edi
	callq	_ZSt20__throw_out_of_rangePKc
.Lfunc_end47:
	.size	_ZNSt3mapINSt7__cxx1112basic_stringIcSt11char_traitsIcESaIcEEEP8gzFile_sSt4lessIS5_ESaISt4pairIKS5_S7_EEE2atERSB_, .Lfunc_end47-_ZNSt3mapINSt7__cxx1112basic_stringIcSt11char_traitsIcESaIcEEEP8gzFile_sSt4lessIS5_ESaISt4pairIKS5_S7_EEE2atERSB_
	.cfi_endproc
                                        # -- End function
	.section	.text._ZNSt3mapINSt7__cxx1112basic_stringIcSt11char_traitsIcESaIcEEEP8gzFile_sSt4lessIS5_ESaISt4pairIKS5_S7_EEEixERSB_,"axG",@progbits,_ZNSt3mapINSt7__cxx1112basic_stringIcSt11char_traitsIcESaIcEEEP8gzFile_sSt4lessIS5_ESaISt4pairIKS5_S7_EEEixERSB_,comdat
	.weak	_ZNSt3mapINSt7__cxx1112basic_stringIcSt11char_traitsIcESaIcEEEP8gzFile_sSt4lessIS5_ESaISt4pairIKS5_S7_EEEixERSB_ # -- Begin function _ZNSt3mapINSt7__cxx1112basic_stringIcSt11char_traitsIcESaIcEEEP8gzFile_sSt4lessIS5_ESaISt4pairIKS5_S7_EEEixERSB_
	.p2align	4, 0x90
	.type	_ZNSt3mapINSt7__cxx1112basic_stringIcSt11char_traitsIcESaIcEEEP8gzFile_sSt4lessIS5_ESaISt4pairIKS5_S7_EEEixERSB_,@function
_ZNSt3mapINSt7__cxx1112basic_stringIcSt11char_traitsIcESaIcEEEP8gzFile_sSt4lessIS5_ESaISt4pairIKS5_S7_EEEixERSB_: # @_ZNSt3mapINSt7__cxx1112basic_stringIcSt11char_traitsIcESaIcEEEP8gzFile_sSt4lessIS5_ESaISt4pairIKS5_S7_EEEixERSB_
.Lfunc_begin48:
	.cfi_startproc
# %bb.0:
	pushq	%r15
	.cfi_def_cfa_offset 16
	pushq	%r14
	.cfi_def_cfa_offset 24
	pushq	%rbx
	.cfi_def_cfa_offset 32
	subq	$48, %rsp
	.cfi_def_cfa_offset 80
	.cfi_offset %rbx, -32
	.cfi_offset %r14, -24
	.cfi_offset %r15, -16
	movq	%rsi, %r14
	movq	%rdi, %rbx
	callq	_ZNSt3mapINSt7__cxx1112basic_stringIcSt11char_traitsIcESaIcEEEP8gzFile_sSt4lessIS5_ESaISt4pairIKS5_S7_EEE11lower_boundERSB_
	movq	%rax, 24(%rsp)
	movq	%rbx, %rdi
	callq	_ZNSt3mapINSt7__cxx1112basic_stringIcSt11char_traitsIcESaIcEEEP8gzFile_sSt4lessIS5_ESaISt4pairIKS5_S7_EEE3endEv
	movq	%rax, 32(%rsp)
	leaq	24(%rsp), %rdi
	leaq	32(%rsp), %rsi
	callq	_ZSteqRKSt17_Rb_tree_iteratorISt4pairIKNSt7__cxx1112basic_stringIcSt11char_traitsIcESaIcEEEP8gzFile_sEESD_
	testb	%al, %al
	jne	.LBB48_2
# %bb.1:
	movq	%rbx, %rdi
	callq	_ZNKSt3mapINSt7__cxx1112basic_stringIcSt11char_traitsIcESaIcEEEP8gzFile_sSt4lessIS5_ESaISt4pairIKS5_S7_EEE8key_compEv
	leaq	24(%rsp), %rdi
	callq	_ZNKSt17_Rb_tree_iteratorISt4pairIKNSt7__cxx1112basic_stringIcSt11char_traitsIcESaIcEEEP8gzFile_sEEdeEv
	leaq	16(%rsp), %rdi
	movq	%r14, %rsi
	movq	%rax, %rdx
	callq	_ZNKSt4lessINSt7__cxx1112basic_stringIcSt11char_traitsIcESaIcEEEEclERKS5_S8_
	testb	%al, %al
	je	.LBB48_3
.LBB48_2:
	leaq	40(%rsp), %rdi
	leaq	24(%rsp), %rsi
	callq	_ZNSt23_Rb_tree_const_iteratorISt4pairIKNSt7__cxx1112basic_stringIcSt11char_traitsIcESaIcEEEP8gzFile_sEEC2ERKSt17_Rb_tree_iteratorISA_E
	leaq	32(%rsp), %r15
	movq	%r15, %rdi
	movq	%r14, %rsi
	callq	_ZNSt5tupleIJRKNSt7__cxx1112basic_stringIcSt11char_traitsIcESaIcEEEEEC2IvLb1EEES7_
	movq	40(%rsp), %rsi
	leaq	8(%rsp), %r8
	movl	$_ZStL19piecewise_construct, %edx
	movq	%rbx, %rdi
	movq	%r15, %rcx
	callq	_ZNSt8_Rb_treeINSt7__cxx1112basic_stringIcSt11char_traitsIcESaIcEEESt4pairIKS5_P8gzFile_sESt10_Select1stISA_ESt4lessIS5_ESaISA_EE22_M_emplace_hint_uniqueIJRKSt21piecewise_construct_tSt5tupleIJRS7_EESL_IJEEEEESt17_Rb_tree_iteratorISA_ESt23_Rb_tree_const_iteratorISA_EDpOT_
	movq	%rax, 24(%rsp)
.LBB48_3:
	leaq	24(%rsp), %rdi
	callq	_ZNKSt17_Rb_tree_iteratorISt4pairIKNSt7__cxx1112basic_stringIcSt11char_traitsIcESaIcEEEP8gzFile_sEEdeEv
	addq	$32, %rax
	addq	$48, %rsp
	popq	%rbx
	popq	%r14
	popq	%r15
	retq
.Lfunc_end48:
	.size	_ZNSt3mapINSt7__cxx1112basic_stringIcSt11char_traitsIcESaIcEEEP8gzFile_sSt4lessIS5_ESaISt4pairIKS5_S7_EEEixERSB_, .Lfunc_end48-_ZNSt3mapINSt7__cxx1112basic_stringIcSt11char_traitsIcESaIcEEEP8gzFile_sSt4lessIS5_ESaISt4pairIKS5_S7_EEEixERSB_
	.cfi_endproc
                                        # -- End function
	.section	.text._ZNSt3mapINSt7__cxx1112basic_stringIcSt11char_traitsIcESaIcEEEP8gzFile_sSt4lessIS5_ESaISt4pairIKS5_S7_EEE11lower_boundERSB_,"axG",@progbits,_ZNSt3mapINSt7__cxx1112basic_stringIcSt11char_traitsIcESaIcEEEP8gzFile_sSt4lessIS5_ESaISt4pairIKS5_S7_EEE11lower_boundERSB_,comdat
	.weak	_ZNSt3mapINSt7__cxx1112basic_stringIcSt11char_traitsIcESaIcEEEP8gzFile_sSt4lessIS5_ESaISt4pairIKS5_S7_EEE11lower_boundERSB_ # -- Begin function _ZNSt3mapINSt7__cxx1112basic_stringIcSt11char_traitsIcESaIcEEEP8gzFile_sSt4lessIS5_ESaISt4pairIKS5_S7_EEE11lower_boundERSB_
	.p2align	4, 0x90
	.type	_ZNSt3mapINSt7__cxx1112basic_stringIcSt11char_traitsIcESaIcEEEP8gzFile_sSt4lessIS5_ESaISt4pairIKS5_S7_EEE11lower_boundERSB_,@function
_ZNSt3mapINSt7__cxx1112basic_stringIcSt11char_traitsIcESaIcEEEP8gzFile_sSt4lessIS5_ESaISt4pairIKS5_S7_EEE11lower_boundERSB_: # @_ZNSt3mapINSt7__cxx1112basic_stringIcSt11char_traitsIcESaIcEEEP8gzFile_sSt4lessIS5_ESaISt4pairIKS5_S7_EEE11lower_boundERSB_
.Lfunc_begin49:
	.cfi_startproc
# %bb.0:
	jmp	_ZNSt8_Rb_treeINSt7__cxx1112basic_stringIcSt11char_traitsIcESaIcEEESt4pairIKS5_P8gzFile_sESt10_Select1stISA_ESt4lessIS5_ESaISA_EE11lower_boundERS7_ # TAILCALL
.Lfunc_end49:
	.size	_ZNSt3mapINSt7__cxx1112basic_stringIcSt11char_traitsIcESaIcEEEP8gzFile_sSt4lessIS5_ESaISt4pairIKS5_S7_EEE11lower_boundERSB_, .Lfunc_end49-_ZNSt3mapINSt7__cxx1112basic_stringIcSt11char_traitsIcESaIcEEEP8gzFile_sSt4lessIS5_ESaISt4pairIKS5_S7_EEE11lower_boundERSB_
	.cfi_endproc
                                        # -- End function
	.section	.text._ZSteqRKSt17_Rb_tree_iteratorISt4pairIKNSt7__cxx1112basic_stringIcSt11char_traitsIcESaIcEEEP8gzFile_sEESD_,"axG",@progbits,_ZSteqRKSt17_Rb_tree_iteratorISt4pairIKNSt7__cxx1112basic_stringIcSt11char_traitsIcESaIcEEEP8gzFile_sEESD_,comdat
	.weak	_ZSteqRKSt17_Rb_tree_iteratorISt4pairIKNSt7__cxx1112basic_stringIcSt11char_traitsIcESaIcEEEP8gzFile_sEESD_ # -- Begin function _ZSteqRKSt17_Rb_tree_iteratorISt4pairIKNSt7__cxx1112basic_stringIcSt11char_traitsIcESaIcEEEP8gzFile_sEESD_
	.p2align	4, 0x90
	.type	_ZSteqRKSt17_Rb_tree_iteratorISt4pairIKNSt7__cxx1112basic_stringIcSt11char_traitsIcESaIcEEEP8gzFile_sEESD_,@function
_ZSteqRKSt17_Rb_tree_iteratorISt4pairIKNSt7__cxx1112basic_stringIcSt11char_traitsIcESaIcEEEP8gzFile_sEESD_: # @_ZSteqRKSt17_Rb_tree_iteratorISt4pairIKNSt7__cxx1112basic_stringIcSt11char_traitsIcESaIcEEEP8gzFile_sEESD_
.Lfunc_begin50:
	.cfi_startproc
# %bb.0:
	movq	(%rdi), %rax
	cmpq	(%rsi), %rax
	sete	%al
	retq
.Lfunc_end50:
	.size	_ZSteqRKSt17_Rb_tree_iteratorISt4pairIKNSt7__cxx1112basic_stringIcSt11char_traitsIcESaIcEEEP8gzFile_sEESD_, .Lfunc_end50-_ZSteqRKSt17_Rb_tree_iteratorISt4pairIKNSt7__cxx1112basic_stringIcSt11char_traitsIcESaIcEEEP8gzFile_sEESD_
	.cfi_endproc
                                        # -- End function
	.section	.text._ZNKSt3mapINSt7__cxx1112basic_stringIcSt11char_traitsIcESaIcEEEP8gzFile_sSt4lessIS5_ESaISt4pairIKS5_S7_EEE8key_compEv,"axG",@progbits,_ZNKSt3mapINSt7__cxx1112basic_stringIcSt11char_traitsIcESaIcEEEP8gzFile_sSt4lessIS5_ESaISt4pairIKS5_S7_EEE8key_compEv,comdat
	.weak	_ZNKSt3mapINSt7__cxx1112basic_stringIcSt11char_traitsIcESaIcEEEP8gzFile_sSt4lessIS5_ESaISt4pairIKS5_S7_EEE8key_compEv # -- Begin function _ZNKSt3mapINSt7__cxx1112basic_stringIcSt11char_traitsIcESaIcEEEP8gzFile_sSt4lessIS5_ESaISt4pairIKS5_S7_EEE8key_compEv
	.p2align	4, 0x90
	.type	_ZNKSt3mapINSt7__cxx1112basic_stringIcSt11char_traitsIcESaIcEEEP8gzFile_sSt4lessIS5_ESaISt4pairIKS5_S7_EEE8key_compEv,@function
_ZNKSt3mapINSt7__cxx1112basic_stringIcSt11char_traitsIcESaIcEEEP8gzFile_sSt4lessIS5_ESaISt4pairIKS5_S7_EEE8key_compEv: # @_ZNKSt3mapINSt7__cxx1112basic_stringIcSt11char_traitsIcESaIcEEEP8gzFile_sSt4lessIS5_ESaISt4pairIKS5_S7_EEE8key_compEv
.Lfunc_begin51:
	.cfi_startproc
# %bb.0:
	jmp	_ZNKSt8_Rb_treeINSt7__cxx1112basic_stringIcSt11char_traitsIcESaIcEEESt4pairIKS5_P8gzFile_sESt10_Select1stISA_ESt4lessIS5_ESaISA_EE8key_compEv # TAILCALL
.Lfunc_end51:
	.size	_ZNKSt3mapINSt7__cxx1112basic_stringIcSt11char_traitsIcESaIcEEEP8gzFile_sSt4lessIS5_ESaISt4pairIKS5_S7_EEE8key_compEv, .Lfunc_end51-_ZNKSt3mapINSt7__cxx1112basic_stringIcSt11char_traitsIcESaIcEEEP8gzFile_sSt4lessIS5_ESaISt4pairIKS5_S7_EEE8key_compEv
	.cfi_endproc
                                        # -- End function
	.section	.text._ZNKSt17_Rb_tree_iteratorISt4pairIKNSt7__cxx1112basic_stringIcSt11char_traitsIcESaIcEEEP8gzFile_sEEdeEv,"axG",@progbits,_ZNKSt17_Rb_tree_iteratorISt4pairIKNSt7__cxx1112basic_stringIcSt11char_traitsIcESaIcEEEP8gzFile_sEEdeEv,comdat
	.weak	_ZNKSt17_Rb_tree_iteratorISt4pairIKNSt7__cxx1112basic_stringIcSt11char_traitsIcESaIcEEEP8gzFile_sEEdeEv # -- Begin function _ZNKSt17_Rb_tree_iteratorISt4pairIKNSt7__cxx1112basic_stringIcSt11char_traitsIcESaIcEEEP8gzFile_sEEdeEv
	.p2align	4, 0x90
	.type	_ZNKSt17_Rb_tree_iteratorISt4pairIKNSt7__cxx1112basic_stringIcSt11char_traitsIcESaIcEEEP8gzFile_sEEdeEv,@function
_ZNKSt17_Rb_tree_iteratorISt4pairIKNSt7__cxx1112basic_stringIcSt11char_traitsIcESaIcEEEP8gzFile_sEEdeEv: # @_ZNKSt17_Rb_tree_iteratorISt4pairIKNSt7__cxx1112basic_stringIcSt11char_traitsIcESaIcEEEP8gzFile_sEEdeEv
.Lfunc_begin52:
	.cfi_startproc
# %bb.0:
	pushq	%rax
	.cfi_def_cfa_offset 16
	movq	(%rdi), %rdi
	callq	_ZNSt13_Rb_tree_nodeISt4pairIKNSt7__cxx1112basic_stringIcSt11char_traitsIcESaIcEEEP8gzFile_sEE9_M_valptrEv
	popq	%rcx
	retq
.Lfunc_end52:
	.size	_ZNKSt17_Rb_tree_iteratorISt4pairIKNSt7__cxx1112basic_stringIcSt11char_traitsIcESaIcEEEP8gzFile_sEEdeEv, .Lfunc_end52-_ZNKSt17_Rb_tree_iteratorISt4pairIKNSt7__cxx1112basic_stringIcSt11char_traitsIcESaIcEEEP8gzFile_sEEdeEv
	.cfi_endproc
                                        # -- End function
	.section	.text._ZNKSt4lessINSt7__cxx1112basic_stringIcSt11char_traitsIcESaIcEEEEclERKS5_S8_,"axG",@progbits,_ZNKSt4lessINSt7__cxx1112basic_stringIcSt11char_traitsIcESaIcEEEEclERKS5_S8_,comdat
	.weak	_ZNKSt4lessINSt7__cxx1112basic_stringIcSt11char_traitsIcESaIcEEEEclERKS5_S8_ # -- Begin function _ZNKSt4lessINSt7__cxx1112basic_stringIcSt11char_traitsIcESaIcEEEEclERKS5_S8_
	.p2align	4, 0x90
	.type	_ZNKSt4lessINSt7__cxx1112basic_stringIcSt11char_traitsIcESaIcEEEEclERKS5_S8_,@function
_ZNKSt4lessINSt7__cxx1112basic_stringIcSt11char_traitsIcESaIcEEEEclERKS5_S8_: # @_ZNKSt4lessINSt7__cxx1112basic_stringIcSt11char_traitsIcESaIcEEEEclERKS5_S8_
.Lfunc_begin53:
	.cfi_startproc
# %bb.0:
	movq	%rsi, %rdi
	movq	%rdx, %rsi
	jmp	_ZStltIcSt11char_traitsIcESaIcEEbRKNSt7__cxx1112basic_stringIT_T0_T1_EESA_ # TAILCALL
.Lfunc_end53:
	.size	_ZNKSt4lessINSt7__cxx1112basic_stringIcSt11char_traitsIcESaIcEEEEclERKS5_S8_, .Lfunc_end53-_ZNKSt4lessINSt7__cxx1112basic_stringIcSt11char_traitsIcESaIcEEEEclERKS5_S8_
	.cfi_endproc
                                        # -- End function
	.section	.text._ZNSt23_Rb_tree_const_iteratorISt4pairIKNSt7__cxx1112basic_stringIcSt11char_traitsIcESaIcEEEP8gzFile_sEEC2ERKSt17_Rb_tree_iteratorISA_E,"axG",@progbits,_ZNSt23_Rb_tree_const_iteratorISt4pairIKNSt7__cxx1112basic_stringIcSt11char_traitsIcESaIcEEEP8gzFile_sEEC2ERKSt17_Rb_tree_iteratorISA_E,comdat
	.weak	_ZNSt23_Rb_tree_const_iteratorISt4pairIKNSt7__cxx1112basic_stringIcSt11char_traitsIcESaIcEEEP8gzFile_sEEC2ERKSt17_Rb_tree_iteratorISA_E # -- Begin function _ZNSt23_Rb_tree_const_iteratorISt4pairIKNSt7__cxx1112basic_stringIcSt11char_traitsIcESaIcEEEP8gzFile_sEEC2ERKSt17_Rb_tree_iteratorISA_E
	.p2align	4, 0x90
	.type	_ZNSt23_Rb_tree_const_iteratorISt4pairIKNSt7__cxx1112basic_stringIcSt11char_traitsIcESaIcEEEP8gzFile_sEEC2ERKSt17_Rb_tree_iteratorISA_E,@function
_ZNSt23_Rb_tree_const_iteratorISt4pairIKNSt7__cxx1112basic_stringIcSt11char_traitsIcESaIcEEEP8gzFile_sEEC2ERKSt17_Rb_tree_iteratorISA_E: # @_ZNSt23_Rb_tree_const_iteratorISt4pairIKNSt7__cxx1112basic_stringIcSt11char_traitsIcESaIcEEEP8gzFile_sEEC2ERKSt17_Rb_tree_iteratorISA_E
.Lfunc_begin54:
	.cfi_startproc
# %bb.0:
	movq	(%rsi), %rax
	movq	%rax, (%rdi)
	retq
.Lfunc_end54:
	.size	_ZNSt23_Rb_tree_const_iteratorISt4pairIKNSt7__cxx1112basic_stringIcSt11char_traitsIcESaIcEEEP8gzFile_sEEC2ERKSt17_Rb_tree_iteratorISA_E, .Lfunc_end54-_ZNSt23_Rb_tree_const_iteratorISt4pairIKNSt7__cxx1112basic_stringIcSt11char_traitsIcESaIcEEEP8gzFile_sEEC2ERKSt17_Rb_tree_iteratorISA_E
	.cfi_endproc
                                        # -- End function
	.section	.text._ZNSt5tupleIJRKNSt7__cxx1112basic_stringIcSt11char_traitsIcESaIcEEEEEC2IvLb1EEES7_,"axG",@progbits,_ZNSt5tupleIJRKNSt7__cxx1112basic_stringIcSt11char_traitsIcESaIcEEEEEC2IvLb1EEES7_,comdat
	.weak	_ZNSt5tupleIJRKNSt7__cxx1112basic_stringIcSt11char_traitsIcESaIcEEEEEC2IvLb1EEES7_ # -- Begin function _ZNSt5tupleIJRKNSt7__cxx1112basic_stringIcSt11char_traitsIcESaIcEEEEEC2IvLb1EEES7_
	.p2align	4, 0x90
	.type	_ZNSt5tupleIJRKNSt7__cxx1112basic_stringIcSt11char_traitsIcESaIcEEEEEC2IvLb1EEES7_,@function
_ZNSt5tupleIJRKNSt7__cxx1112basic_stringIcSt11char_traitsIcESaIcEEEEEC2IvLb1EEES7_: # @_ZNSt5tupleIJRKNSt7__cxx1112basic_stringIcSt11char_traitsIcESaIcEEEEEC2IvLb1EEES7_
.Lfunc_begin55:
	.cfi_startproc
# %bb.0:
	jmp	_ZNSt11_Tuple_implILm0EJRKNSt7__cxx1112basic_stringIcSt11char_traitsIcESaIcEEEEEC2ES7_ # TAILCALL
.Lfunc_end55:
	.size	_ZNSt5tupleIJRKNSt7__cxx1112basic_stringIcSt11char_traitsIcESaIcEEEEEC2IvLb1EEES7_, .Lfunc_end55-_ZNSt5tupleIJRKNSt7__cxx1112basic_stringIcSt11char_traitsIcESaIcEEEEEC2IvLb1EEES7_
	.cfi_endproc
                                        # -- End function
	.section	.text._ZNSt8_Rb_treeINSt7__cxx1112basic_stringIcSt11char_traitsIcESaIcEEESt4pairIKS5_P8gzFile_sESt10_Select1stISA_ESt4lessIS5_ESaISA_EE22_M_emplace_hint_uniqueIJRKSt21piecewise_construct_tSt5tupleIJRS7_EESL_IJEEEEESt17_Rb_tree_iteratorISA_ESt23_Rb_tree_const_iteratorISA_EDpOT_,"axG",@progbits,_ZNSt8_Rb_treeINSt7__cxx1112basic_stringIcSt11char_traitsIcESaIcEEESt4pairIKS5_P8gzFile_sESt10_Select1stISA_ESt4lessIS5_ESaISA_EE22_M_emplace_hint_uniqueIJRKSt21piecewise_construct_tSt5tupleIJRS7_EESL_IJEEEEESt17_Rb_tree_iteratorISA_ESt23_Rb_tree_const_iteratorISA_EDpOT_,comdat
	.weak	_ZNSt8_Rb_treeINSt7__cxx1112basic_stringIcSt11char_traitsIcESaIcEEESt4pairIKS5_P8gzFile_sESt10_Select1stISA_ESt4lessIS5_ESaISA_EE22_M_emplace_hint_uniqueIJRKSt21piecewise_construct_tSt5tupleIJRS7_EESL_IJEEEEESt17_Rb_tree_iteratorISA_ESt23_Rb_tree_const_iteratorISA_EDpOT_ # -- Begin function _ZNSt8_Rb_treeINSt7__cxx1112basic_stringIcSt11char_traitsIcESaIcEEESt4pairIKS5_P8gzFile_sESt10_Select1stISA_ESt4lessIS5_ESaISA_EE22_M_emplace_hint_uniqueIJRKSt21piecewise_construct_tSt5tupleIJRS7_EESL_IJEEEEESt17_Rb_tree_iteratorISA_ESt23_Rb_tree_const_iteratorISA_EDpOT_
	.p2align	4, 0x90
	.type	_ZNSt8_Rb_treeINSt7__cxx1112basic_stringIcSt11char_traitsIcESaIcEEESt4pairIKS5_P8gzFile_sESt10_Select1stISA_ESt4lessIS5_ESaISA_EE22_M_emplace_hint_uniqueIJRKSt21piecewise_construct_tSt5tupleIJRS7_EESL_IJEEEEESt17_Rb_tree_iteratorISA_ESt23_Rb_tree_const_iteratorISA_EDpOT_,@function
_ZNSt8_Rb_treeINSt7__cxx1112basic_stringIcSt11char_traitsIcESaIcEEESt4pairIKS5_P8gzFile_sESt10_Select1stISA_ESt4lessIS5_ESaISA_EE22_M_emplace_hint_uniqueIJRKSt21piecewise_construct_tSt5tupleIJRS7_EESL_IJEEEEESt17_Rb_tree_iteratorISA_ESt23_Rb_tree_const_iteratorISA_EDpOT_: # @_ZNSt8_Rb_treeINSt7__cxx1112basic_stringIcSt11char_traitsIcESaIcEEESt4pairIKS5_P8gzFile_sESt10_Select1stISA_ESt4lessIS5_ESaISA_EE22_M_emplace_hint_uniqueIJRKSt21piecewise_construct_tSt5tupleIJRS7_EESL_IJEEEEESt17_Rb_tree_iteratorISA_ESt23_Rb_tree_const_iteratorISA_EDpOT_
.Lfunc_begin56:
	.cfi_startproc
	.cfi_personality 3, __gxx_personality_v0
	.cfi_lsda 3, .Lexception6
# %bb.0:
	pushq	%r15
	.cfi_def_cfa_offset 16
	pushq	%r14
	.cfi_def_cfa_offset 24
	pushq	%r13
	.cfi_def_cfa_offset 32
	pushq	%r12
	.cfi_def_cfa_offset 40
	pushq	%rbx
	.cfi_def_cfa_offset 48
	subq	$16, %rsp
	.cfi_def_cfa_offset 64
	.cfi_offset %rbx, -48
	.cfi_offset %r12, -40
	.cfi_offset %r13, -32
	.cfi_offset %r14, -24
	.cfi_offset %r15, -16
	movq	%r8, %r14
	movq	%rcx, %rbx
	movq	%rsi, %r15
	movq	%rdi, %r12
	movq	%rdx, %rdi
	callq	_ZSt7forwardIRKSt21piecewise_construct_tEOT_RNSt16remove_referenceIS3_E4typeE
	movq	%rax, %r13
	movq	%rbx, %rdi
	callq	_ZSt7forwardISt5tupleIJRKNSt7__cxx1112basic_stringIcSt11char_traitsIcESaIcEEEEEEOT_RNSt16remove_referenceISA_E4typeE
	movq	%rax, %rbx
	movq	%r14, %rdi
	callq	_ZSt7forwardISt5tupleIJEEEOT_RNSt16remove_referenceIS2_E4typeE
	movq	%r12, %rdi
	movq	%r13, %rsi
	movq	%rbx, %rdx
	movq	%rax, %rcx
	callq	_ZNSt8_Rb_treeINSt7__cxx1112basic_stringIcSt11char_traitsIcESaIcEEESt4pairIKS5_P8gzFile_sESt10_Select1stISA_ESt4lessIS5_ESaISA_EE14_M_create_nodeIJRKSt21piecewise_construct_tSt5tupleIJRS7_EESL_IJEEEEEPSt13_Rb_tree_nodeISA_EDpOT_
	movq	%rax, %r14
.Ltmp63:
	movq	%r14, %rdi
	callq	_ZNSt8_Rb_treeINSt7__cxx1112basic_stringIcSt11char_traitsIcESaIcEEESt4pairIKS5_P8gzFile_sESt10_Select1stISA_ESt4lessIS5_ESaISA_EE6_S_keyEPKSt13_Rb_tree_nodeISA_E
.Ltmp64:
# %bb.1:
.Ltmp65:
	movq	%r12, %rdi
	movq	%r15, %rsi
	movq	%rax, %rdx
	callq	_ZNSt8_Rb_treeINSt7__cxx1112basic_stringIcSt11char_traitsIcESaIcEEESt4pairIKS5_P8gzFile_sESt10_Select1stISA_ESt4lessIS5_ESaISA_EE29_M_get_insert_hint_unique_posESt23_Rb_tree_const_iteratorISA_ERS7_
	movq	%rax, %rbx
.Ltmp66:
# %bb.2:
	testq	%rdx, %rdx
	je	.LBB56_5
# %bb.3:
.Ltmp67:
	movq	%r12, %rdi
	movq	%rbx, %rsi
	movq	%r14, %rcx
	callq	_ZNSt8_Rb_treeINSt7__cxx1112basic_stringIcSt11char_traitsIcESaIcEEESt4pairIKS5_P8gzFile_sESt10_Select1stISA_ESt4lessIS5_ESaISA_EE14_M_insert_nodeEPSt18_Rb_tree_node_baseSI_PSt13_Rb_tree_nodeISA_E
.Ltmp68:
# %bb.4:
	movq	%rax, 8(%rsp)
	jmp	.LBB56_6
.LBB56_5:
	movq	%r12, %rdi
	movq	%r14, %rsi
	callq	_ZNSt8_Rb_treeINSt7__cxx1112basic_stringIcSt11char_traitsIcESaIcEEESt4pairIKS5_P8gzFile_sESt10_Select1stISA_ESt4lessIS5_ESaISA_EE12_M_drop_nodeEPSt13_Rb_tree_nodeISA_E
	leaq	8(%rsp), %rdi
	movq	%rbx, %rsi
	callq	_ZNSt17_Rb_tree_iteratorISt4pairIKNSt7__cxx1112basic_stringIcSt11char_traitsIcESaIcEEEP8gzFile_sEEC2EPSt18_Rb_tree_node_base
	movq	8(%rsp), %rax
.LBB56_6:
	addq	$16, %rsp
	popq	%rbx
	popq	%r12
	popq	%r13
	popq	%r14
	popq	%r15
	retq
.LBB56_10:
.Ltmp69:
	movq	%rax, %rdi
	callq	__cxa_begin_catch
	movq	%r12, %rdi
	movq	%r14, %rsi
	callq	_ZNSt8_Rb_treeINSt7__cxx1112basic_stringIcSt11char_traitsIcESaIcEEESt4pairIKS5_P8gzFile_sESt10_Select1stISA_ESt4lessIS5_ESaISA_EE12_M_drop_nodeEPSt13_Rb_tree_nodeISA_E
.Ltmp70:
	callq	__cxa_rethrow
.Ltmp71:
# %bb.11:
.LBB56_7:
.Ltmp72:
	movq	%rax, %rbx
.Ltmp73:
	callq	__cxa_end_catch
.Ltmp74:
# %bb.8:
	movq	%rbx, %rdi
	callq	_Unwind_Resume
.LBB56_9:
.Ltmp75:
	movq	%rax, %rdi
	callq	__clang_call_terminate
.Lfunc_end56:
	.size	_ZNSt8_Rb_treeINSt7__cxx1112basic_stringIcSt11char_traitsIcESaIcEEESt4pairIKS5_P8gzFile_sESt10_Select1stISA_ESt4lessIS5_ESaISA_EE22_M_emplace_hint_uniqueIJRKSt21piecewise_construct_tSt5tupleIJRS7_EESL_IJEEEEESt17_Rb_tree_iteratorISA_ESt23_Rb_tree_const_iteratorISA_EDpOT_, .Lfunc_end56-_ZNSt8_Rb_treeINSt7__cxx1112basic_stringIcSt11char_traitsIcESaIcEEESt4pairIKS5_P8gzFile_sESt10_Select1stISA_ESt4lessIS5_ESaISA_EE22_M_emplace_hint_uniqueIJRKSt21piecewise_construct_tSt5tupleIJRS7_EESL_IJEEEEESt17_Rb_tree_iteratorISA_ESt23_Rb_tree_const_iteratorISA_EDpOT_
	.cfi_endproc
	.section	.gcc_except_table,"a",@progbits
	.p2align	2
GCC_except_table56:
.Lexception6:
	.byte	255                     # @LPStart Encoding = omit
	.byte	3                       # @TType Encoding = udata4
	.asciz	"\326\200\200"          # @TType base offset
	.byte	3                       # Call site Encoding = udata4
	.byte	78                      # Call site table length
	.long	.Lfunc_begin56-.Lfunc_begin56 # >> Call Site 1 <<
	.long	.Ltmp63-.Lfunc_begin56  #   Call between .Lfunc_begin56 and .Ltmp63
	.long	0                       #     has no landing pad
	.byte	0                       #   On action: cleanup
	.long	.Ltmp63-.Lfunc_begin56  # >> Call Site 2 <<
	.long	.Ltmp68-.Ltmp63         #   Call between .Ltmp63 and .Ltmp68
	.long	.Ltmp69-.Lfunc_begin56  #     jumps to .Ltmp69
	.byte	1                       #   On action: 1
	.long	.Ltmp68-.Lfunc_begin56  # >> Call Site 3 <<
	.long	.Ltmp70-.Ltmp68         #   Call between .Ltmp68 and .Ltmp70
	.long	0                       #     has no landing pad
	.byte	0                       #   On action: cleanup
	.long	.Ltmp70-.Lfunc_begin56  # >> Call Site 4 <<
	.long	.Ltmp71-.Ltmp70         #   Call between .Ltmp70 and .Ltmp71
	.long	.Ltmp72-.Lfunc_begin56  #     jumps to .Ltmp72
	.byte	0                       #   On action: cleanup
	.long	.Ltmp73-.Lfunc_begin56  # >> Call Site 5 <<
	.long	.Ltmp74-.Ltmp73         #   Call between .Ltmp73 and .Ltmp74
	.long	.Ltmp75-.Lfunc_begin56  #     jumps to .Ltmp75
	.byte	1                       #   On action: 1
	.long	.Ltmp74-.Lfunc_begin56  # >> Call Site 6 <<
	.long	.Lfunc_end56-.Ltmp74    #   Call between .Ltmp74 and .Lfunc_end56
	.long	0                       #     has no landing pad
	.byte	0                       #   On action: cleanup
	.byte	1                       # >> Action Record 1 <<
                                        #   Catch TypeInfo 1
	.byte	0                       #   No further actions
                                        # >> Catch TypeInfos <<
	.long	0                       # TypeInfo 1
	.p2align	2
                                        # -- End function
	.section	.text._ZSt7forwardIRKSt21piecewise_construct_tEOT_RNSt16remove_referenceIS3_E4typeE,"axG",@progbits,_ZSt7forwardIRKSt21piecewise_construct_tEOT_RNSt16remove_referenceIS3_E4typeE,comdat
	.weak	_ZSt7forwardIRKSt21piecewise_construct_tEOT_RNSt16remove_referenceIS3_E4typeE # -- Begin function _ZSt7forwardIRKSt21piecewise_construct_tEOT_RNSt16remove_referenceIS3_E4typeE
	.p2align	4, 0x90
	.type	_ZSt7forwardIRKSt21piecewise_construct_tEOT_RNSt16remove_referenceIS3_E4typeE,@function
_ZSt7forwardIRKSt21piecewise_construct_tEOT_RNSt16remove_referenceIS3_E4typeE: # @_ZSt7forwardIRKSt21piecewise_construct_tEOT_RNSt16remove_referenceIS3_E4typeE
.Lfunc_begin57:
	.cfi_startproc
# %bb.0:
	movq	%rdi, %rax
	retq
.Lfunc_end57:
	.size	_ZSt7forwardIRKSt21piecewise_construct_tEOT_RNSt16remove_referenceIS3_E4typeE, .Lfunc_end57-_ZSt7forwardIRKSt21piecewise_construct_tEOT_RNSt16remove_referenceIS3_E4typeE
	.cfi_endproc
                                        # -- End function
	.section	.text._ZSt7forwardISt5tupleIJRKNSt7__cxx1112basic_stringIcSt11char_traitsIcESaIcEEEEEEOT_RNSt16remove_referenceISA_E4typeE,"axG",@progbits,_ZSt7forwardISt5tupleIJRKNSt7__cxx1112basic_stringIcSt11char_traitsIcESaIcEEEEEEOT_RNSt16remove_referenceISA_E4typeE,comdat
	.weak	_ZSt7forwardISt5tupleIJRKNSt7__cxx1112basic_stringIcSt11char_traitsIcESaIcEEEEEEOT_RNSt16remove_referenceISA_E4typeE # -- Begin function _ZSt7forwardISt5tupleIJRKNSt7__cxx1112basic_stringIcSt11char_traitsIcESaIcEEEEEEOT_RNSt16remove_referenceISA_E4typeE
	.p2align	4, 0x90
	.type	_ZSt7forwardISt5tupleIJRKNSt7__cxx1112basic_stringIcSt11char_traitsIcESaIcEEEEEEOT_RNSt16remove_referenceISA_E4typeE,@function
_ZSt7forwardISt5tupleIJRKNSt7__cxx1112basic_stringIcSt11char_traitsIcESaIcEEEEEEOT_RNSt16remove_referenceISA_E4typeE: # @_ZSt7forwardISt5tupleIJRKNSt7__cxx1112basic_stringIcSt11char_traitsIcESaIcEEEEEEOT_RNSt16remove_referenceISA_E4typeE
.Lfunc_begin58:
	.cfi_startproc
# %bb.0:
	movq	%rdi, %rax
	retq
.Lfunc_end58:
	.size	_ZSt7forwardISt5tupleIJRKNSt7__cxx1112basic_stringIcSt11char_traitsIcESaIcEEEEEEOT_RNSt16remove_referenceISA_E4typeE, .Lfunc_end58-_ZSt7forwardISt5tupleIJRKNSt7__cxx1112basic_stringIcSt11char_traitsIcESaIcEEEEEEOT_RNSt16remove_referenceISA_E4typeE
	.cfi_endproc
                                        # -- End function
	.section	.text._ZSt7forwardISt5tupleIJEEEOT_RNSt16remove_referenceIS2_E4typeE,"axG",@progbits,_ZSt7forwardISt5tupleIJEEEOT_RNSt16remove_referenceIS2_E4typeE,comdat
	.weak	_ZSt7forwardISt5tupleIJEEEOT_RNSt16remove_referenceIS2_E4typeE # -- Begin function _ZSt7forwardISt5tupleIJEEEOT_RNSt16remove_referenceIS2_E4typeE
	.p2align	4, 0x90
	.type	_ZSt7forwardISt5tupleIJEEEOT_RNSt16remove_referenceIS2_E4typeE,@function
_ZSt7forwardISt5tupleIJEEEOT_RNSt16remove_referenceIS2_E4typeE: # @_ZSt7forwardISt5tupleIJEEEOT_RNSt16remove_referenceIS2_E4typeE
.Lfunc_begin59:
	.cfi_startproc
# %bb.0:
	movq	%rdi, %rax
	retq
.Lfunc_end59:
	.size	_ZSt7forwardISt5tupleIJEEEOT_RNSt16remove_referenceIS2_E4typeE, .Lfunc_end59-_ZSt7forwardISt5tupleIJEEEOT_RNSt16remove_referenceIS2_E4typeE
	.cfi_endproc
                                        # -- End function
	.section	.text._ZNSt8_Rb_treeINSt7__cxx1112basic_stringIcSt11char_traitsIcESaIcEEESt4pairIKS5_P8gzFile_sESt10_Select1stISA_ESt4lessIS5_ESaISA_EE14_M_create_nodeIJRKSt21piecewise_construct_tSt5tupleIJRS7_EESL_IJEEEEEPSt13_Rb_tree_nodeISA_EDpOT_,"axG",@progbits,_ZNSt8_Rb_treeINSt7__cxx1112basic_stringIcSt11char_traitsIcESaIcEEESt4pairIKS5_P8gzFile_sESt10_Select1stISA_ESt4lessIS5_ESaISA_EE14_M_create_nodeIJRKSt21piecewise_construct_tSt5tupleIJRS7_EESL_IJEEEEEPSt13_Rb_tree_nodeISA_EDpOT_,comdat
	.weak	_ZNSt8_Rb_treeINSt7__cxx1112basic_stringIcSt11char_traitsIcESaIcEEESt4pairIKS5_P8gzFile_sESt10_Select1stISA_ESt4lessIS5_ESaISA_EE14_M_create_nodeIJRKSt21piecewise_construct_tSt5tupleIJRS7_EESL_IJEEEEEPSt13_Rb_tree_nodeISA_EDpOT_ # -- Begin function _ZNSt8_Rb_treeINSt7__cxx1112basic_stringIcSt11char_traitsIcESaIcEEESt4pairIKS5_P8gzFile_sESt10_Select1stISA_ESt4lessIS5_ESaISA_EE14_M_create_nodeIJRKSt21piecewise_construct_tSt5tupleIJRS7_EESL_IJEEEEEPSt13_Rb_tree_nodeISA_EDpOT_
	.p2align	4, 0x90
	.type	_ZNSt8_Rb_treeINSt7__cxx1112basic_stringIcSt11char_traitsIcESaIcEEESt4pairIKS5_P8gzFile_sESt10_Select1stISA_ESt4lessIS5_ESaISA_EE14_M_create_nodeIJRKSt21piecewise_construct_tSt5tupleIJRS7_EESL_IJEEEEEPSt13_Rb_tree_nodeISA_EDpOT_,@function
_ZNSt8_Rb_treeINSt7__cxx1112basic_stringIcSt11char_traitsIcESaIcEEESt4pairIKS5_P8gzFile_sESt10_Select1stISA_ESt4lessIS5_ESaISA_EE14_M_create_nodeIJRKSt21piecewise_construct_tSt5tupleIJRS7_EESL_IJEEEEEPSt13_Rb_tree_nodeISA_EDpOT_: # @_ZNSt8_Rb_treeINSt7__cxx1112basic_stringIcSt11char_traitsIcESaIcEEESt4pairIKS5_P8gzFile_sESt10_Select1stISA_ESt4lessIS5_ESaISA_EE14_M_create_nodeIJRKSt21piecewise_construct_tSt5tupleIJRS7_EESL_IJEEEEEPSt13_Rb_tree_nodeISA_EDpOT_
.Lfunc_begin60:
	.cfi_startproc
# %bb.0:
	pushq	%r15
	.cfi_def_cfa_offset 16
	pushq	%r14
	.cfi_def_cfa_offset 24
	pushq	%r13
	.cfi_def_cfa_offset 32
	pushq	%r12
	.cfi_def_cfa_offset 40
	pushq	%rbx
	.cfi_def_cfa_offset 48
	.cfi_offset %rbx, -48
	.cfi_offset %r12, -40
	.cfi_offset %r13, -32
	.cfi_offset %r14, -24
	.cfi_offset %r15, -16
	movq	%rcx, %r14
	movq	%rdx, %r15
	movq	%rsi, %r12
	movq	%rdi, %rbx
	callq	_ZNSt8_Rb_treeINSt7__cxx1112basic_stringIcSt11char_traitsIcESaIcEEESt4pairIKS5_P8gzFile_sESt10_Select1stISA_ESt4lessIS5_ESaISA_EE11_M_get_nodeEv
	movq	%rax, %r13
	movq	%r12, %rdi
	callq	_ZSt7forwardIRKSt21piecewise_construct_tEOT_RNSt16remove_referenceIS3_E4typeE
	movq	%rax, %r12
	movq	%r15, %rdi
	callq	_ZSt7forwardISt5tupleIJRKNSt7__cxx1112basic_stringIcSt11char_traitsIcESaIcEEEEEEOT_RNSt16remove_referenceISA_E4typeE
	movq	%rax, %r15
	movq	%r14, %rdi
	callq	_ZSt7forwardISt5tupleIJEEEOT_RNSt16remove_referenceIS2_E4typeE
	movq	%rbx, %rdi
	movq	%r13, %rsi
	movq	%r12, %rdx
	movq	%r15, %rcx
	movq	%rax, %r8
	callq	_ZNSt8_Rb_treeINSt7__cxx1112basic_stringIcSt11char_traitsIcESaIcEEESt4pairIKS5_P8gzFile_sESt10_Select1stISA_ESt4lessIS5_ESaISA_EE17_M_construct_nodeIJRKSt21piecewise_construct_tSt5tupleIJRS7_EESL_IJEEEEEvPSt13_Rb_tree_nodeISA_EDpOT_
	movq	%r13, %rax
	popq	%rbx
	popq	%r12
	popq	%r13
	popq	%r14
	popq	%r15
	retq
.Lfunc_end60:
	.size	_ZNSt8_Rb_treeINSt7__cxx1112basic_stringIcSt11char_traitsIcESaIcEEESt4pairIKS5_P8gzFile_sESt10_Select1stISA_ESt4lessIS5_ESaISA_EE14_M_create_nodeIJRKSt21piecewise_construct_tSt5tupleIJRS7_EESL_IJEEEEEPSt13_Rb_tree_nodeISA_EDpOT_, .Lfunc_end60-_ZNSt8_Rb_treeINSt7__cxx1112basic_stringIcSt11char_traitsIcESaIcEEESt4pairIKS5_P8gzFile_sESt10_Select1stISA_ESt4lessIS5_ESaISA_EE14_M_create_nodeIJRKSt21piecewise_construct_tSt5tupleIJRS7_EESL_IJEEEEEPSt13_Rb_tree_nodeISA_EDpOT_
	.cfi_endproc
                                        # -- End function
	.section	.text._ZNSt8_Rb_treeINSt7__cxx1112basic_stringIcSt11char_traitsIcESaIcEEESt4pairIKS5_P8gzFile_sESt10_Select1stISA_ESt4lessIS5_ESaISA_EE6_S_keyEPKSt13_Rb_tree_nodeISA_E,"axG",@progbits,_ZNSt8_Rb_treeINSt7__cxx1112basic_stringIcSt11char_traitsIcESaIcEEESt4pairIKS5_P8gzFile_sESt10_Select1stISA_ESt4lessIS5_ESaISA_EE6_S_keyEPKSt13_Rb_tree_nodeISA_E,comdat
	.weak	_ZNSt8_Rb_treeINSt7__cxx1112basic_stringIcSt11char_traitsIcESaIcEEESt4pairIKS5_P8gzFile_sESt10_Select1stISA_ESt4lessIS5_ESaISA_EE6_S_keyEPKSt13_Rb_tree_nodeISA_E # -- Begin function _ZNSt8_Rb_treeINSt7__cxx1112basic_stringIcSt11char_traitsIcESaIcEEESt4pairIKS5_P8gzFile_sESt10_Select1stISA_ESt4lessIS5_ESaISA_EE6_S_keyEPKSt13_Rb_tree_nodeISA_E
	.p2align	4, 0x90
	.type	_ZNSt8_Rb_treeINSt7__cxx1112basic_stringIcSt11char_traitsIcESaIcEEESt4pairIKS5_P8gzFile_sESt10_Select1stISA_ESt4lessIS5_ESaISA_EE6_S_keyEPKSt13_Rb_tree_nodeISA_E,@function
_ZNSt8_Rb_treeINSt7__cxx1112basic_stringIcSt11char_traitsIcESaIcEEESt4pairIKS5_P8gzFile_sESt10_Select1stISA_ESt4lessIS5_ESaISA_EE6_S_keyEPKSt13_Rb_tree_nodeISA_E: # @_ZNSt8_Rb_treeINSt7__cxx1112basic_stringIcSt11char_traitsIcESaIcEEESt4pairIKS5_P8gzFile_sESt10_Select1stISA_ESt4lessIS5_ESaISA_EE6_S_keyEPKSt13_Rb_tree_nodeISA_E
.Lfunc_begin61:
	.cfi_startproc
# %bb.0:
	pushq	%rax
	.cfi_def_cfa_offset 16
	callq	_ZNKSt13_Rb_tree_nodeISt4pairIKNSt7__cxx1112basic_stringIcSt11char_traitsIcESaIcEEEP8gzFile_sEE9_M_valptrEv
	movq	%rsp, %rdi
	movq	%rax, %rsi
	callq	_ZNKSt10_Select1stISt4pairIKNSt7__cxx1112basic_stringIcSt11char_traitsIcESaIcEEEP8gzFile_sEEclERKSA_
	popq	%rcx
	retq
.Lfunc_end61:
	.size	_ZNSt8_Rb_treeINSt7__cxx1112basic_stringIcSt11char_traitsIcESaIcEEESt4pairIKS5_P8gzFile_sESt10_Select1stISA_ESt4lessIS5_ESaISA_EE6_S_keyEPKSt13_Rb_tree_nodeISA_E, .Lfunc_end61-_ZNSt8_Rb_treeINSt7__cxx1112basic_stringIcSt11char_traitsIcESaIcEEESt4pairIKS5_P8gzFile_sESt10_Select1stISA_ESt4lessIS5_ESaISA_EE6_S_keyEPKSt13_Rb_tree_nodeISA_E
	.cfi_endproc
                                        # -- End function
	.section	.text._ZNSt8_Rb_treeINSt7__cxx1112basic_stringIcSt11char_traitsIcESaIcEEESt4pairIKS5_P8gzFile_sESt10_Select1stISA_ESt4lessIS5_ESaISA_EE29_M_get_insert_hint_unique_posESt23_Rb_tree_const_iteratorISA_ERS7_,"axG",@progbits,_ZNSt8_Rb_treeINSt7__cxx1112basic_stringIcSt11char_traitsIcESaIcEEESt4pairIKS5_P8gzFile_sESt10_Select1stISA_ESt4lessIS5_ESaISA_EE29_M_get_insert_hint_unique_posESt23_Rb_tree_const_iteratorISA_ERS7_,comdat
	.weak	_ZNSt8_Rb_treeINSt7__cxx1112basic_stringIcSt11char_traitsIcESaIcEEESt4pairIKS5_P8gzFile_sESt10_Select1stISA_ESt4lessIS5_ESaISA_EE29_M_get_insert_hint_unique_posESt23_Rb_tree_const_iteratorISA_ERS7_ # -- Begin function _ZNSt8_Rb_treeINSt7__cxx1112basic_stringIcSt11char_traitsIcESaIcEEESt4pairIKS5_P8gzFile_sESt10_Select1stISA_ESt4lessIS5_ESaISA_EE29_M_get_insert_hint_unique_posESt23_Rb_tree_const_iteratorISA_ERS7_
	.p2align	4, 0x90
	.type	_ZNSt8_Rb_treeINSt7__cxx1112basic_stringIcSt11char_traitsIcESaIcEEESt4pairIKS5_P8gzFile_sESt10_Select1stISA_ESt4lessIS5_ESaISA_EE29_M_get_insert_hint_unique_posESt23_Rb_tree_const_iteratorISA_ERS7_,@function
_ZNSt8_Rb_treeINSt7__cxx1112basic_stringIcSt11char_traitsIcESaIcEEESt4pairIKS5_P8gzFile_sESt10_Select1stISA_ESt4lessIS5_ESaISA_EE29_M_get_insert_hint_unique_posESt23_Rb_tree_const_iteratorISA_ERS7_: # @_ZNSt8_Rb_treeINSt7__cxx1112basic_stringIcSt11char_traitsIcESaIcEEESt4pairIKS5_P8gzFile_sESt10_Select1stISA_ESt4lessIS5_ESaISA_EE29_M_get_insert_hint_unique_posESt23_Rb_tree_const_iteratorISA_ERS7_
.Lfunc_begin62:
	.cfi_startproc
# %bb.0:
	pushq	%r15
	.cfi_def_cfa_offset 16
	pushq	%r14
	.cfi_def_cfa_offset 24
	pushq	%rbx
	.cfi_def_cfa_offset 32
	subq	$48, %rsp
	.cfi_def_cfa_offset 80
	.cfi_offset %rbx, -32
	.cfi_offset %r14, -24
	.cfi_offset %r15, -16
	movq	%rdx, %r14
	movq	%rdi, %r15
	movq	%rsi, 40(%rsp)
	leaq	40(%rsp), %rdi
	callq	_ZNKSt23_Rb_tree_const_iteratorISt4pairIKNSt7__cxx1112basic_stringIcSt11char_traitsIcESaIcEEEP8gzFile_sEE13_M_const_castEv
	movq	%rax, %rbx
	movq	%rbx, 32(%rsp)
	movq	%r15, %rdi
	callq	_ZNSt8_Rb_treeINSt7__cxx1112basic_stringIcSt11char_traitsIcESaIcEEESt4pairIKS5_P8gzFile_sESt10_Select1stISA_ESt4lessIS5_ESaISA_EE6_M_endEv
	cmpq	%rax, %rbx
	je	.LBB62_6
# %bb.1:
	movq	%rbx, %rdi
	callq	_ZNSt8_Rb_treeINSt7__cxx1112basic_stringIcSt11char_traitsIcESaIcEEESt4pairIKS5_P8gzFile_sESt10_Select1stISA_ESt4lessIS5_ESaISA_EE6_S_keyEPKSt18_Rb_tree_node_base
	movq	%r15, %rdi
	movq	%r14, %rsi
	movq	%rax, %rdx
	callq	_ZNKSt4lessINSt7__cxx1112basic_stringIcSt11char_traitsIcESaIcEEEEclERKS5_S8_
	testb	%al, %al
	je	.LBB62_9
# %bb.2:
	movq	%rbx, (%rsp)
	movq	%r15, %rdi
	callq	_ZNSt8_Rb_treeINSt7__cxx1112basic_stringIcSt11char_traitsIcESaIcEEESt4pairIKS5_P8gzFile_sESt10_Select1stISA_ESt4lessIS5_ESaISA_EE11_M_leftmostEv
	cmpq	%rbx, (%rax)
	je	.LBB62_17
# %bb.3:
	movq	%rsp, %rdi
	callq	_ZNSt17_Rb_tree_iteratorISt4pairIKNSt7__cxx1112basic_stringIcSt11char_traitsIcESaIcEEEP8gzFile_sEEmmEv
	movq	(%rax), %rdi
	callq	_ZNSt8_Rb_treeINSt7__cxx1112basic_stringIcSt11char_traitsIcESaIcEEESt4pairIKS5_P8gzFile_sESt10_Select1stISA_ESt4lessIS5_ESaISA_EE6_S_keyEPKSt18_Rb_tree_node_base
	movq	%r15, %rdi
	movq	%rax, %rsi
	movq	%r14, %rdx
	callq	_ZNKSt4lessINSt7__cxx1112basic_stringIcSt11char_traitsIcESaIcEEEEclERKS5_S8_
	testb	%al, %al
	je	.LBB62_15
# %bb.4:
	movq	(%rsp), %rdi
	callq	_ZNSt8_Rb_treeINSt7__cxx1112basic_stringIcSt11char_traitsIcESaIcEEESt4pairIKS5_P8gzFile_sESt10_Select1stISA_ESt4lessIS5_ESaISA_EE8_S_rightEPSt18_Rb_tree_node_base
	testq	%rax, %rax
	je	.LBB62_22
# %bb.5:
	leaq	8(%rsp), %rdi
	leaq	32(%rsp), %rsi
	jmp	.LBB62_14
.LBB62_6:
	movq	%r15, %rdi
	callq	_ZNKSt8_Rb_treeINSt7__cxx1112basic_stringIcSt11char_traitsIcESaIcEEESt4pairIKS5_P8gzFile_sESt10_Select1stISA_ESt4lessIS5_ESaISA_EE4sizeEv
	testq	%rax, %rax
	je	.LBB62_15
# %bb.7:
	movq	%r15, %rdi
	callq	_ZNSt8_Rb_treeINSt7__cxx1112basic_stringIcSt11char_traitsIcESaIcEEESt4pairIKS5_P8gzFile_sESt10_Select1stISA_ESt4lessIS5_ESaISA_EE12_M_rightmostEv
	movq	(%rax), %rdi
	callq	_ZNSt8_Rb_treeINSt7__cxx1112basic_stringIcSt11char_traitsIcESaIcEEESt4pairIKS5_P8gzFile_sESt10_Select1stISA_ESt4lessIS5_ESaISA_EE6_S_keyEPKSt18_Rb_tree_node_base
	movq	%r15, %rdi
	movq	%rax, %rsi
	movq	%r14, %rdx
	callq	_ZNKSt4lessINSt7__cxx1112basic_stringIcSt11char_traitsIcESaIcEEEEclERKS5_S8_
	testb	%al, %al
	je	.LBB62_15
# %bb.8:
	movq	$0, (%rsp)
	movq	%r15, %rdi
	callq	_ZNSt8_Rb_treeINSt7__cxx1112basic_stringIcSt11char_traitsIcESaIcEEESt4pairIKS5_P8gzFile_sESt10_Select1stISA_ESt4lessIS5_ESaISA_EE12_M_rightmostEv
	leaq	8(%rsp), %rdi
	movq	%rsp, %rsi
	jmp	.LBB62_19
.LBB62_9:
	movq	%rbx, %rdi
	callq	_ZNSt8_Rb_treeINSt7__cxx1112basic_stringIcSt11char_traitsIcESaIcEEESt4pairIKS5_P8gzFile_sESt10_Select1stISA_ESt4lessIS5_ESaISA_EE6_S_keyEPKSt18_Rb_tree_node_base
	movq	%r15, %rdi
	movq	%rax, %rsi
	movq	%r14, %rdx
	callq	_ZNKSt4lessINSt7__cxx1112basic_stringIcSt11char_traitsIcESaIcEEEEclERKS5_S8_
	testb	%al, %al
	je	.LBB62_16
# %bb.10:
	movq	32(%rsp), %rbx
	movq	%rbx, (%rsp)
	movq	%r15, %rdi
	callq	_ZNSt8_Rb_treeINSt7__cxx1112basic_stringIcSt11char_traitsIcESaIcEEESt4pairIKS5_P8gzFile_sESt10_Select1stISA_ESt4lessIS5_ESaISA_EE12_M_rightmostEv
	cmpq	%rbx, (%rax)
	je	.LBB62_18
# %bb.11:
	movq	%rsp, %rdi
	callq	_ZNSt17_Rb_tree_iteratorISt4pairIKNSt7__cxx1112basic_stringIcSt11char_traitsIcESaIcEEEP8gzFile_sEEppEv
	movq	(%rax), %rdi
	callq	_ZNSt8_Rb_treeINSt7__cxx1112basic_stringIcSt11char_traitsIcESaIcEEESt4pairIKS5_P8gzFile_sESt10_Select1stISA_ESt4lessIS5_ESaISA_EE6_S_keyEPKSt18_Rb_tree_node_base
	movq	%r15, %rdi
	movq	%r14, %rsi
	movq	%rax, %rdx
	callq	_ZNKSt4lessINSt7__cxx1112basic_stringIcSt11char_traitsIcESaIcEEEEclERKS5_S8_
	testb	%al, %al
	je	.LBB62_15
# %bb.12:
	movq	32(%rsp), %rdi
	callq	_ZNSt8_Rb_treeINSt7__cxx1112basic_stringIcSt11char_traitsIcESaIcEEESt4pairIKS5_P8gzFile_sESt10_Select1stISA_ESt4lessIS5_ESaISA_EE8_S_rightEPSt18_Rb_tree_node_base
	testq	%rax, %rax
	je	.LBB62_23
# %bb.13:
	leaq	8(%rsp), %rdi
	movq	%rsp, %rsi
.LBB62_14:
	movq	%rsi, %rdx
	callq	_ZNSt4pairIPSt18_Rb_tree_node_baseS1_EC2IRS1_S4_Lb1EEEOT_OT0_
	jmp	.LBB62_21
.LBB62_15:
	movq	%r15, %rdi
	movq	%r14, %rsi
	callq	_ZNSt8_Rb_treeINSt7__cxx1112basic_stringIcSt11char_traitsIcESaIcEEESt4pairIKS5_P8gzFile_sESt10_Select1stISA_ESt4lessIS5_ESaISA_EE24_M_get_insert_unique_posERS7_
	movq	%rax, 8(%rsp)
	movq	%rdx, 16(%rsp)
	jmp	.LBB62_21
.LBB62_16:
	movq	$0, (%rsp)
	leaq	8(%rsp), %rdi
	leaq	32(%rsp), %rsi
	movq	%rsp, %rdx
	callq	_ZNSt4pairIPSt18_Rb_tree_node_baseS1_EC2IRS1_Lb1EEEOT_RKS1_
	jmp	.LBB62_21
.LBB62_17:
	movq	%r15, %rdi
	callq	_ZNSt8_Rb_treeINSt7__cxx1112basic_stringIcSt11char_traitsIcESaIcEEESt4pairIKS5_P8gzFile_sESt10_Select1stISA_ESt4lessIS5_ESaISA_EE11_M_leftmostEv
	movq	%rax, %rbx
	movq	%r15, %rdi
	callq	_ZNSt8_Rb_treeINSt7__cxx1112basic_stringIcSt11char_traitsIcESaIcEEESt4pairIKS5_P8gzFile_sESt10_Select1stISA_ESt4lessIS5_ESaISA_EE11_M_leftmostEv
	leaq	8(%rsp), %rdi
	movq	%rbx, %rsi
	movq	%rax, %rdx
	callq	_ZNSt4pairIPSt18_Rb_tree_node_baseS1_EC2IRS1_S4_Lb1EEEOT_OT0_
	jmp	.LBB62_21
.LBB62_18:
	movq	$0, 24(%rsp)
	movq	%r15, %rdi
	callq	_ZNSt8_Rb_treeINSt7__cxx1112basic_stringIcSt11char_traitsIcESaIcEEESt4pairIKS5_P8gzFile_sESt10_Select1stISA_ESt4lessIS5_ESaISA_EE12_M_rightmostEv
	leaq	8(%rsp), %rdi
	leaq	24(%rsp), %rsi
.LBB62_19:
	movq	%rax, %rdx
.LBB62_20:
	callq	_ZNSt4pairIPSt18_Rb_tree_node_baseS1_EC2IRS1_Lb1EEERKS1_OT_
.LBB62_21:
	movq	8(%rsp), %rax
	movq	16(%rsp), %rdx
	addq	$48, %rsp
	popq	%rbx
	popq	%r14
	popq	%r15
	retq
.LBB62_22:
	movq	$0, 24(%rsp)
	leaq	8(%rsp), %rdi
	leaq	24(%rsp), %rsi
	movq	%rsp, %rdx
	jmp	.LBB62_20
.LBB62_23:
	movq	$0, 24(%rsp)
	leaq	8(%rsp), %rdi
	leaq	24(%rsp), %rsi
	leaq	32(%rsp), %rdx
	jmp	.LBB62_20
.Lfunc_end62:
	.size	_ZNSt8_Rb_treeINSt7__cxx1112basic_stringIcSt11char_traitsIcESaIcEEESt4pairIKS5_P8gzFile_sESt10_Select1stISA_ESt4lessIS5_ESaISA_EE29_M_get_insert_hint_unique_posESt23_Rb_tree_const_iteratorISA_ERS7_, .Lfunc_end62-_ZNSt8_Rb_treeINSt7__cxx1112basic_stringIcSt11char_traitsIcESaIcEEESt4pairIKS5_P8gzFile_sESt10_Select1stISA_ESt4lessIS5_ESaISA_EE29_M_get_insert_hint_unique_posESt23_Rb_tree_const_iteratorISA_ERS7_
	.cfi_endproc
                                        # -- End function
	.section	.text._ZNSt8_Rb_treeINSt7__cxx1112basic_stringIcSt11char_traitsIcESaIcEEESt4pairIKS5_P8gzFile_sESt10_Select1stISA_ESt4lessIS5_ESaISA_EE14_M_insert_nodeEPSt18_Rb_tree_node_baseSI_PSt13_Rb_tree_nodeISA_E,"axG",@progbits,_ZNSt8_Rb_treeINSt7__cxx1112basic_stringIcSt11char_traitsIcESaIcEEESt4pairIKS5_P8gzFile_sESt10_Select1stISA_ESt4lessIS5_ESaISA_EE14_M_insert_nodeEPSt18_Rb_tree_node_baseSI_PSt13_Rb_tree_nodeISA_E,comdat
	.weak	_ZNSt8_Rb_treeINSt7__cxx1112basic_stringIcSt11char_traitsIcESaIcEEESt4pairIKS5_P8gzFile_sESt10_Select1stISA_ESt4lessIS5_ESaISA_EE14_M_insert_nodeEPSt18_Rb_tree_node_baseSI_PSt13_Rb_tree_nodeISA_E # -- Begin function _ZNSt8_Rb_treeINSt7__cxx1112basic_stringIcSt11char_traitsIcESaIcEEESt4pairIKS5_P8gzFile_sESt10_Select1stISA_ESt4lessIS5_ESaISA_EE14_M_insert_nodeEPSt18_Rb_tree_node_baseSI_PSt13_Rb_tree_nodeISA_E
	.p2align	4, 0x90
	.type	_ZNSt8_Rb_treeINSt7__cxx1112basic_stringIcSt11char_traitsIcESaIcEEESt4pairIKS5_P8gzFile_sESt10_Select1stISA_ESt4lessIS5_ESaISA_EE14_M_insert_nodeEPSt18_Rb_tree_node_baseSI_PSt13_Rb_tree_nodeISA_E,@function
_ZNSt8_Rb_treeINSt7__cxx1112basic_stringIcSt11char_traitsIcESaIcEEESt4pairIKS5_P8gzFile_sESt10_Select1stISA_ESt4lessIS5_ESaISA_EE14_M_insert_nodeEPSt18_Rb_tree_node_baseSI_PSt13_Rb_tree_nodeISA_E: # @_ZNSt8_Rb_treeINSt7__cxx1112basic_stringIcSt11char_traitsIcESaIcEEESt4pairIKS5_P8gzFile_sESt10_Select1stISA_ESt4lessIS5_ESaISA_EE14_M_insert_nodeEPSt18_Rb_tree_node_baseSI_PSt13_Rb_tree_nodeISA_E
.Lfunc_begin63:
	.cfi_startproc
# %bb.0:
	pushq	%rbp
	.cfi_def_cfa_offset 16
	pushq	%r15
	.cfi_def_cfa_offset 24
	pushq	%r14
	.cfi_def_cfa_offset 32
	pushq	%rbx
	.cfi_def_cfa_offset 40
	pushq	%rax
	.cfi_def_cfa_offset 48
	.cfi_offset %rbx, -40
	.cfi_offset %r14, -32
	.cfi_offset %r15, -24
	.cfi_offset %rbp, -16
	movq	%rcx, %r14
	movq	%rdx, %r15
	movq	%rdi, %rbx
	movb	$1, %bpl
	testq	%rsi, %rsi
	jne	.LBB63_3
# %bb.1:
	movq	%rbx, %rdi
	callq	_ZNSt8_Rb_treeINSt7__cxx1112basic_stringIcSt11char_traitsIcESaIcEEESt4pairIKS5_P8gzFile_sESt10_Select1stISA_ESt4lessIS5_ESaISA_EE6_M_endEv
	cmpq	%r15, %rax
	je	.LBB63_3
# %bb.2:
	movq	%r14, %rdi
	callq	_ZNSt8_Rb_treeINSt7__cxx1112basic_stringIcSt11char_traitsIcESaIcEEESt4pairIKS5_P8gzFile_sESt10_Select1stISA_ESt4lessIS5_ESaISA_EE6_S_keyEPKSt13_Rb_tree_nodeISA_E
	movq	%rax, %rbp
	movq	%r15, %rdi
	callq	_ZNSt8_Rb_treeINSt7__cxx1112basic_stringIcSt11char_traitsIcESaIcEEESt4pairIKS5_P8gzFile_sESt10_Select1stISA_ESt4lessIS5_ESaISA_EE6_S_keyEPKSt18_Rb_tree_node_base
	movq	%rbx, %rdi
	movq	%rbp, %rsi
	movq	%rax, %rdx
	callq	_ZNKSt4lessINSt7__cxx1112basic_stringIcSt11char_traitsIcESaIcEEEEclERKS5_S8_
	movl	%eax, %ebp
.LBB63_3:
	leaq	8(%rbx), %rcx
	movzbl	%bpl, %edi
	movq	%r14, %rsi
	movq	%r15, %rdx
	callq	_ZSt29_Rb_tree_insert_and_rebalancebPSt18_Rb_tree_node_baseS0_RS_
	addq	$1, 40(%rbx)
	movq	%rsp, %rdi
	movq	%r14, %rsi
	callq	_ZNSt17_Rb_tree_iteratorISt4pairIKNSt7__cxx1112basic_stringIcSt11char_traitsIcESaIcEEEP8gzFile_sEEC2EPSt18_Rb_tree_node_base
	movq	(%rsp), %rax
	addq	$8, %rsp
	popq	%rbx
	popq	%r14
	popq	%r15
	popq	%rbp
	retq
.Lfunc_end63:
	.size	_ZNSt8_Rb_treeINSt7__cxx1112basic_stringIcSt11char_traitsIcESaIcEEESt4pairIKS5_P8gzFile_sESt10_Select1stISA_ESt4lessIS5_ESaISA_EE14_M_insert_nodeEPSt18_Rb_tree_node_baseSI_PSt13_Rb_tree_nodeISA_E, .Lfunc_end63-_ZNSt8_Rb_treeINSt7__cxx1112basic_stringIcSt11char_traitsIcESaIcEEESt4pairIKS5_P8gzFile_sESt10_Select1stISA_ESt4lessIS5_ESaISA_EE14_M_insert_nodeEPSt18_Rb_tree_node_baseSI_PSt13_Rb_tree_nodeISA_E
	.cfi_endproc
                                        # -- End function
	.section	.text._ZNSt17_Rb_tree_iteratorISt4pairIKNSt7__cxx1112basic_stringIcSt11char_traitsIcESaIcEEEP8gzFile_sEEC2EPSt18_Rb_tree_node_base,"axG",@progbits,_ZNSt17_Rb_tree_iteratorISt4pairIKNSt7__cxx1112basic_stringIcSt11char_traitsIcESaIcEEEP8gzFile_sEEC2EPSt18_Rb_tree_node_base,comdat
	.weak	_ZNSt17_Rb_tree_iteratorISt4pairIKNSt7__cxx1112basic_stringIcSt11char_traitsIcESaIcEEEP8gzFile_sEEC2EPSt18_Rb_tree_node_base # -- Begin function _ZNSt17_Rb_tree_iteratorISt4pairIKNSt7__cxx1112basic_stringIcSt11char_traitsIcESaIcEEEP8gzFile_sEEC2EPSt18_Rb_tree_node_base
	.p2align	4, 0x90
	.type	_ZNSt17_Rb_tree_iteratorISt4pairIKNSt7__cxx1112basic_stringIcSt11char_traitsIcESaIcEEEP8gzFile_sEEC2EPSt18_Rb_tree_node_base,@function
_ZNSt17_Rb_tree_iteratorISt4pairIKNSt7__cxx1112basic_stringIcSt11char_traitsIcESaIcEEEP8gzFile_sEEC2EPSt18_Rb_tree_node_base: # @_ZNSt17_Rb_tree_iteratorISt4pairIKNSt7__cxx1112basic_stringIcSt11char_traitsIcESaIcEEEP8gzFile_sEEC2EPSt18_Rb_tree_node_base
.Lfunc_begin64:
	.cfi_startproc
# %bb.0:
	movq	%rsi, (%rdi)
	retq
.Lfunc_end64:
	.size	_ZNSt17_Rb_tree_iteratorISt4pairIKNSt7__cxx1112basic_stringIcSt11char_traitsIcESaIcEEEP8gzFile_sEEC2EPSt18_Rb_tree_node_base, .Lfunc_end64-_ZNSt17_Rb_tree_iteratorISt4pairIKNSt7__cxx1112basic_stringIcSt11char_traitsIcESaIcEEEP8gzFile_sEEC2EPSt18_Rb_tree_node_base
	.cfi_endproc
                                        # -- End function
	.section	.text._ZNSt8_Rb_treeINSt7__cxx1112basic_stringIcSt11char_traitsIcESaIcEEESt4pairIKS5_P8gzFile_sESt10_Select1stISA_ESt4lessIS5_ESaISA_EE6_M_endEv,"axG",@progbits,_ZNSt8_Rb_treeINSt7__cxx1112basic_stringIcSt11char_traitsIcESaIcEEESt4pairIKS5_P8gzFile_sESt10_Select1stISA_ESt4lessIS5_ESaISA_EE6_M_endEv,comdat
	.weak	_ZNSt8_Rb_treeINSt7__cxx1112basic_stringIcSt11char_traitsIcESaIcEEESt4pairIKS5_P8gzFile_sESt10_Select1stISA_ESt4lessIS5_ESaISA_EE6_M_endEv # -- Begin function _ZNSt8_Rb_treeINSt7__cxx1112basic_stringIcSt11char_traitsIcESaIcEEESt4pairIKS5_P8gzFile_sESt10_Select1stISA_ESt4lessIS5_ESaISA_EE6_M_endEv
	.p2align	4, 0x90
	.type	_ZNSt8_Rb_treeINSt7__cxx1112basic_stringIcSt11char_traitsIcESaIcEEESt4pairIKS5_P8gzFile_sESt10_Select1stISA_ESt4lessIS5_ESaISA_EE6_M_endEv,@function
_ZNSt8_Rb_treeINSt7__cxx1112basic_stringIcSt11char_traitsIcESaIcEEESt4pairIKS5_P8gzFile_sESt10_Select1stISA_ESt4lessIS5_ESaISA_EE6_M_endEv: # @_ZNSt8_Rb_treeINSt7__cxx1112basic_stringIcSt11char_traitsIcESaIcEEESt4pairIKS5_P8gzFile_sESt10_Select1stISA_ESt4lessIS5_ESaISA_EE6_M_endEv
.Lfunc_begin65:
	.cfi_startproc
# %bb.0:
	leaq	8(%rdi), %rax
	retq
.Lfunc_end65:
	.size	_ZNSt8_Rb_treeINSt7__cxx1112basic_stringIcSt11char_traitsIcESaIcEEESt4pairIKS5_P8gzFile_sESt10_Select1stISA_ESt4lessIS5_ESaISA_EE6_M_endEv, .Lfunc_end65-_ZNSt8_Rb_treeINSt7__cxx1112basic_stringIcSt11char_traitsIcESaIcEEESt4pairIKS5_P8gzFile_sESt10_Select1stISA_ESt4lessIS5_ESaISA_EE6_M_endEv
	.cfi_endproc
                                        # -- End function
	.section	.text._ZNSt8_Rb_treeINSt7__cxx1112basic_stringIcSt11char_traitsIcESaIcEEESt4pairIKS5_P8gzFile_sESt10_Select1stISA_ESt4lessIS5_ESaISA_EE6_S_keyEPKSt18_Rb_tree_node_base,"axG",@progbits,_ZNSt8_Rb_treeINSt7__cxx1112basic_stringIcSt11char_traitsIcESaIcEEESt4pairIKS5_P8gzFile_sESt10_Select1stISA_ESt4lessIS5_ESaISA_EE6_S_keyEPKSt18_Rb_tree_node_base,comdat
	.weak	_ZNSt8_Rb_treeINSt7__cxx1112basic_stringIcSt11char_traitsIcESaIcEEESt4pairIKS5_P8gzFile_sESt10_Select1stISA_ESt4lessIS5_ESaISA_EE6_S_keyEPKSt18_Rb_tree_node_base # -- Begin function _ZNSt8_Rb_treeINSt7__cxx1112basic_stringIcSt11char_traitsIcESaIcEEESt4pairIKS5_P8gzFile_sESt10_Select1stISA_ESt4lessIS5_ESaISA_EE6_S_keyEPKSt18_Rb_tree_node_base
	.p2align	4, 0x90
	.type	_ZNSt8_Rb_treeINSt7__cxx1112basic_stringIcSt11char_traitsIcESaIcEEESt4pairIKS5_P8gzFile_sESt10_Select1stISA_ESt4lessIS5_ESaISA_EE6_S_keyEPKSt18_Rb_tree_node_base,@function
_ZNSt8_Rb_treeINSt7__cxx1112basic_stringIcSt11char_traitsIcESaIcEEESt4pairIKS5_P8gzFile_sESt10_Select1stISA_ESt4lessIS5_ESaISA_EE6_S_keyEPKSt18_Rb_tree_node_base: # @_ZNSt8_Rb_treeINSt7__cxx1112basic_stringIcSt11char_traitsIcESaIcEEESt4pairIKS5_P8gzFile_sESt10_Select1stISA_ESt4lessIS5_ESaISA_EE6_S_keyEPKSt18_Rb_tree_node_base
.Lfunc_begin66:
	.cfi_startproc
# %bb.0:
	jmp	_ZNSt8_Rb_treeINSt7__cxx1112basic_stringIcSt11char_traitsIcESaIcEEESt4pairIKS5_P8gzFile_sESt10_Select1stISA_ESt4lessIS5_ESaISA_EE6_S_keyEPKSt13_Rb_tree_nodeISA_E # TAILCALL
.Lfunc_end66:
	.size	_ZNSt8_Rb_treeINSt7__cxx1112basic_stringIcSt11char_traitsIcESaIcEEESt4pairIKS5_P8gzFile_sESt10_Select1stISA_ESt4lessIS5_ESaISA_EE6_S_keyEPKSt18_Rb_tree_node_base, .Lfunc_end66-_ZNSt8_Rb_treeINSt7__cxx1112basic_stringIcSt11char_traitsIcESaIcEEESt4pairIKS5_P8gzFile_sESt10_Select1stISA_ESt4lessIS5_ESaISA_EE6_S_keyEPKSt18_Rb_tree_node_base
	.cfi_endproc
                                        # -- End function
	.section	.text._ZNKSt23_Rb_tree_const_iteratorISt4pairIKNSt7__cxx1112basic_stringIcSt11char_traitsIcESaIcEEEP8gzFile_sEE13_M_const_castEv,"axG",@progbits,_ZNKSt23_Rb_tree_const_iteratorISt4pairIKNSt7__cxx1112basic_stringIcSt11char_traitsIcESaIcEEEP8gzFile_sEE13_M_const_castEv,comdat
	.weak	_ZNKSt23_Rb_tree_const_iteratorISt4pairIKNSt7__cxx1112basic_stringIcSt11char_traitsIcESaIcEEEP8gzFile_sEE13_M_const_castEv # -- Begin function _ZNKSt23_Rb_tree_const_iteratorISt4pairIKNSt7__cxx1112basic_stringIcSt11char_traitsIcESaIcEEEP8gzFile_sEE13_M_const_castEv
	.p2align	4, 0x90
	.type	_ZNKSt23_Rb_tree_const_iteratorISt4pairIKNSt7__cxx1112basic_stringIcSt11char_traitsIcESaIcEEEP8gzFile_sEE13_M_const_castEv,@function
_ZNKSt23_Rb_tree_const_iteratorISt4pairIKNSt7__cxx1112basic_stringIcSt11char_traitsIcESaIcEEEP8gzFile_sEE13_M_const_castEv: # @_ZNKSt23_Rb_tree_const_iteratorISt4pairIKNSt7__cxx1112basic_stringIcSt11char_traitsIcESaIcEEEP8gzFile_sEE13_M_const_castEv
.Lfunc_begin67:
	.cfi_startproc
# %bb.0:
	pushq	%rax
	.cfi_def_cfa_offset 16
	movq	(%rdi), %rsi
	movq	%rsp, %rdi
	callq	_ZNSt17_Rb_tree_iteratorISt4pairIKNSt7__cxx1112basic_stringIcSt11char_traitsIcESaIcEEEP8gzFile_sEEC2EPSt18_Rb_tree_node_base
	movq	(%rsp), %rax
	popq	%rcx
	retq
.Lfunc_end67:
	.size	_ZNKSt23_Rb_tree_const_iteratorISt4pairIKNSt7__cxx1112basic_stringIcSt11char_traitsIcESaIcEEEP8gzFile_sEE13_M_const_castEv, .Lfunc_end67-_ZNKSt23_Rb_tree_const_iteratorISt4pairIKNSt7__cxx1112basic_stringIcSt11char_traitsIcESaIcEEEP8gzFile_sEE13_M_const_castEv
	.cfi_endproc
                                        # -- End function
	.section	.text._ZNKSt8_Rb_treeINSt7__cxx1112basic_stringIcSt11char_traitsIcESaIcEEESt4pairIKS5_P8gzFile_sESt10_Select1stISA_ESt4lessIS5_ESaISA_EE4sizeEv,"axG",@progbits,_ZNKSt8_Rb_treeINSt7__cxx1112basic_stringIcSt11char_traitsIcESaIcEEESt4pairIKS5_P8gzFile_sESt10_Select1stISA_ESt4lessIS5_ESaISA_EE4sizeEv,comdat
	.weak	_ZNKSt8_Rb_treeINSt7__cxx1112basic_stringIcSt11char_traitsIcESaIcEEESt4pairIKS5_P8gzFile_sESt10_Select1stISA_ESt4lessIS5_ESaISA_EE4sizeEv # -- Begin function _ZNKSt8_Rb_treeINSt7__cxx1112basic_stringIcSt11char_traitsIcESaIcEEESt4pairIKS5_P8gzFile_sESt10_Select1stISA_ESt4lessIS5_ESaISA_EE4sizeEv
	.p2align	4, 0x90
	.type	_ZNKSt8_Rb_treeINSt7__cxx1112basic_stringIcSt11char_traitsIcESaIcEEESt4pairIKS5_P8gzFile_sESt10_Select1stISA_ESt4lessIS5_ESaISA_EE4sizeEv,@function
_ZNKSt8_Rb_treeINSt7__cxx1112basic_stringIcSt11char_traitsIcESaIcEEESt4pairIKS5_P8gzFile_sESt10_Select1stISA_ESt4lessIS5_ESaISA_EE4sizeEv: # @_ZNKSt8_Rb_treeINSt7__cxx1112basic_stringIcSt11char_traitsIcESaIcEEESt4pairIKS5_P8gzFile_sESt10_Select1stISA_ESt4lessIS5_ESaISA_EE4sizeEv
.Lfunc_begin68:
	.cfi_startproc
# %bb.0:
	movq	40(%rdi), %rax
	retq
.Lfunc_end68:
	.size	_ZNKSt8_Rb_treeINSt7__cxx1112basic_stringIcSt11char_traitsIcESaIcEEESt4pairIKS5_P8gzFile_sESt10_Select1stISA_ESt4lessIS5_ESaISA_EE4sizeEv, .Lfunc_end68-_ZNKSt8_Rb_treeINSt7__cxx1112basic_stringIcSt11char_traitsIcESaIcEEESt4pairIKS5_P8gzFile_sESt10_Select1stISA_ESt4lessIS5_ESaISA_EE4sizeEv
	.cfi_endproc
                                        # -- End function
	.section	.text._ZNSt8_Rb_treeINSt7__cxx1112basic_stringIcSt11char_traitsIcESaIcEEESt4pairIKS5_P8gzFile_sESt10_Select1stISA_ESt4lessIS5_ESaISA_EE12_M_rightmostEv,"axG",@progbits,_ZNSt8_Rb_treeINSt7__cxx1112basic_stringIcSt11char_traitsIcESaIcEEESt4pairIKS5_P8gzFile_sESt10_Select1stISA_ESt4lessIS5_ESaISA_EE12_M_rightmostEv,comdat
	.weak	_ZNSt8_Rb_treeINSt7__cxx1112basic_stringIcSt11char_traitsIcESaIcEEESt4pairIKS5_P8gzFile_sESt10_Select1stISA_ESt4lessIS5_ESaISA_EE12_M_rightmostEv # -- Begin function _ZNSt8_Rb_treeINSt7__cxx1112basic_stringIcSt11char_traitsIcESaIcEEESt4pairIKS5_P8gzFile_sESt10_Select1stISA_ESt4lessIS5_ESaISA_EE12_M_rightmostEv
	.p2align	4, 0x90
	.type	_ZNSt8_Rb_treeINSt7__cxx1112basic_stringIcSt11char_traitsIcESaIcEEESt4pairIKS5_P8gzFile_sESt10_Select1stISA_ESt4lessIS5_ESaISA_EE12_M_rightmostEv,@function
_ZNSt8_Rb_treeINSt7__cxx1112basic_stringIcSt11char_traitsIcESaIcEEESt4pairIKS5_P8gzFile_sESt10_Select1stISA_ESt4lessIS5_ESaISA_EE12_M_rightmostEv: # @_ZNSt8_Rb_treeINSt7__cxx1112basic_stringIcSt11char_traitsIcESaIcEEESt4pairIKS5_P8gzFile_sESt10_Select1stISA_ESt4lessIS5_ESaISA_EE12_M_rightmostEv
.Lfunc_begin69:
	.cfi_startproc
# %bb.0:
	leaq	32(%rdi), %rax
	retq
.Lfunc_end69:
	.size	_ZNSt8_Rb_treeINSt7__cxx1112basic_stringIcSt11char_traitsIcESaIcEEESt4pairIKS5_P8gzFile_sESt10_Select1stISA_ESt4lessIS5_ESaISA_EE12_M_rightmostEv, .Lfunc_end69-_ZNSt8_Rb_treeINSt7__cxx1112basic_stringIcSt11char_traitsIcESaIcEEESt4pairIKS5_P8gzFile_sESt10_Select1stISA_ESt4lessIS5_ESaISA_EE12_M_rightmostEv
	.cfi_endproc
                                        # -- End function
	.section	.text._ZNSt4pairIPSt18_Rb_tree_node_baseS1_EC2IRS1_Lb1EEERKS1_OT_,"axG",@progbits,_ZNSt4pairIPSt18_Rb_tree_node_baseS1_EC2IRS1_Lb1EEERKS1_OT_,comdat
	.weak	_ZNSt4pairIPSt18_Rb_tree_node_baseS1_EC2IRS1_Lb1EEERKS1_OT_ # -- Begin function _ZNSt4pairIPSt18_Rb_tree_node_baseS1_EC2IRS1_Lb1EEERKS1_OT_
	.p2align	4, 0x90
	.type	_ZNSt4pairIPSt18_Rb_tree_node_baseS1_EC2IRS1_Lb1EEERKS1_OT_,@function
_ZNSt4pairIPSt18_Rb_tree_node_baseS1_EC2IRS1_Lb1EEERKS1_OT_: # @_ZNSt4pairIPSt18_Rb_tree_node_baseS1_EC2IRS1_Lb1EEERKS1_OT_
.Lfunc_begin70:
	.cfi_startproc
# %bb.0:
	pushq	%rbx
	.cfi_def_cfa_offset 16
	.cfi_offset %rbx, -16
	movq	%rdi, %rbx
	movq	(%rsi), %rax
	movq	%rax, (%rbx)
	movq	%rdx, %rdi
	callq	_ZSt7forwardIRPSt18_Rb_tree_node_baseEOT_RNSt16remove_referenceIS3_E4typeE
	movq	(%rax), %rax
	movq	%rax, 8(%rbx)
	popq	%rbx
	retq
.Lfunc_end70:
	.size	_ZNSt4pairIPSt18_Rb_tree_node_baseS1_EC2IRS1_Lb1EEERKS1_OT_, .Lfunc_end70-_ZNSt4pairIPSt18_Rb_tree_node_baseS1_EC2IRS1_Lb1EEERKS1_OT_
	.cfi_endproc
                                        # -- End function
	.section	.text._ZNSt8_Rb_treeINSt7__cxx1112basic_stringIcSt11char_traitsIcESaIcEEESt4pairIKS5_P8gzFile_sESt10_Select1stISA_ESt4lessIS5_ESaISA_EE24_M_get_insert_unique_posERS7_,"axG",@progbits,_ZNSt8_Rb_treeINSt7__cxx1112basic_stringIcSt11char_traitsIcESaIcEEESt4pairIKS5_P8gzFile_sESt10_Select1stISA_ESt4lessIS5_ESaISA_EE24_M_get_insert_unique_posERS7_,comdat
	.weak	_ZNSt8_Rb_treeINSt7__cxx1112basic_stringIcSt11char_traitsIcESaIcEEESt4pairIKS5_P8gzFile_sESt10_Select1stISA_ESt4lessIS5_ESaISA_EE24_M_get_insert_unique_posERS7_ # -- Begin function _ZNSt8_Rb_treeINSt7__cxx1112basic_stringIcSt11char_traitsIcESaIcEEESt4pairIKS5_P8gzFile_sESt10_Select1stISA_ESt4lessIS5_ESaISA_EE24_M_get_insert_unique_posERS7_
	.p2align	4, 0x90
	.type	_ZNSt8_Rb_treeINSt7__cxx1112basic_stringIcSt11char_traitsIcESaIcEEESt4pairIKS5_P8gzFile_sESt10_Select1stISA_ESt4lessIS5_ESaISA_EE24_M_get_insert_unique_posERS7_,@function
_ZNSt8_Rb_treeINSt7__cxx1112basic_stringIcSt11char_traitsIcESaIcEEESt4pairIKS5_P8gzFile_sESt10_Select1stISA_ESt4lessIS5_ESaISA_EE24_M_get_insert_unique_posERS7_: # @_ZNSt8_Rb_treeINSt7__cxx1112basic_stringIcSt11char_traitsIcESaIcEEESt4pairIKS5_P8gzFile_sESt10_Select1stISA_ESt4lessIS5_ESaISA_EE24_M_get_insert_unique_posERS7_
.Lfunc_begin71:
	.cfi_startproc
# %bb.0:
	pushq	%rbp
	.cfi_def_cfa_offset 16
	pushq	%r15
	.cfi_def_cfa_offset 24
	pushq	%r14
	.cfi_def_cfa_offset 32
	pushq	%r12
	.cfi_def_cfa_offset 40
	pushq	%rbx
	.cfi_def_cfa_offset 48
	subq	$48, %rsp
	.cfi_def_cfa_offset 96
	.cfi_offset %rbx, -48
	.cfi_offset %r12, -40
	.cfi_offset %r14, -32
	.cfi_offset %r15, -24
	.cfi_offset %rbp, -16
	movq	%rsi, %r14
	movq	%rdi, %r15
	callq	_ZNSt8_Rb_treeINSt7__cxx1112basic_stringIcSt11char_traitsIcESaIcEEESt4pairIKS5_P8gzFile_sESt10_Select1stISA_ESt4lessIS5_ESaISA_EE8_M_beginEv
	movq	%rax, %rbp
	movq	%rbp, 24(%rsp)
	movq	%r15, %rdi
	callq	_ZNSt8_Rb_treeINSt7__cxx1112basic_stringIcSt11char_traitsIcESaIcEEESt4pairIKS5_P8gzFile_sESt10_Select1stISA_ESt4lessIS5_ESaISA_EE6_M_endEv
	movq	%rax, 16(%rsp)
	testq	%rbp, %rbp
	je	.LBB71_1
	.p2align	4, 0x90
.LBB71_2:                               # =>This Inner Loop Header: Depth=1
	movq	%rbp, %rbx
	movq	%rbx, %rdi
	callq	_ZNSt8_Rb_treeINSt7__cxx1112basic_stringIcSt11char_traitsIcESaIcEEESt4pairIKS5_P8gzFile_sESt10_Select1stISA_ESt4lessIS5_ESaISA_EE6_S_keyEPKSt13_Rb_tree_nodeISA_E
	movq	%r15, %rdi
	movq	%r14, %rsi
	movq	%rax, %rdx
	callq	_ZNKSt4lessINSt7__cxx1112basic_stringIcSt11char_traitsIcESaIcEEEEclERKS5_S8_
	movl	%eax, %r12d
	movq	%rbx, %rdi
	testb	%r12b, %r12b
	je	.LBB71_4
# %bb.3:                                #   in Loop: Header=BB71_2 Depth=1
	callq	_ZNSt8_Rb_treeINSt7__cxx1112basic_stringIcSt11char_traitsIcESaIcEEESt4pairIKS5_P8gzFile_sESt10_Select1stISA_ESt4lessIS5_ESaISA_EE7_S_leftEPSt18_Rb_tree_node_base
	jmp	.LBB71_5
	.p2align	4, 0x90
.LBB71_4:                               #   in Loop: Header=BB71_2 Depth=1
	callq	_ZNSt8_Rb_treeINSt7__cxx1112basic_stringIcSt11char_traitsIcESaIcEEESt4pairIKS5_P8gzFile_sESt10_Select1stISA_ESt4lessIS5_ESaISA_EE8_S_rightEPSt18_Rb_tree_node_base
.LBB71_5:                               #   in Loop: Header=BB71_2 Depth=1
	movq	%rax, %rbp
	testq	%rbp, %rbp
	jne	.LBB71_2
# %bb.6:
	movq	%rbp, 24(%rsp)
	movq	%rbx, 16(%rsp)
	movq	%rsp, %rdi
	movq	%rbx, %rsi
	callq	_ZNSt17_Rb_tree_iteratorISt4pairIKNSt7__cxx1112basic_stringIcSt11char_traitsIcESaIcEEEP8gzFile_sEEC2EPSt18_Rb_tree_node_base
	testb	%r12b, %r12b
	jne	.LBB71_7
	jmp	.LBB71_10
.LBB71_1:
	movq	%rsp, %rdi
	movq	%rax, %rsi
	callq	_ZNSt17_Rb_tree_iteratorISt4pairIKNSt7__cxx1112basic_stringIcSt11char_traitsIcESaIcEEEP8gzFile_sEEC2EPSt18_Rb_tree_node_base
.LBB71_7:
	movq	%r15, %rdi
	callq	_ZNSt8_Rb_treeINSt7__cxx1112basic_stringIcSt11char_traitsIcESaIcEEESt4pairIKS5_P8gzFile_sESt10_Select1stISA_ESt4lessIS5_ESaISA_EE5beginEv
	movq	%rax, 8(%rsp)
	movq	%rsp, %rdi
	leaq	8(%rsp), %rsi
	callq	_ZSteqRKSt17_Rb_tree_iteratorISt4pairIKNSt7__cxx1112basic_stringIcSt11char_traitsIcESaIcEEEP8gzFile_sEESD_
	testb	%al, %al
	jne	.LBB71_8
# %bb.9:
	movq	%rsp, %rdi
	callq	_ZNSt17_Rb_tree_iteratorISt4pairIKNSt7__cxx1112basic_stringIcSt11char_traitsIcESaIcEEEP8gzFile_sEEmmEv
.LBB71_10:
	movq	(%rsp), %rdi
	callq	_ZNSt8_Rb_treeINSt7__cxx1112basic_stringIcSt11char_traitsIcESaIcEEESt4pairIKS5_P8gzFile_sESt10_Select1stISA_ESt4lessIS5_ESaISA_EE6_S_keyEPKSt18_Rb_tree_node_base
	movq	%r15, %rdi
	movq	%rax, %rsi
	movq	%r14, %rdx
	callq	_ZNKSt4lessINSt7__cxx1112basic_stringIcSt11char_traitsIcESaIcEEEEclERKS5_S8_
	testb	%al, %al
	je	.LBB71_11
.LBB71_8:
	leaq	32(%rsp), %rdi
	leaq	24(%rsp), %rsi
	leaq	16(%rsp), %rdx
	callq	_ZNSt4pairIPSt18_Rb_tree_node_baseS1_EC2IRPSt13_Rb_tree_nodeIS_IKNSt7__cxx1112basic_stringIcSt11char_traitsIcESaIcEEEP8gzFile_sEERS1_Lb1EEEOT_OT0_
	jmp	.LBB71_12
.LBB71_11:
	movq	$0, 8(%rsp)
	leaq	32(%rsp), %rdi
	movq	%rsp, %rsi
	leaq	8(%rsp), %rdx
	callq	_ZNSt4pairIPSt18_Rb_tree_node_baseS1_EC2IRS1_Lb1EEEOT_RKS1_
.LBB71_12:
	movq	32(%rsp), %rax
	movq	40(%rsp), %rdx
	addq	$48, %rsp
	popq	%rbx
	popq	%r12
	popq	%r14
	popq	%r15
	popq	%rbp
	retq
.Lfunc_end71:
	.size	_ZNSt8_Rb_treeINSt7__cxx1112basic_stringIcSt11char_traitsIcESaIcEEESt4pairIKS5_P8gzFile_sESt10_Select1stISA_ESt4lessIS5_ESaISA_EE24_M_get_insert_unique_posERS7_, .Lfunc_end71-_ZNSt8_Rb_treeINSt7__cxx1112basic_stringIcSt11char_traitsIcESaIcEEESt4pairIKS5_P8gzFile_sESt10_Select1stISA_ESt4lessIS5_ESaISA_EE24_M_get_insert_unique_posERS7_
	.cfi_endproc
                                        # -- End function
	.section	.text._ZNSt8_Rb_treeINSt7__cxx1112basic_stringIcSt11char_traitsIcESaIcEEESt4pairIKS5_P8gzFile_sESt10_Select1stISA_ESt4lessIS5_ESaISA_EE11_M_leftmostEv,"axG",@progbits,_ZNSt8_Rb_treeINSt7__cxx1112basic_stringIcSt11char_traitsIcESaIcEEESt4pairIKS5_P8gzFile_sESt10_Select1stISA_ESt4lessIS5_ESaISA_EE11_M_leftmostEv,comdat
	.weak	_ZNSt8_Rb_treeINSt7__cxx1112basic_stringIcSt11char_traitsIcESaIcEEESt4pairIKS5_P8gzFile_sESt10_Select1stISA_ESt4lessIS5_ESaISA_EE11_M_leftmostEv # -- Begin function _ZNSt8_Rb_treeINSt7__cxx1112basic_stringIcSt11char_traitsIcESaIcEEESt4pairIKS5_P8gzFile_sESt10_Select1stISA_ESt4lessIS5_ESaISA_EE11_M_leftmostEv
	.p2align	4, 0x90
	.type	_ZNSt8_Rb_treeINSt7__cxx1112basic_stringIcSt11char_traitsIcESaIcEEESt4pairIKS5_P8gzFile_sESt10_Select1stISA_ESt4lessIS5_ESaISA_EE11_M_leftmostEv,@function
_ZNSt8_Rb_treeINSt7__cxx1112basic_stringIcSt11char_traitsIcESaIcEEESt4pairIKS5_P8gzFile_sESt10_Select1stISA_ESt4lessIS5_ESaISA_EE11_M_leftmostEv: # @_ZNSt8_Rb_treeINSt7__cxx1112basic_stringIcSt11char_traitsIcESaIcEEESt4pairIKS5_P8gzFile_sESt10_Select1stISA_ESt4lessIS5_ESaISA_EE11_M_leftmostEv
.Lfunc_begin72:
	.cfi_startproc
# %bb.0:
	leaq	24(%rdi), %rax
	retq
.Lfunc_end72:
	.size	_ZNSt8_Rb_treeINSt7__cxx1112basic_stringIcSt11char_traitsIcESaIcEEESt4pairIKS5_P8gzFile_sESt10_Select1stISA_ESt4lessIS5_ESaISA_EE11_M_leftmostEv, .Lfunc_end72-_ZNSt8_Rb_treeINSt7__cxx1112basic_stringIcSt11char_traitsIcESaIcEEESt4pairIKS5_P8gzFile_sESt10_Select1stISA_ESt4lessIS5_ESaISA_EE11_M_leftmostEv
	.cfi_endproc
                                        # -- End function
	.section	.text._ZNSt4pairIPSt18_Rb_tree_node_baseS1_EC2IRS1_S4_Lb1EEEOT_OT0_,"axG",@progbits,_ZNSt4pairIPSt18_Rb_tree_node_baseS1_EC2IRS1_S4_Lb1EEEOT_OT0_,comdat
	.weak	_ZNSt4pairIPSt18_Rb_tree_node_baseS1_EC2IRS1_S4_Lb1EEEOT_OT0_ # -- Begin function _ZNSt4pairIPSt18_Rb_tree_node_baseS1_EC2IRS1_S4_Lb1EEEOT_OT0_
	.p2align	4, 0x90
	.type	_ZNSt4pairIPSt18_Rb_tree_node_baseS1_EC2IRS1_S4_Lb1EEEOT_OT0_,@function
_ZNSt4pairIPSt18_Rb_tree_node_baseS1_EC2IRS1_S4_Lb1EEEOT_OT0_: # @_ZNSt4pairIPSt18_Rb_tree_node_baseS1_EC2IRS1_S4_Lb1EEEOT_OT0_
.Lfunc_begin73:
	.cfi_startproc
# %bb.0:
	pushq	%r14
	.cfi_def_cfa_offset 16
	pushq	%rbx
	.cfi_def_cfa_offset 24
	pushq	%rax
	.cfi_def_cfa_offset 32
	.cfi_offset %rbx, -24
	.cfi_offset %r14, -16
	movq	%rdx, %r14
	movq	%rdi, %rbx
	movq	%rsi, %rdi
	callq	_ZSt7forwardIRPSt18_Rb_tree_node_baseEOT_RNSt16remove_referenceIS3_E4typeE
	movq	(%rax), %rax
	movq	%rax, (%rbx)
	movq	%r14, %rdi
	callq	_ZSt7forwardIRPSt18_Rb_tree_node_baseEOT_RNSt16remove_referenceIS3_E4typeE
	movq	(%rax), %rax
	movq	%rax, 8(%rbx)
	addq	$8, %rsp
	popq	%rbx
	popq	%r14
	retq
.Lfunc_end73:
	.size	_ZNSt4pairIPSt18_Rb_tree_node_baseS1_EC2IRS1_S4_Lb1EEEOT_OT0_, .Lfunc_end73-_ZNSt4pairIPSt18_Rb_tree_node_baseS1_EC2IRS1_S4_Lb1EEEOT_OT0_
	.cfi_endproc
                                        # -- End function
	.section	.text._ZNSt17_Rb_tree_iteratorISt4pairIKNSt7__cxx1112basic_stringIcSt11char_traitsIcESaIcEEEP8gzFile_sEEmmEv,"axG",@progbits,_ZNSt17_Rb_tree_iteratorISt4pairIKNSt7__cxx1112basic_stringIcSt11char_traitsIcESaIcEEEP8gzFile_sEEmmEv,comdat
	.weak	_ZNSt17_Rb_tree_iteratorISt4pairIKNSt7__cxx1112basic_stringIcSt11char_traitsIcESaIcEEEP8gzFile_sEEmmEv # -- Begin function _ZNSt17_Rb_tree_iteratorISt4pairIKNSt7__cxx1112basic_stringIcSt11char_traitsIcESaIcEEEP8gzFile_sEEmmEv
	.p2align	4, 0x90
	.type	_ZNSt17_Rb_tree_iteratorISt4pairIKNSt7__cxx1112basic_stringIcSt11char_traitsIcESaIcEEEP8gzFile_sEEmmEv,@function
_ZNSt17_Rb_tree_iteratorISt4pairIKNSt7__cxx1112basic_stringIcSt11char_traitsIcESaIcEEEP8gzFile_sEEmmEv: # @_ZNSt17_Rb_tree_iteratorISt4pairIKNSt7__cxx1112basic_stringIcSt11char_traitsIcESaIcEEEP8gzFile_sEEmmEv
.Lfunc_begin74:
	.cfi_startproc
# %bb.0:
	pushq	%rbx
	.cfi_def_cfa_offset 16
	.cfi_offset %rbx, -16
	movq	%rdi, %rbx
	movq	(%rbx), %rdi
	callq	_ZSt18_Rb_tree_decrementPSt18_Rb_tree_node_base
	movq	%rax, (%rbx)
	movq	%rbx, %rax
	popq	%rbx
	retq
.Lfunc_end74:
	.size	_ZNSt17_Rb_tree_iteratorISt4pairIKNSt7__cxx1112basic_stringIcSt11char_traitsIcESaIcEEEP8gzFile_sEEmmEv, .Lfunc_end74-_ZNSt17_Rb_tree_iteratorISt4pairIKNSt7__cxx1112basic_stringIcSt11char_traitsIcESaIcEEEP8gzFile_sEEmmEv
	.cfi_endproc
                                        # -- End function
	.section	.text._ZNSt17_Rb_tree_iteratorISt4pairIKNSt7__cxx1112basic_stringIcSt11char_traitsIcESaIcEEEP8gzFile_sEEppEv,"axG",@progbits,_ZNSt17_Rb_tree_iteratorISt4pairIKNSt7__cxx1112basic_stringIcSt11char_traitsIcESaIcEEEP8gzFile_sEEppEv,comdat
	.weak	_ZNSt17_Rb_tree_iteratorISt4pairIKNSt7__cxx1112basic_stringIcSt11char_traitsIcESaIcEEEP8gzFile_sEEppEv # -- Begin function _ZNSt17_Rb_tree_iteratorISt4pairIKNSt7__cxx1112basic_stringIcSt11char_traitsIcESaIcEEEP8gzFile_sEEppEv
	.p2align	4, 0x90
	.type	_ZNSt17_Rb_tree_iteratorISt4pairIKNSt7__cxx1112basic_stringIcSt11char_traitsIcESaIcEEEP8gzFile_sEEppEv,@function
_ZNSt17_Rb_tree_iteratorISt4pairIKNSt7__cxx1112basic_stringIcSt11char_traitsIcESaIcEEEP8gzFile_sEEppEv: # @_ZNSt17_Rb_tree_iteratorISt4pairIKNSt7__cxx1112basic_stringIcSt11char_traitsIcESaIcEEEP8gzFile_sEEppEv
.Lfunc_begin75:
	.cfi_startproc
# %bb.0:
	pushq	%rbx
	.cfi_def_cfa_offset 16
	.cfi_offset %rbx, -16
	movq	%rdi, %rbx
	movq	(%rbx), %rdi
	callq	_ZSt18_Rb_tree_incrementPSt18_Rb_tree_node_base
	movq	%rax, (%rbx)
	movq	%rbx, %rax
	popq	%rbx
	retq
.Lfunc_end75:
	.size	_ZNSt17_Rb_tree_iteratorISt4pairIKNSt7__cxx1112basic_stringIcSt11char_traitsIcESaIcEEEP8gzFile_sEEppEv, .Lfunc_end75-_ZNSt17_Rb_tree_iteratorISt4pairIKNSt7__cxx1112basic_stringIcSt11char_traitsIcESaIcEEEP8gzFile_sEEppEv
	.cfi_endproc
                                        # -- End function
	.section	.text._ZNSt4pairIPSt18_Rb_tree_node_baseS1_EC2IRS1_Lb1EEEOT_RKS1_,"axG",@progbits,_ZNSt4pairIPSt18_Rb_tree_node_baseS1_EC2IRS1_Lb1EEEOT_RKS1_,comdat
	.weak	_ZNSt4pairIPSt18_Rb_tree_node_baseS1_EC2IRS1_Lb1EEEOT_RKS1_ # -- Begin function _ZNSt4pairIPSt18_Rb_tree_node_baseS1_EC2IRS1_Lb1EEEOT_RKS1_
	.p2align	4, 0x90
	.type	_ZNSt4pairIPSt18_Rb_tree_node_baseS1_EC2IRS1_Lb1EEEOT_RKS1_,@function
_ZNSt4pairIPSt18_Rb_tree_node_baseS1_EC2IRS1_Lb1EEEOT_RKS1_: # @_ZNSt4pairIPSt18_Rb_tree_node_baseS1_EC2IRS1_Lb1EEEOT_RKS1_
.Lfunc_begin76:
	.cfi_startproc
# %bb.0:
	pushq	%r14
	.cfi_def_cfa_offset 16
	pushq	%rbx
	.cfi_def_cfa_offset 24
	pushq	%rax
	.cfi_def_cfa_offset 32
	.cfi_offset %rbx, -24
	.cfi_offset %r14, -16
	movq	%rdx, %r14
	movq	%rdi, %rbx
	movq	%rsi, %rdi
	callq	_ZSt7forwardIRPSt18_Rb_tree_node_baseEOT_RNSt16remove_referenceIS3_E4typeE
	movq	(%rax), %rax
	movq	%rax, (%rbx)
	movq	(%r14), %rax
	movq	%rax, 8(%rbx)
	addq	$8, %rsp
	popq	%rbx
	popq	%r14
	retq
.Lfunc_end76:
	.size	_ZNSt4pairIPSt18_Rb_tree_node_baseS1_EC2IRS1_Lb1EEEOT_RKS1_, .Lfunc_end76-_ZNSt4pairIPSt18_Rb_tree_node_baseS1_EC2IRS1_Lb1EEEOT_RKS1_
	.cfi_endproc
                                        # -- End function
	.section	.text._ZSt7forwardIRPSt18_Rb_tree_node_baseEOT_RNSt16remove_referenceIS3_E4typeE,"axG",@progbits,_ZSt7forwardIRPSt18_Rb_tree_node_baseEOT_RNSt16remove_referenceIS3_E4typeE,comdat
	.weak	_ZSt7forwardIRPSt18_Rb_tree_node_baseEOT_RNSt16remove_referenceIS3_E4typeE # -- Begin function _ZSt7forwardIRPSt18_Rb_tree_node_baseEOT_RNSt16remove_referenceIS3_E4typeE
	.p2align	4, 0x90
	.type	_ZSt7forwardIRPSt18_Rb_tree_node_baseEOT_RNSt16remove_referenceIS3_E4typeE,@function
_ZSt7forwardIRPSt18_Rb_tree_node_baseEOT_RNSt16remove_referenceIS3_E4typeE: # @_ZSt7forwardIRPSt18_Rb_tree_node_baseEOT_RNSt16remove_referenceIS3_E4typeE
.Lfunc_begin77:
	.cfi_startproc
# %bb.0:
	movq	%rdi, %rax
	retq
.Lfunc_end77:
	.size	_ZSt7forwardIRPSt18_Rb_tree_node_baseEOT_RNSt16remove_referenceIS3_E4typeE, .Lfunc_end77-_ZSt7forwardIRPSt18_Rb_tree_node_baseEOT_RNSt16remove_referenceIS3_E4typeE
	.cfi_endproc
                                        # -- End function
	.section	.text._ZNSt8_Rb_treeINSt7__cxx1112basic_stringIcSt11char_traitsIcESaIcEEESt4pairIKS5_P8gzFile_sESt10_Select1stISA_ESt4lessIS5_ESaISA_EE5beginEv,"axG",@progbits,_ZNSt8_Rb_treeINSt7__cxx1112basic_stringIcSt11char_traitsIcESaIcEEESt4pairIKS5_P8gzFile_sESt10_Select1stISA_ESt4lessIS5_ESaISA_EE5beginEv,comdat
	.weak	_ZNSt8_Rb_treeINSt7__cxx1112basic_stringIcSt11char_traitsIcESaIcEEESt4pairIKS5_P8gzFile_sESt10_Select1stISA_ESt4lessIS5_ESaISA_EE5beginEv # -- Begin function _ZNSt8_Rb_treeINSt7__cxx1112basic_stringIcSt11char_traitsIcESaIcEEESt4pairIKS5_P8gzFile_sESt10_Select1stISA_ESt4lessIS5_ESaISA_EE5beginEv
	.p2align	4, 0x90
	.type	_ZNSt8_Rb_treeINSt7__cxx1112basic_stringIcSt11char_traitsIcESaIcEEESt4pairIKS5_P8gzFile_sESt10_Select1stISA_ESt4lessIS5_ESaISA_EE5beginEv,@function
_ZNSt8_Rb_treeINSt7__cxx1112basic_stringIcSt11char_traitsIcESaIcEEESt4pairIKS5_P8gzFile_sESt10_Select1stISA_ESt4lessIS5_ESaISA_EE5beginEv: # @_ZNSt8_Rb_treeINSt7__cxx1112basic_stringIcSt11char_traitsIcESaIcEEESt4pairIKS5_P8gzFile_sESt10_Select1stISA_ESt4lessIS5_ESaISA_EE5beginEv
.Lfunc_begin78:
	.cfi_startproc
# %bb.0:
	pushq	%rax
	.cfi_def_cfa_offset 16
	movq	24(%rdi), %rsi
	movq	%rsp, %rdi
	callq	_ZNSt17_Rb_tree_iteratorISt4pairIKNSt7__cxx1112basic_stringIcSt11char_traitsIcESaIcEEEP8gzFile_sEEC2EPSt18_Rb_tree_node_base
	movq	(%rsp), %rax
	popq	%rcx
	retq
.Lfunc_end78:
	.size	_ZNSt8_Rb_treeINSt7__cxx1112basic_stringIcSt11char_traitsIcESaIcEEESt4pairIKS5_P8gzFile_sESt10_Select1stISA_ESt4lessIS5_ESaISA_EE5beginEv, .Lfunc_end78-_ZNSt8_Rb_treeINSt7__cxx1112basic_stringIcSt11char_traitsIcESaIcEEESt4pairIKS5_P8gzFile_sESt10_Select1stISA_ESt4lessIS5_ESaISA_EE5beginEv
	.cfi_endproc
                                        # -- End function
	.section	.text._ZNSt4pairIPSt18_Rb_tree_node_baseS1_EC2IRPSt13_Rb_tree_nodeIS_IKNSt7__cxx1112basic_stringIcSt11char_traitsIcESaIcEEEP8gzFile_sEERS1_Lb1EEEOT_OT0_,"axG",@progbits,_ZNSt4pairIPSt18_Rb_tree_node_baseS1_EC2IRPSt13_Rb_tree_nodeIS_IKNSt7__cxx1112basic_stringIcSt11char_traitsIcESaIcEEEP8gzFile_sEERS1_Lb1EEEOT_OT0_,comdat
	.weak	_ZNSt4pairIPSt18_Rb_tree_node_baseS1_EC2IRPSt13_Rb_tree_nodeIS_IKNSt7__cxx1112basic_stringIcSt11char_traitsIcESaIcEEEP8gzFile_sEERS1_Lb1EEEOT_OT0_ # -- Begin function _ZNSt4pairIPSt18_Rb_tree_node_baseS1_EC2IRPSt13_Rb_tree_nodeIS_IKNSt7__cxx1112basic_stringIcSt11char_traitsIcESaIcEEEP8gzFile_sEERS1_Lb1EEEOT_OT0_
	.p2align	4, 0x90
	.type	_ZNSt4pairIPSt18_Rb_tree_node_baseS1_EC2IRPSt13_Rb_tree_nodeIS_IKNSt7__cxx1112basic_stringIcSt11char_traitsIcESaIcEEEP8gzFile_sEERS1_Lb1EEEOT_OT0_,@function
_ZNSt4pairIPSt18_Rb_tree_node_baseS1_EC2IRPSt13_Rb_tree_nodeIS_IKNSt7__cxx1112basic_stringIcSt11char_traitsIcESaIcEEEP8gzFile_sEERS1_Lb1EEEOT_OT0_: # @_ZNSt4pairIPSt18_Rb_tree_node_baseS1_EC2IRPSt13_Rb_tree_nodeIS_IKNSt7__cxx1112basic_stringIcSt11char_traitsIcESaIcEEEP8gzFile_sEERS1_Lb1EEEOT_OT0_
.Lfunc_begin79:
	.cfi_startproc
# %bb.0:
	pushq	%r14
	.cfi_def_cfa_offset 16
	pushq	%rbx
	.cfi_def_cfa_offset 24
	pushq	%rax
	.cfi_def_cfa_offset 32
	.cfi_offset %rbx, -24
	.cfi_offset %r14, -16
	movq	%rdx, %r14
	movq	%rdi, %rbx
	movq	%rsi, %rdi
	callq	_ZSt7forwardIRPSt13_Rb_tree_nodeISt4pairIKNSt7__cxx1112basic_stringIcSt11char_traitsIcESaIcEEEP8gzFile_sEEEOT_RNSt16remove_referenceISF_E4typeE
	movq	(%rax), %rax
	movq	%rax, (%rbx)
	movq	%r14, %rdi
	callq	_ZSt7forwardIRPSt18_Rb_tree_node_baseEOT_RNSt16remove_referenceIS3_E4typeE
	movq	(%rax), %rax
	movq	%rax, 8(%rbx)
	addq	$8, %rsp
	popq	%rbx
	popq	%r14
	retq
.Lfunc_end79:
	.size	_ZNSt4pairIPSt18_Rb_tree_node_baseS1_EC2IRPSt13_Rb_tree_nodeIS_IKNSt7__cxx1112basic_stringIcSt11char_traitsIcESaIcEEEP8gzFile_sEERS1_Lb1EEEOT_OT0_, .Lfunc_end79-_ZNSt4pairIPSt18_Rb_tree_node_baseS1_EC2IRPSt13_Rb_tree_nodeIS_IKNSt7__cxx1112basic_stringIcSt11char_traitsIcESaIcEEEP8gzFile_sEERS1_Lb1EEEOT_OT0_
	.cfi_endproc
                                        # -- End function
	.section	.text._ZSt7forwardIRPSt13_Rb_tree_nodeISt4pairIKNSt7__cxx1112basic_stringIcSt11char_traitsIcESaIcEEEP8gzFile_sEEEOT_RNSt16remove_referenceISF_E4typeE,"axG",@progbits,_ZSt7forwardIRPSt13_Rb_tree_nodeISt4pairIKNSt7__cxx1112basic_stringIcSt11char_traitsIcESaIcEEEP8gzFile_sEEEOT_RNSt16remove_referenceISF_E4typeE,comdat
	.weak	_ZSt7forwardIRPSt13_Rb_tree_nodeISt4pairIKNSt7__cxx1112basic_stringIcSt11char_traitsIcESaIcEEEP8gzFile_sEEEOT_RNSt16remove_referenceISF_E4typeE # -- Begin function _ZSt7forwardIRPSt13_Rb_tree_nodeISt4pairIKNSt7__cxx1112basic_stringIcSt11char_traitsIcESaIcEEEP8gzFile_sEEEOT_RNSt16remove_referenceISF_E4typeE
	.p2align	4, 0x90
	.type	_ZSt7forwardIRPSt13_Rb_tree_nodeISt4pairIKNSt7__cxx1112basic_stringIcSt11char_traitsIcESaIcEEEP8gzFile_sEEEOT_RNSt16remove_referenceISF_E4typeE,@function
_ZSt7forwardIRPSt13_Rb_tree_nodeISt4pairIKNSt7__cxx1112basic_stringIcSt11char_traitsIcESaIcEEEP8gzFile_sEEEOT_RNSt16remove_referenceISF_E4typeE: # @_ZSt7forwardIRPSt13_Rb_tree_nodeISt4pairIKNSt7__cxx1112basic_stringIcSt11char_traitsIcESaIcEEEP8gzFile_sEEEOT_RNSt16remove_referenceISF_E4typeE
.Lfunc_begin80:
	.cfi_startproc
# %bb.0:
	movq	%rdi, %rax
	retq
.Lfunc_end80:
	.size	_ZSt7forwardIRPSt13_Rb_tree_nodeISt4pairIKNSt7__cxx1112basic_stringIcSt11char_traitsIcESaIcEEEP8gzFile_sEEEOT_RNSt16remove_referenceISF_E4typeE, .Lfunc_end80-_ZSt7forwardIRPSt13_Rb_tree_nodeISt4pairIKNSt7__cxx1112basic_stringIcSt11char_traitsIcESaIcEEEP8gzFile_sEEEOT_RNSt16remove_referenceISF_E4typeE
	.cfi_endproc
                                        # -- End function
	.section	.text._ZNKSt13_Rb_tree_nodeISt4pairIKNSt7__cxx1112basic_stringIcSt11char_traitsIcESaIcEEEP8gzFile_sEE9_M_valptrEv,"axG",@progbits,_ZNKSt13_Rb_tree_nodeISt4pairIKNSt7__cxx1112basic_stringIcSt11char_traitsIcESaIcEEEP8gzFile_sEE9_M_valptrEv,comdat
	.weak	_ZNKSt13_Rb_tree_nodeISt4pairIKNSt7__cxx1112basic_stringIcSt11char_traitsIcESaIcEEEP8gzFile_sEE9_M_valptrEv # -- Begin function _ZNKSt13_Rb_tree_nodeISt4pairIKNSt7__cxx1112basic_stringIcSt11char_traitsIcESaIcEEEP8gzFile_sEE9_M_valptrEv
	.p2align	4, 0x90
	.type	_ZNKSt13_Rb_tree_nodeISt4pairIKNSt7__cxx1112basic_stringIcSt11char_traitsIcESaIcEEEP8gzFile_sEE9_M_valptrEv,@function
_ZNKSt13_Rb_tree_nodeISt4pairIKNSt7__cxx1112basic_stringIcSt11char_traitsIcESaIcEEEP8gzFile_sEE9_M_valptrEv: # @_ZNKSt13_Rb_tree_nodeISt4pairIKNSt7__cxx1112basic_stringIcSt11char_traitsIcESaIcEEEP8gzFile_sEE9_M_valptrEv
.Lfunc_begin81:
	.cfi_startproc
# %bb.0:
	addq	$32, %rdi
	jmp	_ZNK9__gnu_cxx16__aligned_membufISt4pairIKNSt7__cxx1112basic_stringIcSt11char_traitsIcESaIcEEEP8gzFile_sEE6_M_ptrEv # TAILCALL
.Lfunc_end81:
	.size	_ZNKSt13_Rb_tree_nodeISt4pairIKNSt7__cxx1112basic_stringIcSt11char_traitsIcESaIcEEEP8gzFile_sEE9_M_valptrEv, .Lfunc_end81-_ZNKSt13_Rb_tree_nodeISt4pairIKNSt7__cxx1112basic_stringIcSt11char_traitsIcESaIcEEEP8gzFile_sEE9_M_valptrEv
	.cfi_endproc
                                        # -- End function
	.section	.text._ZNKSt10_Select1stISt4pairIKNSt7__cxx1112basic_stringIcSt11char_traitsIcESaIcEEEP8gzFile_sEEclERKSA_,"axG",@progbits,_ZNKSt10_Select1stISt4pairIKNSt7__cxx1112basic_stringIcSt11char_traitsIcESaIcEEEP8gzFile_sEEclERKSA_,comdat
	.weak	_ZNKSt10_Select1stISt4pairIKNSt7__cxx1112basic_stringIcSt11char_traitsIcESaIcEEEP8gzFile_sEEclERKSA_ # -- Begin function _ZNKSt10_Select1stISt4pairIKNSt7__cxx1112basic_stringIcSt11char_traitsIcESaIcEEEP8gzFile_sEEclERKSA_
	.p2align	4, 0x90
	.type	_ZNKSt10_Select1stISt4pairIKNSt7__cxx1112basic_stringIcSt11char_traitsIcESaIcEEEP8gzFile_sEEclERKSA_,@function
_ZNKSt10_Select1stISt4pairIKNSt7__cxx1112basic_stringIcSt11char_traitsIcESaIcEEEP8gzFile_sEEclERKSA_: # @_ZNKSt10_Select1stISt4pairIKNSt7__cxx1112basic_stringIcSt11char_traitsIcESaIcEEEP8gzFile_sEEclERKSA_
.Lfunc_begin82:
	.cfi_startproc
# %bb.0:
	movq	%rsi, %rax
	retq
.Lfunc_end82:
	.size	_ZNKSt10_Select1stISt4pairIKNSt7__cxx1112basic_stringIcSt11char_traitsIcESaIcEEEP8gzFile_sEEclERKSA_, .Lfunc_end82-_ZNKSt10_Select1stISt4pairIKNSt7__cxx1112basic_stringIcSt11char_traitsIcESaIcEEEP8gzFile_sEEclERKSA_
	.cfi_endproc
                                        # -- End function
	.section	.text._ZNK9__gnu_cxx16__aligned_membufISt4pairIKNSt7__cxx1112basic_stringIcSt11char_traitsIcESaIcEEEP8gzFile_sEE6_M_ptrEv,"axG",@progbits,_ZNK9__gnu_cxx16__aligned_membufISt4pairIKNSt7__cxx1112basic_stringIcSt11char_traitsIcESaIcEEEP8gzFile_sEE6_M_ptrEv,comdat
	.weak	_ZNK9__gnu_cxx16__aligned_membufISt4pairIKNSt7__cxx1112basic_stringIcSt11char_traitsIcESaIcEEEP8gzFile_sEE6_M_ptrEv # -- Begin function _ZNK9__gnu_cxx16__aligned_membufISt4pairIKNSt7__cxx1112basic_stringIcSt11char_traitsIcESaIcEEEP8gzFile_sEE6_M_ptrEv
	.p2align	4, 0x90
	.type	_ZNK9__gnu_cxx16__aligned_membufISt4pairIKNSt7__cxx1112basic_stringIcSt11char_traitsIcESaIcEEEP8gzFile_sEE6_M_ptrEv,@function
_ZNK9__gnu_cxx16__aligned_membufISt4pairIKNSt7__cxx1112basic_stringIcSt11char_traitsIcESaIcEEEP8gzFile_sEE6_M_ptrEv: # @_ZNK9__gnu_cxx16__aligned_membufISt4pairIKNSt7__cxx1112basic_stringIcSt11char_traitsIcESaIcEEEP8gzFile_sEE6_M_ptrEv
.Lfunc_begin83:
	.cfi_startproc
# %bb.0:
	jmp	_ZNK9__gnu_cxx16__aligned_membufISt4pairIKNSt7__cxx1112basic_stringIcSt11char_traitsIcESaIcEEEP8gzFile_sEE7_M_addrEv # TAILCALL
.Lfunc_end83:
	.size	_ZNK9__gnu_cxx16__aligned_membufISt4pairIKNSt7__cxx1112basic_stringIcSt11char_traitsIcESaIcEEEP8gzFile_sEE6_M_ptrEv, .Lfunc_end83-_ZNK9__gnu_cxx16__aligned_membufISt4pairIKNSt7__cxx1112basic_stringIcSt11char_traitsIcESaIcEEEP8gzFile_sEE6_M_ptrEv
	.cfi_endproc
                                        # -- End function
	.section	.text._ZNK9__gnu_cxx16__aligned_membufISt4pairIKNSt7__cxx1112basic_stringIcSt11char_traitsIcESaIcEEEP8gzFile_sEE7_M_addrEv,"axG",@progbits,_ZNK9__gnu_cxx16__aligned_membufISt4pairIKNSt7__cxx1112basic_stringIcSt11char_traitsIcESaIcEEEP8gzFile_sEE7_M_addrEv,comdat
	.weak	_ZNK9__gnu_cxx16__aligned_membufISt4pairIKNSt7__cxx1112basic_stringIcSt11char_traitsIcESaIcEEEP8gzFile_sEE7_M_addrEv # -- Begin function _ZNK9__gnu_cxx16__aligned_membufISt4pairIKNSt7__cxx1112basic_stringIcSt11char_traitsIcESaIcEEEP8gzFile_sEE7_M_addrEv
	.p2align	4, 0x90
	.type	_ZNK9__gnu_cxx16__aligned_membufISt4pairIKNSt7__cxx1112basic_stringIcSt11char_traitsIcESaIcEEEP8gzFile_sEE7_M_addrEv,@function
_ZNK9__gnu_cxx16__aligned_membufISt4pairIKNSt7__cxx1112basic_stringIcSt11char_traitsIcESaIcEEEP8gzFile_sEE7_M_addrEv: # @_ZNK9__gnu_cxx16__aligned_membufISt4pairIKNSt7__cxx1112basic_stringIcSt11char_traitsIcESaIcEEEP8gzFile_sEE7_M_addrEv
.Lfunc_begin84:
	.cfi_startproc
# %bb.0:
	movq	%rdi, %rax
	retq
.Lfunc_end84:
	.size	_ZNK9__gnu_cxx16__aligned_membufISt4pairIKNSt7__cxx1112basic_stringIcSt11char_traitsIcESaIcEEEP8gzFile_sEE7_M_addrEv, .Lfunc_end84-_ZNK9__gnu_cxx16__aligned_membufISt4pairIKNSt7__cxx1112basic_stringIcSt11char_traitsIcESaIcEEEP8gzFile_sEE7_M_addrEv
	.cfi_endproc
                                        # -- End function
	.section	.text._ZNSt8_Rb_treeINSt7__cxx1112basic_stringIcSt11char_traitsIcESaIcEEESt4pairIKS5_P8gzFile_sESt10_Select1stISA_ESt4lessIS5_ESaISA_EE11_M_get_nodeEv,"axG",@progbits,_ZNSt8_Rb_treeINSt7__cxx1112basic_stringIcSt11char_traitsIcESaIcEEESt4pairIKS5_P8gzFile_sESt10_Select1stISA_ESt4lessIS5_ESaISA_EE11_M_get_nodeEv,comdat
	.weak	_ZNSt8_Rb_treeINSt7__cxx1112basic_stringIcSt11char_traitsIcESaIcEEESt4pairIKS5_P8gzFile_sESt10_Select1stISA_ESt4lessIS5_ESaISA_EE11_M_get_nodeEv # -- Begin function _ZNSt8_Rb_treeINSt7__cxx1112basic_stringIcSt11char_traitsIcESaIcEEESt4pairIKS5_P8gzFile_sESt10_Select1stISA_ESt4lessIS5_ESaISA_EE11_M_get_nodeEv
	.p2align	4, 0x90
	.type	_ZNSt8_Rb_treeINSt7__cxx1112basic_stringIcSt11char_traitsIcESaIcEEESt4pairIKS5_P8gzFile_sESt10_Select1stISA_ESt4lessIS5_ESaISA_EE11_M_get_nodeEv,@function
_ZNSt8_Rb_treeINSt7__cxx1112basic_stringIcSt11char_traitsIcESaIcEEESt4pairIKS5_P8gzFile_sESt10_Select1stISA_ESt4lessIS5_ESaISA_EE11_M_get_nodeEv: # @_ZNSt8_Rb_treeINSt7__cxx1112basic_stringIcSt11char_traitsIcESaIcEEESt4pairIKS5_P8gzFile_sESt10_Select1stISA_ESt4lessIS5_ESaISA_EE11_M_get_nodeEv
.Lfunc_begin85:
	.cfi_startproc
# %bb.0:
	pushq	%rax
	.cfi_def_cfa_offset 16
	callq	_ZNSt8_Rb_treeINSt7__cxx1112basic_stringIcSt11char_traitsIcESaIcEEESt4pairIKS5_P8gzFile_sESt10_Select1stISA_ESt4lessIS5_ESaISA_EE21_M_get_Node_allocatorEv
	movl	$1, %esi
	movq	%rax, %rdi
	popq	%rax
	jmp	_ZNSt16allocator_traitsISaISt13_Rb_tree_nodeISt4pairIKNSt7__cxx1112basic_stringIcSt11char_traitsIcESaIcEEEP8gzFile_sEEEE8allocateERSD_m # TAILCALL
.Lfunc_end85:
	.size	_ZNSt8_Rb_treeINSt7__cxx1112basic_stringIcSt11char_traitsIcESaIcEEESt4pairIKS5_P8gzFile_sESt10_Select1stISA_ESt4lessIS5_ESaISA_EE11_M_get_nodeEv, .Lfunc_end85-_ZNSt8_Rb_treeINSt7__cxx1112basic_stringIcSt11char_traitsIcESaIcEEESt4pairIKS5_P8gzFile_sESt10_Select1stISA_ESt4lessIS5_ESaISA_EE11_M_get_nodeEv
	.cfi_endproc
                                        # -- End function
	.section	.text._ZNSt8_Rb_treeINSt7__cxx1112basic_stringIcSt11char_traitsIcESaIcEEESt4pairIKS5_P8gzFile_sESt10_Select1stISA_ESt4lessIS5_ESaISA_EE17_M_construct_nodeIJRKSt21piecewise_construct_tSt5tupleIJRS7_EESL_IJEEEEEvPSt13_Rb_tree_nodeISA_EDpOT_,"axG",@progbits,_ZNSt8_Rb_treeINSt7__cxx1112basic_stringIcSt11char_traitsIcESaIcEEESt4pairIKS5_P8gzFile_sESt10_Select1stISA_ESt4lessIS5_ESaISA_EE17_M_construct_nodeIJRKSt21piecewise_construct_tSt5tupleIJRS7_EESL_IJEEEEEvPSt13_Rb_tree_nodeISA_EDpOT_,comdat
	.weak	_ZNSt8_Rb_treeINSt7__cxx1112basic_stringIcSt11char_traitsIcESaIcEEESt4pairIKS5_P8gzFile_sESt10_Select1stISA_ESt4lessIS5_ESaISA_EE17_M_construct_nodeIJRKSt21piecewise_construct_tSt5tupleIJRS7_EESL_IJEEEEEvPSt13_Rb_tree_nodeISA_EDpOT_ # -- Begin function _ZNSt8_Rb_treeINSt7__cxx1112basic_stringIcSt11char_traitsIcESaIcEEESt4pairIKS5_P8gzFile_sESt10_Select1stISA_ESt4lessIS5_ESaISA_EE17_M_construct_nodeIJRKSt21piecewise_construct_tSt5tupleIJRS7_EESL_IJEEEEEvPSt13_Rb_tree_nodeISA_EDpOT_
	.p2align	4, 0x90
	.type	_ZNSt8_Rb_treeINSt7__cxx1112basic_stringIcSt11char_traitsIcESaIcEEESt4pairIKS5_P8gzFile_sESt10_Select1stISA_ESt4lessIS5_ESaISA_EE17_M_construct_nodeIJRKSt21piecewise_construct_tSt5tupleIJRS7_EESL_IJEEEEEvPSt13_Rb_tree_nodeISA_EDpOT_,@function
_ZNSt8_Rb_treeINSt7__cxx1112basic_stringIcSt11char_traitsIcESaIcEEESt4pairIKS5_P8gzFile_sESt10_Select1stISA_ESt4lessIS5_ESaISA_EE17_M_construct_nodeIJRKSt21piecewise_construct_tSt5tupleIJRS7_EESL_IJEEEEEvPSt13_Rb_tree_nodeISA_EDpOT_: # @_ZNSt8_Rb_treeINSt7__cxx1112basic_stringIcSt11char_traitsIcESaIcEEESt4pairIKS5_P8gzFile_sESt10_Select1stISA_ESt4lessIS5_ESaISA_EE17_M_construct_nodeIJRKSt21piecewise_construct_tSt5tupleIJRS7_EESL_IJEEEEEvPSt13_Rb_tree_nodeISA_EDpOT_
.Lfunc_begin86:
	.cfi_startproc
	.cfi_personality 3, __gxx_personality_v0
	.cfi_lsda 3, .Lexception7
# %bb.0:
	pushq	%rbp
	.cfi_def_cfa_offset 16
	pushq	%r15
	.cfi_def_cfa_offset 24
	pushq	%r14
	.cfi_def_cfa_offset 32
	pushq	%r13
	.cfi_def_cfa_offset 40
	pushq	%r12
	.cfi_def_cfa_offset 48
	pushq	%rbx
	.cfi_def_cfa_offset 56
	subq	$24, %rsp
	.cfi_def_cfa_offset 80
	.cfi_offset %rbx, -56
	.cfi_offset %r12, -48
	.cfi_offset %r13, -40
	.cfi_offset %r14, -32
	.cfi_offset %r15, -24
	.cfi_offset %rbp, -16
	movq	%r8, %r12
	movq	%rcx, %r13
	movq	%rdx, %rbx
	movq	%rsi, %rbp
	movq	%rdi, 8(%rsp)           # 8-byte Spill
	callq	_ZNSt8_Rb_treeINSt7__cxx1112basic_stringIcSt11char_traitsIcESaIcEEESt4pairIKS5_P8gzFile_sESt10_Select1stISA_ESt4lessIS5_ESaISA_EE21_M_get_Node_allocatorEv
	movq	%rax, %r15
	movq	%rbp, 16(%rsp)          # 8-byte Spill
	movq	%rbp, %rdi
	callq	_ZNSt13_Rb_tree_nodeISt4pairIKNSt7__cxx1112basic_stringIcSt11char_traitsIcESaIcEEEP8gzFile_sEE9_M_valptrEv
	movq	%rax, %r14
	movq	%rbx, %rdi
	callq	_ZSt7forwardIRKSt21piecewise_construct_tEOT_RNSt16remove_referenceIS3_E4typeE
	movq	%rax, %rbx
	movq	%r13, %rdi
	callq	_ZSt7forwardISt5tupleIJRKNSt7__cxx1112basic_stringIcSt11char_traitsIcESaIcEEEEEEOT_RNSt16remove_referenceISA_E4typeE
	movq	%rax, %rbp
	movq	%r12, %rdi
	callq	_ZSt7forwardISt5tupleIJEEEOT_RNSt16remove_referenceIS2_E4typeE
.Ltmp76:
	movq	%r15, %rdi
	movq	%r14, %rsi
	movq	%rbx, %rdx
	movq	%rbp, %rcx
	movq	%rax, %r8
	callq	_ZNSt16allocator_traitsISaISt13_Rb_tree_nodeISt4pairIKNSt7__cxx1112basic_stringIcSt11char_traitsIcESaIcEEEP8gzFile_sEEEE9constructISB_JRKSt21piecewise_construct_tSt5tupleIJRS8_EESJ_IJEEEEEvRSD_PT_DpOT0_
.Ltmp77:
# %bb.1:
	addq	$24, %rsp
	popq	%rbx
	popq	%r12
	popq	%r13
	popq	%r14
	popq	%r15
	popq	%rbp
	retq
.LBB86_5:
.Ltmp78:
	movq	%rax, %rdi
	callq	__cxa_begin_catch
	movq	8(%rsp), %rdi           # 8-byte Reload
	movq	16(%rsp), %rsi          # 8-byte Reload
	callq	_ZNSt8_Rb_treeINSt7__cxx1112basic_stringIcSt11char_traitsIcESaIcEEESt4pairIKS5_P8gzFile_sESt10_Select1stISA_ESt4lessIS5_ESaISA_EE11_M_put_nodeEPSt13_Rb_tree_nodeISA_E
.Ltmp79:
	callq	__cxa_rethrow
.Ltmp80:
# %bb.6:
.LBB86_2:
.Ltmp81:
	movq	%rax, %rbx
.Ltmp82:
	callq	__cxa_end_catch
.Ltmp83:
# %bb.3:
	movq	%rbx, %rdi
	callq	_Unwind_Resume
.LBB86_4:
.Ltmp84:
	movq	%rax, %rdi
	callq	__clang_call_terminate
.Lfunc_end86:
	.size	_ZNSt8_Rb_treeINSt7__cxx1112basic_stringIcSt11char_traitsIcESaIcEEESt4pairIKS5_P8gzFile_sESt10_Select1stISA_ESt4lessIS5_ESaISA_EE17_M_construct_nodeIJRKSt21piecewise_construct_tSt5tupleIJRS7_EESL_IJEEEEEvPSt13_Rb_tree_nodeISA_EDpOT_, .Lfunc_end86-_ZNSt8_Rb_treeINSt7__cxx1112basic_stringIcSt11char_traitsIcESaIcEEESt4pairIKS5_P8gzFile_sESt10_Select1stISA_ESt4lessIS5_ESaISA_EE17_M_construct_nodeIJRKSt21piecewise_construct_tSt5tupleIJRS7_EESL_IJEEEEEvPSt13_Rb_tree_nodeISA_EDpOT_
	.cfi_endproc
	.section	.gcc_except_table,"a",@progbits
	.p2align	2
GCC_except_table86:
.Lexception7:
	.byte	255                     # @LPStart Encoding = omit
	.byte	3                       # @TType Encoding = udata4
	.byte	73                      # @TType base offset
	.byte	3                       # Call site Encoding = udata4
	.byte	65                      # Call site table length
	.long	.Ltmp76-.Lfunc_begin86  # >> Call Site 1 <<
	.long	.Ltmp77-.Ltmp76         #   Call between .Ltmp76 and .Ltmp77
	.long	.Ltmp78-.Lfunc_begin86  #     jumps to .Ltmp78
	.byte	1                       #   On action: 1
	.long	.Ltmp77-.Lfunc_begin86  # >> Call Site 2 <<
	.long	.Ltmp79-.Ltmp77         #   Call between .Ltmp77 and .Ltmp79
	.long	0                       #     has no landing pad
	.byte	0                       #   On action: cleanup
	.long	.Ltmp79-.Lfunc_begin86  # >> Call Site 3 <<
	.long	.Ltmp80-.Ltmp79         #   Call between .Ltmp79 and .Ltmp80
	.long	.Ltmp81-.Lfunc_begin86  #     jumps to .Ltmp81
	.byte	0                       #   On action: cleanup
	.long	.Ltmp82-.Lfunc_begin86  # >> Call Site 4 <<
	.long	.Ltmp83-.Ltmp82         #   Call between .Ltmp82 and .Ltmp83
	.long	.Ltmp84-.Lfunc_begin86  #     jumps to .Ltmp84
	.byte	1                       #   On action: 1
	.long	.Ltmp83-.Lfunc_begin86  # >> Call Site 5 <<
	.long	.Lfunc_end86-.Ltmp83    #   Call between .Ltmp83 and .Lfunc_end86
	.long	0                       #     has no landing pad
	.byte	0                       #   On action: cleanup
	.byte	1                       # >> Action Record 1 <<
                                        #   Catch TypeInfo 1
	.byte	0                       #   No further actions
                                        # >> Catch TypeInfos <<
	.long	0                       # TypeInfo 1
	.p2align	2
                                        # -- End function
	.section	.text._ZNSt16allocator_traitsISaISt13_Rb_tree_nodeISt4pairIKNSt7__cxx1112basic_stringIcSt11char_traitsIcESaIcEEEP8gzFile_sEEEE9constructISB_JRKSt21piecewise_construct_tSt5tupleIJRS8_EESJ_IJEEEEEvRSD_PT_DpOT0_,"axG",@progbits,_ZNSt16allocator_traitsISaISt13_Rb_tree_nodeISt4pairIKNSt7__cxx1112basic_stringIcSt11char_traitsIcESaIcEEEP8gzFile_sEEEE9constructISB_JRKSt21piecewise_construct_tSt5tupleIJRS8_EESJ_IJEEEEEvRSD_PT_DpOT0_,comdat
	.weak	_ZNSt16allocator_traitsISaISt13_Rb_tree_nodeISt4pairIKNSt7__cxx1112basic_stringIcSt11char_traitsIcESaIcEEEP8gzFile_sEEEE9constructISB_JRKSt21piecewise_construct_tSt5tupleIJRS8_EESJ_IJEEEEEvRSD_PT_DpOT0_ # -- Begin function _ZNSt16allocator_traitsISaISt13_Rb_tree_nodeISt4pairIKNSt7__cxx1112basic_stringIcSt11char_traitsIcESaIcEEEP8gzFile_sEEEE9constructISB_JRKSt21piecewise_construct_tSt5tupleIJRS8_EESJ_IJEEEEEvRSD_PT_DpOT0_
	.p2align	4, 0x90
	.type	_ZNSt16allocator_traitsISaISt13_Rb_tree_nodeISt4pairIKNSt7__cxx1112basic_stringIcSt11char_traitsIcESaIcEEEP8gzFile_sEEEE9constructISB_JRKSt21piecewise_construct_tSt5tupleIJRS8_EESJ_IJEEEEEvRSD_PT_DpOT0_,@function
_ZNSt16allocator_traitsISaISt13_Rb_tree_nodeISt4pairIKNSt7__cxx1112basic_stringIcSt11char_traitsIcESaIcEEEP8gzFile_sEEEE9constructISB_JRKSt21piecewise_construct_tSt5tupleIJRS8_EESJ_IJEEEEEvRSD_PT_DpOT0_: # @_ZNSt16allocator_traitsISaISt13_Rb_tree_nodeISt4pairIKNSt7__cxx1112basic_stringIcSt11char_traitsIcESaIcEEEP8gzFile_sEEEE9constructISB_JRKSt21piecewise_construct_tSt5tupleIJRS8_EESJ_IJEEEEEvRSD_PT_DpOT0_
.Lfunc_begin87:
	.cfi_startproc
# %bb.0:
	pushq	%r15
	.cfi_def_cfa_offset 16
	pushq	%r14
	.cfi_def_cfa_offset 24
	pushq	%r13
	.cfi_def_cfa_offset 32
	pushq	%r12
	.cfi_def_cfa_offset 40
	pushq	%rbx
	.cfi_def_cfa_offset 48
	.cfi_offset %rbx, -48
	.cfi_offset %r12, -40
	.cfi_offset %r13, -32
	.cfi_offset %r14, -24
	.cfi_offset %r15, -16
	movq	%r8, %r14
	movq	%rcx, %rbx
	movq	%rsi, %r15
	movq	%rdi, %r12
	movq	%rdx, %rdi
	callq	_ZSt7forwardIRKSt21piecewise_construct_tEOT_RNSt16remove_referenceIS3_E4typeE
	movq	%rax, %r13
	movq	%rbx, %rdi
	callq	_ZSt7forwardISt5tupleIJRKNSt7__cxx1112basic_stringIcSt11char_traitsIcESaIcEEEEEEOT_RNSt16remove_referenceISA_E4typeE
	movq	%rax, %rbx
	movq	%r14, %rdi
	callq	_ZSt7forwardISt5tupleIJEEEOT_RNSt16remove_referenceIS2_E4typeE
	movq	%r12, %rdi
	movq	%r15, %rsi
	movq	%r13, %rdx
	movq	%rbx, %rcx
	movq	%rax, %r8
	popq	%rbx
	popq	%r12
	popq	%r13
	popq	%r14
	popq	%r15
	jmp	_ZN9__gnu_cxx13new_allocatorISt13_Rb_tree_nodeISt4pairIKNSt7__cxx1112basic_stringIcSt11char_traitsIcESaIcEEEP8gzFile_sEEE9constructISC_JRKSt21piecewise_construct_tSt5tupleIJRS9_EESJ_IJEEEEEvPT_DpOT0_ # TAILCALL
.Lfunc_end87:
	.size	_ZNSt16allocator_traitsISaISt13_Rb_tree_nodeISt4pairIKNSt7__cxx1112basic_stringIcSt11char_traitsIcESaIcEEEP8gzFile_sEEEE9constructISB_JRKSt21piecewise_construct_tSt5tupleIJRS8_EESJ_IJEEEEEvRSD_PT_DpOT0_, .Lfunc_end87-_ZNSt16allocator_traitsISaISt13_Rb_tree_nodeISt4pairIKNSt7__cxx1112basic_stringIcSt11char_traitsIcESaIcEEEP8gzFile_sEEEE9constructISB_JRKSt21piecewise_construct_tSt5tupleIJRS8_EESJ_IJEEEEEvRSD_PT_DpOT0_
	.cfi_endproc
                                        # -- End function
	.section	.text._ZN9__gnu_cxx13new_allocatorISt13_Rb_tree_nodeISt4pairIKNSt7__cxx1112basic_stringIcSt11char_traitsIcESaIcEEEP8gzFile_sEEE9constructISC_JRKSt21piecewise_construct_tSt5tupleIJRS9_EESJ_IJEEEEEvPT_DpOT0_,"axG",@progbits,_ZN9__gnu_cxx13new_allocatorISt13_Rb_tree_nodeISt4pairIKNSt7__cxx1112basic_stringIcSt11char_traitsIcESaIcEEEP8gzFile_sEEE9constructISC_JRKSt21piecewise_construct_tSt5tupleIJRS9_EESJ_IJEEEEEvPT_DpOT0_,comdat
	.weak	_ZN9__gnu_cxx13new_allocatorISt13_Rb_tree_nodeISt4pairIKNSt7__cxx1112basic_stringIcSt11char_traitsIcESaIcEEEP8gzFile_sEEE9constructISC_JRKSt21piecewise_construct_tSt5tupleIJRS9_EESJ_IJEEEEEvPT_DpOT0_ # -- Begin function _ZN9__gnu_cxx13new_allocatorISt13_Rb_tree_nodeISt4pairIKNSt7__cxx1112basic_stringIcSt11char_traitsIcESaIcEEEP8gzFile_sEEE9constructISC_JRKSt21piecewise_construct_tSt5tupleIJRS9_EESJ_IJEEEEEvPT_DpOT0_
	.p2align	4, 0x90
	.type	_ZN9__gnu_cxx13new_allocatorISt13_Rb_tree_nodeISt4pairIKNSt7__cxx1112basic_stringIcSt11char_traitsIcESaIcEEEP8gzFile_sEEE9constructISC_JRKSt21piecewise_construct_tSt5tupleIJRS9_EESJ_IJEEEEEvPT_DpOT0_,@function
_ZN9__gnu_cxx13new_allocatorISt13_Rb_tree_nodeISt4pairIKNSt7__cxx1112basic_stringIcSt11char_traitsIcESaIcEEEP8gzFile_sEEE9constructISC_JRKSt21piecewise_construct_tSt5tupleIJRS9_EESJ_IJEEEEEvPT_DpOT0_: # @_ZN9__gnu_cxx13new_allocatorISt13_Rb_tree_nodeISt4pairIKNSt7__cxx1112basic_stringIcSt11char_traitsIcESaIcEEEP8gzFile_sEEE9constructISC_JRKSt21piecewise_construct_tSt5tupleIJRS9_EESJ_IJEEEEEvPT_DpOT0_
.Lfunc_begin88:
	.cfi_startproc
# %bb.0:
	pushq	%r15
	.cfi_def_cfa_offset 16
	pushq	%r14
	.cfi_def_cfa_offset 24
	pushq	%rbx
	.cfi_def_cfa_offset 32
	subq	$16, %rsp
	.cfi_def_cfa_offset 48
	.cfi_offset %rbx, -32
	.cfi_offset %r14, -24
	.cfi_offset %r15, -16
	movq	%r8, %r14
	movq	%rcx, %rbx
	movq	%rsi, %r15
	movq	%rdx, %rdi
	callq	_ZSt7forwardIRKSt21piecewise_construct_tEOT_RNSt16remove_referenceIS3_E4typeE
	movq	%rbx, %rdi
	callq	_ZSt7forwardISt5tupleIJRKNSt7__cxx1112basic_stringIcSt11char_traitsIcESaIcEEEEEEOT_RNSt16remove_referenceISA_E4typeE
	leaq	8(%rsp), %rbx
	movq	%rbx, %rdi
	movq	%rax, %rsi
	callq	_ZNSt5tupleIJRKNSt7__cxx1112basic_stringIcSt11char_traitsIcESaIcEEEEEC2EOS8_
	movq	%r14, %rdi
	callq	_ZSt7forwardISt5tupleIJEEEOT_RNSt16remove_referenceIS2_E4typeE
	movq	%r15, %rdi
	movq	%rbx, %rsi
	callq	_ZNSt4pairIKNSt7__cxx1112basic_stringIcSt11char_traitsIcESaIcEEEP8gzFile_sEC2IJRS6_EJEEESt21piecewise_construct_tSt5tupleIJDpT_EESD_IJDpT0_EE
	addq	$16, %rsp
	popq	%rbx
	popq	%r14
	popq	%r15
	retq
.Lfunc_end88:
	.size	_ZN9__gnu_cxx13new_allocatorISt13_Rb_tree_nodeISt4pairIKNSt7__cxx1112basic_stringIcSt11char_traitsIcESaIcEEEP8gzFile_sEEE9constructISC_JRKSt21piecewise_construct_tSt5tupleIJRS9_EESJ_IJEEEEEvPT_DpOT0_, .Lfunc_end88-_ZN9__gnu_cxx13new_allocatorISt13_Rb_tree_nodeISt4pairIKNSt7__cxx1112basic_stringIcSt11char_traitsIcESaIcEEEP8gzFile_sEEE9constructISC_JRKSt21piecewise_construct_tSt5tupleIJRS9_EESJ_IJEEEEEvPT_DpOT0_
	.cfi_endproc
                                        # -- End function
	.section	.text._ZNSt5tupleIJRKNSt7__cxx1112basic_stringIcSt11char_traitsIcESaIcEEEEEC2EOS8_,"axG",@progbits,_ZNSt5tupleIJRKNSt7__cxx1112basic_stringIcSt11char_traitsIcESaIcEEEEEC2EOS8_,comdat
	.weak	_ZNSt5tupleIJRKNSt7__cxx1112basic_stringIcSt11char_traitsIcESaIcEEEEEC2EOS8_ # -- Begin function _ZNSt5tupleIJRKNSt7__cxx1112basic_stringIcSt11char_traitsIcESaIcEEEEEC2EOS8_
	.p2align	4, 0x90
	.type	_ZNSt5tupleIJRKNSt7__cxx1112basic_stringIcSt11char_traitsIcESaIcEEEEEC2EOS8_,@function
_ZNSt5tupleIJRKNSt7__cxx1112basic_stringIcSt11char_traitsIcESaIcEEEEEC2EOS8_: # @_ZNSt5tupleIJRKNSt7__cxx1112basic_stringIcSt11char_traitsIcESaIcEEEEEC2EOS8_
.Lfunc_begin89:
	.cfi_startproc
# %bb.0:
	jmp	_ZNSt11_Tuple_implILm0EJRKNSt7__cxx1112basic_stringIcSt11char_traitsIcESaIcEEEEEC2EOS8_ # TAILCALL
.Lfunc_end89:
	.size	_ZNSt5tupleIJRKNSt7__cxx1112basic_stringIcSt11char_traitsIcESaIcEEEEEC2EOS8_, .Lfunc_end89-_ZNSt5tupleIJRKNSt7__cxx1112basic_stringIcSt11char_traitsIcESaIcEEEEEC2EOS8_
	.cfi_endproc
                                        # -- End function
	.section	.text._ZNSt4pairIKNSt7__cxx1112basic_stringIcSt11char_traitsIcESaIcEEEP8gzFile_sEC2IJRS6_EJEEESt21piecewise_construct_tSt5tupleIJDpT_EESD_IJDpT0_EE,"axG",@progbits,_ZNSt4pairIKNSt7__cxx1112basic_stringIcSt11char_traitsIcESaIcEEEP8gzFile_sEC2IJRS6_EJEEESt21piecewise_construct_tSt5tupleIJDpT_EESD_IJDpT0_EE,comdat
	.weak	_ZNSt4pairIKNSt7__cxx1112basic_stringIcSt11char_traitsIcESaIcEEEP8gzFile_sEC2IJRS6_EJEEESt21piecewise_construct_tSt5tupleIJDpT_EESD_IJDpT0_EE # -- Begin function _ZNSt4pairIKNSt7__cxx1112basic_stringIcSt11char_traitsIcESaIcEEEP8gzFile_sEC2IJRS6_EJEEESt21piecewise_construct_tSt5tupleIJDpT_EESD_IJDpT0_EE
	.p2align	4, 0x90
	.type	_ZNSt4pairIKNSt7__cxx1112basic_stringIcSt11char_traitsIcESaIcEEEP8gzFile_sEC2IJRS6_EJEEESt21piecewise_construct_tSt5tupleIJDpT_EESD_IJDpT0_EE,@function
_ZNSt4pairIKNSt7__cxx1112basic_stringIcSt11char_traitsIcESaIcEEEP8gzFile_sEC2IJRS6_EJEEESt21piecewise_construct_tSt5tupleIJDpT_EESD_IJDpT0_EE: # @_ZNSt4pairIKNSt7__cxx1112basic_stringIcSt11char_traitsIcESaIcEEEP8gzFile_sEC2IJRS6_EJEEESt21piecewise_construct_tSt5tupleIJDpT_EESD_IJDpT0_EE
.Lfunc_begin90:
	.cfi_startproc
# %bb.0:
	pushq	%rax
	.cfi_def_cfa_offset 16
	movq	%rsp, %rdx
	callq	_ZNSt4pairIKNSt7__cxx1112basic_stringIcSt11char_traitsIcESaIcEEEP8gzFile_sEC2IJRS6_EJLm0EEJEJEEERSt5tupleIJDpT_EERSC_IJDpT1_EESt12_Index_tupleIJXspT0_EEESL_IJXspT2_EEE
	popq	%rax
	retq
.Lfunc_end90:
	.size	_ZNSt4pairIKNSt7__cxx1112basic_stringIcSt11char_traitsIcESaIcEEEP8gzFile_sEC2IJRS6_EJEEESt21piecewise_construct_tSt5tupleIJDpT_EESD_IJDpT0_EE, .Lfunc_end90-_ZNSt4pairIKNSt7__cxx1112basic_stringIcSt11char_traitsIcESaIcEEEP8gzFile_sEC2IJRS6_EJEEESt21piecewise_construct_tSt5tupleIJDpT_EESD_IJDpT0_EE
	.cfi_endproc
                                        # -- End function
	.section	.text._ZNSt4pairIKNSt7__cxx1112basic_stringIcSt11char_traitsIcESaIcEEEP8gzFile_sEC2IJRS6_EJLm0EEJEJEEERSt5tupleIJDpT_EERSC_IJDpT1_EESt12_Index_tupleIJXspT0_EEESL_IJXspT2_EEE,"axG",@progbits,_ZNSt4pairIKNSt7__cxx1112basic_stringIcSt11char_traitsIcESaIcEEEP8gzFile_sEC2IJRS6_EJLm0EEJEJEEERSt5tupleIJDpT_EERSC_IJDpT1_EESt12_Index_tupleIJXspT0_EEESL_IJXspT2_EEE,comdat
	.weak	_ZNSt4pairIKNSt7__cxx1112basic_stringIcSt11char_traitsIcESaIcEEEP8gzFile_sEC2IJRS6_EJLm0EEJEJEEERSt5tupleIJDpT_EERSC_IJDpT1_EESt12_Index_tupleIJXspT0_EEESL_IJXspT2_EEE # -- Begin function _ZNSt4pairIKNSt7__cxx1112basic_stringIcSt11char_traitsIcESaIcEEEP8gzFile_sEC2IJRS6_EJLm0EEJEJEEERSt5tupleIJDpT_EERSC_IJDpT1_EESt12_Index_tupleIJXspT0_EEESL_IJXspT2_EEE
	.p2align	4, 0x90
	.type	_ZNSt4pairIKNSt7__cxx1112basic_stringIcSt11char_traitsIcESaIcEEEP8gzFile_sEC2IJRS6_EJLm0EEJEJEEERSt5tupleIJDpT_EERSC_IJDpT1_EESt12_Index_tupleIJXspT0_EEESL_IJXspT2_EEE,@function
_ZNSt4pairIKNSt7__cxx1112basic_stringIcSt11char_traitsIcESaIcEEEP8gzFile_sEC2IJRS6_EJLm0EEJEJEEERSt5tupleIJDpT_EERSC_IJDpT1_EESt12_Index_tupleIJXspT0_EEESL_IJXspT2_EEE: # @_ZNSt4pairIKNSt7__cxx1112basic_stringIcSt11char_traitsIcESaIcEEEP8gzFile_sEC2IJRS6_EJLm0EEJEJEEERSt5tupleIJDpT_EERSC_IJDpT1_EESt12_Index_tupleIJXspT0_EEESL_IJXspT2_EEE
.Lfunc_begin91:
	.cfi_startproc
# %bb.0:
	pushq	%rbx
	.cfi_def_cfa_offset 16
	.cfi_offset %rbx, -16
	movq	%rdi, %rbx
	movq	%rsi, %rdi
	callq	_ZSt3getILm0EJRKNSt7__cxx1112basic_stringIcSt11char_traitsIcESaIcEEEEERNSt13tuple_elementIXT_ESt5tupleIJDpT0_EEE4typeERSC_
	movq	%rax, %rdi
	callq	_ZSt7forwardIRKNSt7__cxx1112basic_stringIcSt11char_traitsIcESaIcEEEEOT_RNSt16remove_referenceIS8_E4typeE
	movq	%rbx, %rdi
	movq	%rax, %rsi
	callq	_ZNSt7__cxx1112basic_stringIcSt11char_traitsIcESaIcEEC2ERKS4_
	movq	$0, 32(%rbx)
	popq	%rbx
	retq
.Lfunc_end91:
	.size	_ZNSt4pairIKNSt7__cxx1112basic_stringIcSt11char_traitsIcESaIcEEEP8gzFile_sEC2IJRS6_EJLm0EEJEJEEERSt5tupleIJDpT_EERSC_IJDpT1_EESt12_Index_tupleIJXspT0_EEESL_IJXspT2_EEE, .Lfunc_end91-_ZNSt4pairIKNSt7__cxx1112basic_stringIcSt11char_traitsIcESaIcEEEP8gzFile_sEC2IJRS6_EJLm0EEJEJEEERSt5tupleIJDpT_EERSC_IJDpT1_EESt12_Index_tupleIJXspT0_EEESL_IJXspT2_EEE
	.cfi_endproc
                                        # -- End function
	.section	.text._ZSt3getILm0EJRKNSt7__cxx1112basic_stringIcSt11char_traitsIcESaIcEEEEERNSt13tuple_elementIXT_ESt5tupleIJDpT0_EEE4typeERSC_,"axG",@progbits,_ZSt3getILm0EJRKNSt7__cxx1112basic_stringIcSt11char_traitsIcESaIcEEEEERNSt13tuple_elementIXT_ESt5tupleIJDpT0_EEE4typeERSC_,comdat
	.weak	_ZSt3getILm0EJRKNSt7__cxx1112basic_stringIcSt11char_traitsIcESaIcEEEEERNSt13tuple_elementIXT_ESt5tupleIJDpT0_EEE4typeERSC_ # -- Begin function _ZSt3getILm0EJRKNSt7__cxx1112basic_stringIcSt11char_traitsIcESaIcEEEEERNSt13tuple_elementIXT_ESt5tupleIJDpT0_EEE4typeERSC_
	.p2align	4, 0x90
	.type	_ZSt3getILm0EJRKNSt7__cxx1112basic_stringIcSt11char_traitsIcESaIcEEEEERNSt13tuple_elementIXT_ESt5tupleIJDpT0_EEE4typeERSC_,@function
_ZSt3getILm0EJRKNSt7__cxx1112basic_stringIcSt11char_traitsIcESaIcEEEEERNSt13tuple_elementIXT_ESt5tupleIJDpT0_EEE4typeERSC_: # @_ZSt3getILm0EJRKNSt7__cxx1112basic_stringIcSt11char_traitsIcESaIcEEEEERNSt13tuple_elementIXT_ESt5tupleIJDpT0_EEE4typeERSC_
.Lfunc_begin92:
	.cfi_startproc
# %bb.0:
	jmp	_ZSt12__get_helperILm0ERKNSt7__cxx1112basic_stringIcSt11char_traitsIcESaIcEEEJEERT0_RSt11_Tuple_implIXT_EJS8_DpT1_EE # TAILCALL
.Lfunc_end92:
	.size	_ZSt3getILm0EJRKNSt7__cxx1112basic_stringIcSt11char_traitsIcESaIcEEEEERNSt13tuple_elementIXT_ESt5tupleIJDpT0_EEE4typeERSC_, .Lfunc_end92-_ZSt3getILm0EJRKNSt7__cxx1112basic_stringIcSt11char_traitsIcESaIcEEEEERNSt13tuple_elementIXT_ESt5tupleIJDpT0_EEE4typeERSC_
	.cfi_endproc
                                        # -- End function
	.section	.text._ZSt7forwardIRKNSt7__cxx1112basic_stringIcSt11char_traitsIcESaIcEEEEOT_RNSt16remove_referenceIS8_E4typeE,"axG",@progbits,_ZSt7forwardIRKNSt7__cxx1112basic_stringIcSt11char_traitsIcESaIcEEEEOT_RNSt16remove_referenceIS8_E4typeE,comdat
	.weak	_ZSt7forwardIRKNSt7__cxx1112basic_stringIcSt11char_traitsIcESaIcEEEEOT_RNSt16remove_referenceIS8_E4typeE # -- Begin function _ZSt7forwardIRKNSt7__cxx1112basic_stringIcSt11char_traitsIcESaIcEEEEOT_RNSt16remove_referenceIS8_E4typeE
	.p2align	4, 0x90
	.type	_ZSt7forwardIRKNSt7__cxx1112basic_stringIcSt11char_traitsIcESaIcEEEEOT_RNSt16remove_referenceIS8_E4typeE,@function
_ZSt7forwardIRKNSt7__cxx1112basic_stringIcSt11char_traitsIcESaIcEEEEOT_RNSt16remove_referenceIS8_E4typeE: # @_ZSt7forwardIRKNSt7__cxx1112basic_stringIcSt11char_traitsIcESaIcEEEEOT_RNSt16remove_referenceIS8_E4typeE
.Lfunc_begin93:
	.cfi_startproc
# %bb.0:
	movq	%rdi, %rax
	retq
.Lfunc_end93:
	.size	_ZSt7forwardIRKNSt7__cxx1112basic_stringIcSt11char_traitsIcESaIcEEEEOT_RNSt16remove_referenceIS8_E4typeE, .Lfunc_end93-_ZSt7forwardIRKNSt7__cxx1112basic_stringIcSt11char_traitsIcESaIcEEEEOT_RNSt16remove_referenceIS8_E4typeE
	.cfi_endproc
                                        # -- End function
	.section	.text._ZSt12__get_helperILm0ERKNSt7__cxx1112basic_stringIcSt11char_traitsIcESaIcEEEJEERT0_RSt11_Tuple_implIXT_EJS8_DpT1_EE,"axG",@progbits,_ZSt12__get_helperILm0ERKNSt7__cxx1112basic_stringIcSt11char_traitsIcESaIcEEEJEERT0_RSt11_Tuple_implIXT_EJS8_DpT1_EE,comdat
	.weak	_ZSt12__get_helperILm0ERKNSt7__cxx1112basic_stringIcSt11char_traitsIcESaIcEEEJEERT0_RSt11_Tuple_implIXT_EJS8_DpT1_EE # -- Begin function _ZSt12__get_helperILm0ERKNSt7__cxx1112basic_stringIcSt11char_traitsIcESaIcEEEJEERT0_RSt11_Tuple_implIXT_EJS8_DpT1_EE
	.p2align	4, 0x90
	.type	_ZSt12__get_helperILm0ERKNSt7__cxx1112basic_stringIcSt11char_traitsIcESaIcEEEJEERT0_RSt11_Tuple_implIXT_EJS8_DpT1_EE,@function
_ZSt12__get_helperILm0ERKNSt7__cxx1112basic_stringIcSt11char_traitsIcESaIcEEEJEERT0_RSt11_Tuple_implIXT_EJS8_DpT1_EE: # @_ZSt12__get_helperILm0ERKNSt7__cxx1112basic_stringIcSt11char_traitsIcESaIcEEEJEERT0_RSt11_Tuple_implIXT_EJS8_DpT1_EE
.Lfunc_begin94:
	.cfi_startproc
# %bb.0:
	jmp	_ZNSt11_Tuple_implILm0EJRKNSt7__cxx1112basic_stringIcSt11char_traitsIcESaIcEEEEE7_M_headERS8_ # TAILCALL
.Lfunc_end94:
	.size	_ZSt12__get_helperILm0ERKNSt7__cxx1112basic_stringIcSt11char_traitsIcESaIcEEEJEERT0_RSt11_Tuple_implIXT_EJS8_DpT1_EE, .Lfunc_end94-_ZSt12__get_helperILm0ERKNSt7__cxx1112basic_stringIcSt11char_traitsIcESaIcEEEJEERT0_RSt11_Tuple_implIXT_EJS8_DpT1_EE
	.cfi_endproc
                                        # -- End function
	.section	.text._ZNSt11_Tuple_implILm0EJRKNSt7__cxx1112basic_stringIcSt11char_traitsIcESaIcEEEEE7_M_headERS8_,"axG",@progbits,_ZNSt11_Tuple_implILm0EJRKNSt7__cxx1112basic_stringIcSt11char_traitsIcESaIcEEEEE7_M_headERS8_,comdat
	.weak	_ZNSt11_Tuple_implILm0EJRKNSt7__cxx1112basic_stringIcSt11char_traitsIcESaIcEEEEE7_M_headERS8_ # -- Begin function _ZNSt11_Tuple_implILm0EJRKNSt7__cxx1112basic_stringIcSt11char_traitsIcESaIcEEEEE7_M_headERS8_
	.p2align	4, 0x90
	.type	_ZNSt11_Tuple_implILm0EJRKNSt7__cxx1112basic_stringIcSt11char_traitsIcESaIcEEEEE7_M_headERS8_,@function
_ZNSt11_Tuple_implILm0EJRKNSt7__cxx1112basic_stringIcSt11char_traitsIcESaIcEEEEE7_M_headERS8_: # @_ZNSt11_Tuple_implILm0EJRKNSt7__cxx1112basic_stringIcSt11char_traitsIcESaIcEEEEE7_M_headERS8_
.Lfunc_begin95:
	.cfi_startproc
# %bb.0:
	jmp	_ZNSt10_Head_baseILm0ERKNSt7__cxx1112basic_stringIcSt11char_traitsIcESaIcEEELb0EE7_M_headERS8_ # TAILCALL
.Lfunc_end95:
	.size	_ZNSt11_Tuple_implILm0EJRKNSt7__cxx1112basic_stringIcSt11char_traitsIcESaIcEEEEE7_M_headERS8_, .Lfunc_end95-_ZNSt11_Tuple_implILm0EJRKNSt7__cxx1112basic_stringIcSt11char_traitsIcESaIcEEEEE7_M_headERS8_
	.cfi_endproc
                                        # -- End function
	.section	.text._ZNSt10_Head_baseILm0ERKNSt7__cxx1112basic_stringIcSt11char_traitsIcESaIcEEELb0EE7_M_headERS8_,"axG",@progbits,_ZNSt10_Head_baseILm0ERKNSt7__cxx1112basic_stringIcSt11char_traitsIcESaIcEEELb0EE7_M_headERS8_,comdat
	.weak	_ZNSt10_Head_baseILm0ERKNSt7__cxx1112basic_stringIcSt11char_traitsIcESaIcEEELb0EE7_M_headERS8_ # -- Begin function _ZNSt10_Head_baseILm0ERKNSt7__cxx1112basic_stringIcSt11char_traitsIcESaIcEEELb0EE7_M_headERS8_
	.p2align	4, 0x90
	.type	_ZNSt10_Head_baseILm0ERKNSt7__cxx1112basic_stringIcSt11char_traitsIcESaIcEEELb0EE7_M_headERS8_,@function
_ZNSt10_Head_baseILm0ERKNSt7__cxx1112basic_stringIcSt11char_traitsIcESaIcEEELb0EE7_M_headERS8_: # @_ZNSt10_Head_baseILm0ERKNSt7__cxx1112basic_stringIcSt11char_traitsIcESaIcEEELb0EE7_M_headERS8_
.Lfunc_begin96:
	.cfi_startproc
# %bb.0:
	movq	(%rdi), %rax
	retq
.Lfunc_end96:
	.size	_ZNSt10_Head_baseILm0ERKNSt7__cxx1112basic_stringIcSt11char_traitsIcESaIcEEELb0EE7_M_headERS8_, .Lfunc_end96-_ZNSt10_Head_baseILm0ERKNSt7__cxx1112basic_stringIcSt11char_traitsIcESaIcEEELb0EE7_M_headERS8_
	.cfi_endproc
                                        # -- End function
	.section	.text._ZNSt11_Tuple_implILm0EJRKNSt7__cxx1112basic_stringIcSt11char_traitsIcESaIcEEEEEC2EOS8_,"axG",@progbits,_ZNSt11_Tuple_implILm0EJRKNSt7__cxx1112basic_stringIcSt11char_traitsIcESaIcEEEEEC2EOS8_,comdat
	.weak	_ZNSt11_Tuple_implILm0EJRKNSt7__cxx1112basic_stringIcSt11char_traitsIcESaIcEEEEEC2EOS8_ # -- Begin function _ZNSt11_Tuple_implILm0EJRKNSt7__cxx1112basic_stringIcSt11char_traitsIcESaIcEEEEEC2EOS8_
	.p2align	4, 0x90
	.type	_ZNSt11_Tuple_implILm0EJRKNSt7__cxx1112basic_stringIcSt11char_traitsIcESaIcEEEEEC2EOS8_,@function
_ZNSt11_Tuple_implILm0EJRKNSt7__cxx1112basic_stringIcSt11char_traitsIcESaIcEEEEEC2EOS8_: # @_ZNSt11_Tuple_implILm0EJRKNSt7__cxx1112basic_stringIcSt11char_traitsIcESaIcEEEEEC2EOS8_
.Lfunc_begin97:
	.cfi_startproc
# %bb.0:
	pushq	%rbx
	.cfi_def_cfa_offset 16
	.cfi_offset %rbx, -16
	movq	%rdi, %rbx
	movq	%rsi, %rdi
	callq	_ZNSt11_Tuple_implILm0EJRKNSt7__cxx1112basic_stringIcSt11char_traitsIcESaIcEEEEE7_M_headERS8_
	movq	%rax, %rdi
	callq	_ZSt7forwardIRKNSt7__cxx1112basic_stringIcSt11char_traitsIcESaIcEEEEOT_RNSt16remove_referenceIS8_E4typeE
	movq	%rbx, %rdi
	movq	%rax, %rsi
	popq	%rbx
	jmp	_ZNSt10_Head_baseILm0ERKNSt7__cxx1112basic_stringIcSt11char_traitsIcESaIcEEELb0EEC2ES7_ # TAILCALL
.Lfunc_end97:
	.size	_ZNSt11_Tuple_implILm0EJRKNSt7__cxx1112basic_stringIcSt11char_traitsIcESaIcEEEEEC2EOS8_, .Lfunc_end97-_ZNSt11_Tuple_implILm0EJRKNSt7__cxx1112basic_stringIcSt11char_traitsIcESaIcEEEEEC2EOS8_
	.cfi_endproc
                                        # -- End function
	.section	.text._ZNSt10_Head_baseILm0ERKNSt7__cxx1112basic_stringIcSt11char_traitsIcESaIcEEELb0EEC2ES7_,"axG",@progbits,_ZNSt10_Head_baseILm0ERKNSt7__cxx1112basic_stringIcSt11char_traitsIcESaIcEEELb0EEC2ES7_,comdat
	.weak	_ZNSt10_Head_baseILm0ERKNSt7__cxx1112basic_stringIcSt11char_traitsIcESaIcEEELb0EEC2ES7_ # -- Begin function _ZNSt10_Head_baseILm0ERKNSt7__cxx1112basic_stringIcSt11char_traitsIcESaIcEEELb0EEC2ES7_
	.p2align	4, 0x90
	.type	_ZNSt10_Head_baseILm0ERKNSt7__cxx1112basic_stringIcSt11char_traitsIcESaIcEEELb0EEC2ES7_,@function
_ZNSt10_Head_baseILm0ERKNSt7__cxx1112basic_stringIcSt11char_traitsIcESaIcEEELb0EEC2ES7_: # @_ZNSt10_Head_baseILm0ERKNSt7__cxx1112basic_stringIcSt11char_traitsIcESaIcEEELb0EEC2ES7_
.Lfunc_begin98:
	.cfi_startproc
# %bb.0:
	movq	%rsi, (%rdi)
	retq
.Lfunc_end98:
	.size	_ZNSt10_Head_baseILm0ERKNSt7__cxx1112basic_stringIcSt11char_traitsIcESaIcEEELb0EEC2ES7_, .Lfunc_end98-_ZNSt10_Head_baseILm0ERKNSt7__cxx1112basic_stringIcSt11char_traitsIcESaIcEEELb0EEC2ES7_
	.cfi_endproc
                                        # -- End function
	.section	.text._ZNSt16allocator_traitsISaISt13_Rb_tree_nodeISt4pairIKNSt7__cxx1112basic_stringIcSt11char_traitsIcESaIcEEEP8gzFile_sEEEE8allocateERSD_m,"axG",@progbits,_ZNSt16allocator_traitsISaISt13_Rb_tree_nodeISt4pairIKNSt7__cxx1112basic_stringIcSt11char_traitsIcESaIcEEEP8gzFile_sEEEE8allocateERSD_m,comdat
	.weak	_ZNSt16allocator_traitsISaISt13_Rb_tree_nodeISt4pairIKNSt7__cxx1112basic_stringIcSt11char_traitsIcESaIcEEEP8gzFile_sEEEE8allocateERSD_m # -- Begin function _ZNSt16allocator_traitsISaISt13_Rb_tree_nodeISt4pairIKNSt7__cxx1112basic_stringIcSt11char_traitsIcESaIcEEEP8gzFile_sEEEE8allocateERSD_m
	.p2align	4, 0x90
	.type	_ZNSt16allocator_traitsISaISt13_Rb_tree_nodeISt4pairIKNSt7__cxx1112basic_stringIcSt11char_traitsIcESaIcEEEP8gzFile_sEEEE8allocateERSD_m,@function
_ZNSt16allocator_traitsISaISt13_Rb_tree_nodeISt4pairIKNSt7__cxx1112basic_stringIcSt11char_traitsIcESaIcEEEP8gzFile_sEEEE8allocateERSD_m: # @_ZNSt16allocator_traitsISaISt13_Rb_tree_nodeISt4pairIKNSt7__cxx1112basic_stringIcSt11char_traitsIcESaIcEEEP8gzFile_sEEEE8allocateERSD_m
.Lfunc_begin99:
	.cfi_startproc
# %bb.0:
	xorl	%edx, %edx
	jmp	_ZN9__gnu_cxx13new_allocatorISt13_Rb_tree_nodeISt4pairIKNSt7__cxx1112basic_stringIcSt11char_traitsIcESaIcEEEP8gzFile_sEEE8allocateEmPKv # TAILCALL
.Lfunc_end99:
	.size	_ZNSt16allocator_traitsISaISt13_Rb_tree_nodeISt4pairIKNSt7__cxx1112basic_stringIcSt11char_traitsIcESaIcEEEP8gzFile_sEEEE8allocateERSD_m, .Lfunc_end99-_ZNSt16allocator_traitsISaISt13_Rb_tree_nodeISt4pairIKNSt7__cxx1112basic_stringIcSt11char_traitsIcESaIcEEEP8gzFile_sEEEE8allocateERSD_m
	.cfi_endproc
                                        # -- End function
	.section	.text._ZN9__gnu_cxx13new_allocatorISt13_Rb_tree_nodeISt4pairIKNSt7__cxx1112basic_stringIcSt11char_traitsIcESaIcEEEP8gzFile_sEEE8allocateEmPKv,"axG",@progbits,_ZN9__gnu_cxx13new_allocatorISt13_Rb_tree_nodeISt4pairIKNSt7__cxx1112basic_stringIcSt11char_traitsIcESaIcEEEP8gzFile_sEEE8allocateEmPKv,comdat
	.weak	_ZN9__gnu_cxx13new_allocatorISt13_Rb_tree_nodeISt4pairIKNSt7__cxx1112basic_stringIcSt11char_traitsIcESaIcEEEP8gzFile_sEEE8allocateEmPKv # -- Begin function _ZN9__gnu_cxx13new_allocatorISt13_Rb_tree_nodeISt4pairIKNSt7__cxx1112basic_stringIcSt11char_traitsIcESaIcEEEP8gzFile_sEEE8allocateEmPKv
	.p2align	4, 0x90
	.type	_ZN9__gnu_cxx13new_allocatorISt13_Rb_tree_nodeISt4pairIKNSt7__cxx1112basic_stringIcSt11char_traitsIcESaIcEEEP8gzFile_sEEE8allocateEmPKv,@function
_ZN9__gnu_cxx13new_allocatorISt13_Rb_tree_nodeISt4pairIKNSt7__cxx1112basic_stringIcSt11char_traitsIcESaIcEEEP8gzFile_sEEE8allocateEmPKv: # @_ZN9__gnu_cxx13new_allocatorISt13_Rb_tree_nodeISt4pairIKNSt7__cxx1112basic_stringIcSt11char_traitsIcESaIcEEEP8gzFile_sEEE8allocateEmPKv
.Lfunc_begin100:
	.cfi_startproc
# %bb.0:
	pushq	%rbx
	.cfi_def_cfa_offset 16
	.cfi_offset %rbx, -16
	movq	%rsi, %rbx
	callq	_ZNK9__gnu_cxx13new_allocatorISt13_Rb_tree_nodeISt4pairIKNSt7__cxx1112basic_stringIcSt11char_traitsIcESaIcEEEP8gzFile_sEEE8max_sizeEv
	cmpq	%rbx, %rax
	jb	.LBB100_1
# %bb.2:
	shlq	$3, %rbx
	leaq	(%rbx,%rbx,8), %rdi
	popq	%rbx
	jmp	_Znwm                   # TAILCALL
.LBB100_1:
	callq	_ZSt17__throw_bad_allocv
.Lfunc_end100:
	.size	_ZN9__gnu_cxx13new_allocatorISt13_Rb_tree_nodeISt4pairIKNSt7__cxx1112basic_stringIcSt11char_traitsIcESaIcEEEP8gzFile_sEEE8allocateEmPKv, .Lfunc_end100-_ZN9__gnu_cxx13new_allocatorISt13_Rb_tree_nodeISt4pairIKNSt7__cxx1112basic_stringIcSt11char_traitsIcESaIcEEEP8gzFile_sEEE8allocateEmPKv
	.cfi_endproc
                                        # -- End function
	.section	.text._ZNK9__gnu_cxx13new_allocatorISt13_Rb_tree_nodeISt4pairIKNSt7__cxx1112basic_stringIcSt11char_traitsIcESaIcEEEP8gzFile_sEEE8max_sizeEv,"axG",@progbits,_ZNK9__gnu_cxx13new_allocatorISt13_Rb_tree_nodeISt4pairIKNSt7__cxx1112basic_stringIcSt11char_traitsIcESaIcEEEP8gzFile_sEEE8max_sizeEv,comdat
	.weak	_ZNK9__gnu_cxx13new_allocatorISt13_Rb_tree_nodeISt4pairIKNSt7__cxx1112basic_stringIcSt11char_traitsIcESaIcEEEP8gzFile_sEEE8max_sizeEv # -- Begin function _ZNK9__gnu_cxx13new_allocatorISt13_Rb_tree_nodeISt4pairIKNSt7__cxx1112basic_stringIcSt11char_traitsIcESaIcEEEP8gzFile_sEEE8max_sizeEv
	.p2align	4, 0x90
	.type	_ZNK9__gnu_cxx13new_allocatorISt13_Rb_tree_nodeISt4pairIKNSt7__cxx1112basic_stringIcSt11char_traitsIcESaIcEEEP8gzFile_sEEE8max_sizeEv,@function
_ZNK9__gnu_cxx13new_allocatorISt13_Rb_tree_nodeISt4pairIKNSt7__cxx1112basic_stringIcSt11char_traitsIcESaIcEEEP8gzFile_sEEE8max_sizeEv: # @_ZNK9__gnu_cxx13new_allocatorISt13_Rb_tree_nodeISt4pairIKNSt7__cxx1112basic_stringIcSt11char_traitsIcESaIcEEEP8gzFile_sEEE8max_sizeEv
.Lfunc_begin101:
	.cfi_startproc
# %bb.0:
	movabsq	$128102389400760775, %rax # imm = 0x1C71C71C71C71C7
	retq
.Lfunc_end101:
	.size	_ZNK9__gnu_cxx13new_allocatorISt13_Rb_tree_nodeISt4pairIKNSt7__cxx1112basic_stringIcSt11char_traitsIcESaIcEEEP8gzFile_sEEE8max_sizeEv, .Lfunc_end101-_ZNK9__gnu_cxx13new_allocatorISt13_Rb_tree_nodeISt4pairIKNSt7__cxx1112basic_stringIcSt11char_traitsIcESaIcEEEP8gzFile_sEEE8max_sizeEv
	.cfi_endproc
                                        # -- End function
	.section	.text._ZNSt11_Tuple_implILm0EJRKNSt7__cxx1112basic_stringIcSt11char_traitsIcESaIcEEEEEC2ES7_,"axG",@progbits,_ZNSt11_Tuple_implILm0EJRKNSt7__cxx1112basic_stringIcSt11char_traitsIcESaIcEEEEEC2ES7_,comdat
	.weak	_ZNSt11_Tuple_implILm0EJRKNSt7__cxx1112basic_stringIcSt11char_traitsIcESaIcEEEEEC2ES7_ # -- Begin function _ZNSt11_Tuple_implILm0EJRKNSt7__cxx1112basic_stringIcSt11char_traitsIcESaIcEEEEEC2ES7_
	.p2align	4, 0x90
	.type	_ZNSt11_Tuple_implILm0EJRKNSt7__cxx1112basic_stringIcSt11char_traitsIcESaIcEEEEEC2ES7_,@function
_ZNSt11_Tuple_implILm0EJRKNSt7__cxx1112basic_stringIcSt11char_traitsIcESaIcEEEEEC2ES7_: # @_ZNSt11_Tuple_implILm0EJRKNSt7__cxx1112basic_stringIcSt11char_traitsIcESaIcEEEEEC2ES7_
.Lfunc_begin102:
	.cfi_startproc
# %bb.0:
	jmp	_ZNSt10_Head_baseILm0ERKNSt7__cxx1112basic_stringIcSt11char_traitsIcESaIcEEELb0EEC2ES7_ # TAILCALL
.Lfunc_end102:
	.size	_ZNSt11_Tuple_implILm0EJRKNSt7__cxx1112basic_stringIcSt11char_traitsIcESaIcEEEEEC2ES7_, .Lfunc_end102-_ZNSt11_Tuple_implILm0EJRKNSt7__cxx1112basic_stringIcSt11char_traitsIcESaIcEEEEEC2ES7_
	.cfi_endproc
                                        # -- End function
	.section	.text._ZStltIcSt11char_traitsIcESaIcEEbRKNSt7__cxx1112basic_stringIT_T0_T1_EESA_,"axG",@progbits,_ZStltIcSt11char_traitsIcESaIcEEbRKNSt7__cxx1112basic_stringIT_T0_T1_EESA_,comdat
	.weak	_ZStltIcSt11char_traitsIcESaIcEEbRKNSt7__cxx1112basic_stringIT_T0_T1_EESA_ # -- Begin function _ZStltIcSt11char_traitsIcESaIcEEbRKNSt7__cxx1112basic_stringIT_T0_T1_EESA_
	.p2align	4, 0x90
	.type	_ZStltIcSt11char_traitsIcESaIcEEbRKNSt7__cxx1112basic_stringIT_T0_T1_EESA_,@function
_ZStltIcSt11char_traitsIcESaIcEEbRKNSt7__cxx1112basic_stringIT_T0_T1_EESA_: # @_ZStltIcSt11char_traitsIcESaIcEEbRKNSt7__cxx1112basic_stringIT_T0_T1_EESA_
.Lfunc_begin103:
	.cfi_startproc
	.cfi_personality 3, __gxx_personality_v0
	.cfi_lsda 3, .Lexception8
# %bb.0:
	pushq	%rax
	.cfi_def_cfa_offset 16
.Ltmp85:
	callq	_ZNKSt7__cxx1112basic_stringIcSt11char_traitsIcESaIcEE7compareERKS4_
.Ltmp86:
# %bb.1:
	shrl	$31, %eax
                                        # kill: def %al killed %al killed %eax
	popq	%rcx
	retq
.LBB103_2:
.Ltmp87:
	movq	%rax, %rdi
	callq	__clang_call_terminate
.Lfunc_end103:
	.size	_ZStltIcSt11char_traitsIcESaIcEEbRKNSt7__cxx1112basic_stringIT_T0_T1_EESA_, .Lfunc_end103-_ZStltIcSt11char_traitsIcESaIcEEbRKNSt7__cxx1112basic_stringIT_T0_T1_EESA_
	.cfi_endproc
	.section	.gcc_except_table,"a",@progbits
	.p2align	2
GCC_except_table103:
.Lexception8:
	.byte	255                     # @LPStart Encoding = omit
	.byte	3                       # @TType Encoding = udata4
	.byte	21                      # @TType base offset
	.byte	3                       # Call site Encoding = udata4
	.byte	13                      # Call site table length
	.long	.Ltmp85-.Lfunc_begin103 # >> Call Site 1 <<
	.long	.Ltmp86-.Ltmp85         #   Call between .Ltmp85 and .Ltmp86
	.long	.Ltmp87-.Lfunc_begin103 #     jumps to .Ltmp87
	.byte	1                       #   On action: 1
	.byte	1                       # >> Action Record 1 <<
                                        #   Catch TypeInfo 1
	.byte	0                       #   No further actions
                                        # >> Catch TypeInfos <<
	.long	0                       # TypeInfo 1
	.p2align	2
                                        # -- End function
	.section	.text._ZNKSt8_Rb_treeINSt7__cxx1112basic_stringIcSt11char_traitsIcESaIcEEESt4pairIKS5_P8gzFile_sESt10_Select1stISA_ESt4lessIS5_ESaISA_EE8key_compEv,"axG",@progbits,_ZNKSt8_Rb_treeINSt7__cxx1112basic_stringIcSt11char_traitsIcESaIcEEESt4pairIKS5_P8gzFile_sESt10_Select1stISA_ESt4lessIS5_ESaISA_EE8key_compEv,comdat
	.weak	_ZNKSt8_Rb_treeINSt7__cxx1112basic_stringIcSt11char_traitsIcESaIcEEESt4pairIKS5_P8gzFile_sESt10_Select1stISA_ESt4lessIS5_ESaISA_EE8key_compEv # -- Begin function _ZNKSt8_Rb_treeINSt7__cxx1112basic_stringIcSt11char_traitsIcESaIcEEESt4pairIKS5_P8gzFile_sESt10_Select1stISA_ESt4lessIS5_ESaISA_EE8key_compEv
	.p2align	4, 0x90
	.type	_ZNKSt8_Rb_treeINSt7__cxx1112basic_stringIcSt11char_traitsIcESaIcEEESt4pairIKS5_P8gzFile_sESt10_Select1stISA_ESt4lessIS5_ESaISA_EE8key_compEv,@function
_ZNKSt8_Rb_treeINSt7__cxx1112basic_stringIcSt11char_traitsIcESaIcEEESt4pairIKS5_P8gzFile_sESt10_Select1stISA_ESt4lessIS5_ESaISA_EE8key_compEv: # @_ZNKSt8_Rb_treeINSt7__cxx1112basic_stringIcSt11char_traitsIcESaIcEEESt4pairIKS5_P8gzFile_sESt10_Select1stISA_ESt4lessIS5_ESaISA_EE8key_compEv
.Lfunc_begin104:
	.cfi_startproc
# %bb.0:
	retq
.Lfunc_end104:
	.size	_ZNKSt8_Rb_treeINSt7__cxx1112basic_stringIcSt11char_traitsIcESaIcEEESt4pairIKS5_P8gzFile_sESt10_Select1stISA_ESt4lessIS5_ESaISA_EE8key_compEv, .Lfunc_end104-_ZNKSt8_Rb_treeINSt7__cxx1112basic_stringIcSt11char_traitsIcESaIcEEESt4pairIKS5_P8gzFile_sESt10_Select1stISA_ESt4lessIS5_ESaISA_EE8key_compEv
	.cfi_endproc
                                        # -- End function
	.section	.text._ZNSt8_Rb_treeINSt7__cxx1112basic_stringIcSt11char_traitsIcESaIcEEESt4pairIKS5_P8gzFile_sESt10_Select1stISA_ESt4lessIS5_ESaISA_EE11lower_boundERS7_,"axG",@progbits,_ZNSt8_Rb_treeINSt7__cxx1112basic_stringIcSt11char_traitsIcESaIcEEESt4pairIKS5_P8gzFile_sESt10_Select1stISA_ESt4lessIS5_ESaISA_EE11lower_boundERS7_,comdat
	.weak	_ZNSt8_Rb_treeINSt7__cxx1112basic_stringIcSt11char_traitsIcESaIcEEESt4pairIKS5_P8gzFile_sESt10_Select1stISA_ESt4lessIS5_ESaISA_EE11lower_boundERS7_ # -- Begin function _ZNSt8_Rb_treeINSt7__cxx1112basic_stringIcSt11char_traitsIcESaIcEEESt4pairIKS5_P8gzFile_sESt10_Select1stISA_ESt4lessIS5_ESaISA_EE11lower_boundERS7_
	.p2align	4, 0x90
	.type	_ZNSt8_Rb_treeINSt7__cxx1112basic_stringIcSt11char_traitsIcESaIcEEESt4pairIKS5_P8gzFile_sESt10_Select1stISA_ESt4lessIS5_ESaISA_EE11lower_boundERS7_,@function
_ZNSt8_Rb_treeINSt7__cxx1112basic_stringIcSt11char_traitsIcESaIcEEESt4pairIKS5_P8gzFile_sESt10_Select1stISA_ESt4lessIS5_ESaISA_EE11lower_boundERS7_: # @_ZNSt8_Rb_treeINSt7__cxx1112basic_stringIcSt11char_traitsIcESaIcEEESt4pairIKS5_P8gzFile_sESt10_Select1stISA_ESt4lessIS5_ESaISA_EE11lower_boundERS7_
.Lfunc_begin105:
	.cfi_startproc
# %bb.0:
	pushq	%r15
	.cfi_def_cfa_offset 16
	pushq	%r14
	.cfi_def_cfa_offset 24
	pushq	%rbx
	.cfi_def_cfa_offset 32
	.cfi_offset %rbx, -32
	.cfi_offset %r14, -24
	.cfi_offset %r15, -16
	movq	%rsi, %r14
	movq	%rdi, %rbx
	callq	_ZNSt8_Rb_treeINSt7__cxx1112basic_stringIcSt11char_traitsIcESaIcEEESt4pairIKS5_P8gzFile_sESt10_Select1stISA_ESt4lessIS5_ESaISA_EE8_M_beginEv
	movq	%rax, %r15
	movq	%rbx, %rdi
	callq	_ZNSt8_Rb_treeINSt7__cxx1112basic_stringIcSt11char_traitsIcESaIcEEESt4pairIKS5_P8gzFile_sESt10_Select1stISA_ESt4lessIS5_ESaISA_EE6_M_endEv
	movq	%rbx, %rdi
	movq	%r15, %rsi
	movq	%rax, %rdx
	movq	%r14, %rcx
	popq	%rbx
	popq	%r14
	popq	%r15
	jmp	_ZNSt8_Rb_treeINSt7__cxx1112basic_stringIcSt11char_traitsIcESaIcEEESt4pairIKS5_P8gzFile_sESt10_Select1stISA_ESt4lessIS5_ESaISA_EE14_M_lower_boundEPSt13_Rb_tree_nodeISA_EPSt18_Rb_tree_node_baseRS7_ # TAILCALL
.Lfunc_end105:
	.size	_ZNSt8_Rb_treeINSt7__cxx1112basic_stringIcSt11char_traitsIcESaIcEEESt4pairIKS5_P8gzFile_sESt10_Select1stISA_ESt4lessIS5_ESaISA_EE11lower_boundERS7_, .Lfunc_end105-_ZNSt8_Rb_treeINSt7__cxx1112basic_stringIcSt11char_traitsIcESaIcEEESt4pairIKS5_P8gzFile_sESt10_Select1stISA_ESt4lessIS5_ESaISA_EE11lower_boundERS7_
	.cfi_endproc
                                        # -- End function
	.section	.text._ZNSt8_Rb_treeINSt7__cxx1112basic_stringIcSt11char_traitsIcESaIcEEESt4pairIKS5_P8gzFile_sESt10_Select1stISA_ESt4lessIS5_ESaISA_EE14_M_lower_boundEPSt13_Rb_tree_nodeISA_EPSt18_Rb_tree_node_baseRS7_,"axG",@progbits,_ZNSt8_Rb_treeINSt7__cxx1112basic_stringIcSt11char_traitsIcESaIcEEESt4pairIKS5_P8gzFile_sESt10_Select1stISA_ESt4lessIS5_ESaISA_EE14_M_lower_boundEPSt13_Rb_tree_nodeISA_EPSt18_Rb_tree_node_baseRS7_,comdat
	.weak	_ZNSt8_Rb_treeINSt7__cxx1112basic_stringIcSt11char_traitsIcESaIcEEESt4pairIKS5_P8gzFile_sESt10_Select1stISA_ESt4lessIS5_ESaISA_EE14_M_lower_boundEPSt13_Rb_tree_nodeISA_EPSt18_Rb_tree_node_baseRS7_ # -- Begin function _ZNSt8_Rb_treeINSt7__cxx1112basic_stringIcSt11char_traitsIcESaIcEEESt4pairIKS5_P8gzFile_sESt10_Select1stISA_ESt4lessIS5_ESaISA_EE14_M_lower_boundEPSt13_Rb_tree_nodeISA_EPSt18_Rb_tree_node_baseRS7_
	.p2align	4, 0x90
	.type	_ZNSt8_Rb_treeINSt7__cxx1112basic_stringIcSt11char_traitsIcESaIcEEESt4pairIKS5_P8gzFile_sESt10_Select1stISA_ESt4lessIS5_ESaISA_EE14_M_lower_boundEPSt13_Rb_tree_nodeISA_EPSt18_Rb_tree_node_baseRS7_,@function
_ZNSt8_Rb_treeINSt7__cxx1112basic_stringIcSt11char_traitsIcESaIcEEESt4pairIKS5_P8gzFile_sESt10_Select1stISA_ESt4lessIS5_ESaISA_EE14_M_lower_boundEPSt13_Rb_tree_nodeISA_EPSt18_Rb_tree_node_baseRS7_: # @_ZNSt8_Rb_treeINSt7__cxx1112basic_stringIcSt11char_traitsIcESaIcEEESt4pairIKS5_P8gzFile_sESt10_Select1stISA_ESt4lessIS5_ESaISA_EE14_M_lower_boundEPSt13_Rb_tree_nodeISA_EPSt18_Rb_tree_node_baseRS7_
.Lfunc_begin106:
	.cfi_startproc
# %bb.0:
	pushq	%r15
	.cfi_def_cfa_offset 16
	pushq	%r14
	.cfi_def_cfa_offset 24
	pushq	%r12
	.cfi_def_cfa_offset 32
	pushq	%rbx
	.cfi_def_cfa_offset 40
	pushq	%rax
	.cfi_def_cfa_offset 48
	.cfi_offset %rbx, -40
	.cfi_offset %r12, -32
	.cfi_offset %r14, -24
	.cfi_offset %r15, -16
	movq	%rcx, %r15
	movq	%rdx, %r14
	movq	%rsi, %rbx
	movq	%rdi, %r12
	testq	%rbx, %rbx
	jne	.LBB106_2
	jmp	.LBB106_6
	.p2align	4, 0x90
.LBB106_3:                              #   in Loop: Header=BB106_2 Depth=1
	movq	%rbx, %rdi
	callq	_ZNSt8_Rb_treeINSt7__cxx1112basic_stringIcSt11char_traitsIcESaIcEEESt4pairIKS5_P8gzFile_sESt10_Select1stISA_ESt4lessIS5_ESaISA_EE7_S_leftEPSt18_Rb_tree_node_base
	movq	%rbx, %r14
	movq	%rax, %rbx
	testq	%rbx, %rbx
	je	.LBB106_6
.LBB106_2:                              # =>This Inner Loop Header: Depth=1
	movq	%rbx, %rdi
	callq	_ZNSt8_Rb_treeINSt7__cxx1112basic_stringIcSt11char_traitsIcESaIcEEESt4pairIKS5_P8gzFile_sESt10_Select1stISA_ESt4lessIS5_ESaISA_EE6_S_keyEPKSt13_Rb_tree_nodeISA_E
	movq	%r12, %rdi
	movq	%rax, %rsi
	movq	%r15, %rdx
	callq	_ZNKSt4lessINSt7__cxx1112basic_stringIcSt11char_traitsIcESaIcEEEEclERKS5_S8_
	testb	%al, %al
	je	.LBB106_3
# %bb.4:                                #   in Loop: Header=BB106_2 Depth=1
	movq	%rbx, %rdi
	callq	_ZNSt8_Rb_treeINSt7__cxx1112basic_stringIcSt11char_traitsIcESaIcEEESt4pairIKS5_P8gzFile_sESt10_Select1stISA_ESt4lessIS5_ESaISA_EE8_S_rightEPSt18_Rb_tree_node_base
	movq	%rax, %rbx
	testq	%rbx, %rbx
	jne	.LBB106_2
.LBB106_6:
	movq	%rsp, %rdi
	movq	%r14, %rsi
	callq	_ZNSt17_Rb_tree_iteratorISt4pairIKNSt7__cxx1112basic_stringIcSt11char_traitsIcESaIcEEEP8gzFile_sEEC2EPSt18_Rb_tree_node_base
	movq	(%rsp), %rax
	addq	$8, %rsp
	popq	%rbx
	popq	%r12
	popq	%r14
	popq	%r15
	retq
.Lfunc_end106:
	.size	_ZNSt8_Rb_treeINSt7__cxx1112basic_stringIcSt11char_traitsIcESaIcEEESt4pairIKS5_P8gzFile_sESt10_Select1stISA_ESt4lessIS5_ESaISA_EE14_M_lower_boundEPSt13_Rb_tree_nodeISA_EPSt18_Rb_tree_node_baseRS7_, .Lfunc_end106-_ZNSt8_Rb_treeINSt7__cxx1112basic_stringIcSt11char_traitsIcESaIcEEESt4pairIKS5_P8gzFile_sESt10_Select1stISA_ESt4lessIS5_ESaISA_EE14_M_lower_boundEPSt13_Rb_tree_nodeISA_EPSt18_Rb_tree_node_baseRS7_
	.cfi_endproc
                                        # -- End function
	.section	.text._ZNSt8_Rb_treeINSt7__cxx1112basic_stringIcSt11char_traitsIcESaIcEEESt4pairIKS5_P8gzFile_sESt10_Select1stISA_ESt4lessIS5_ESaISA_EE3endEv,"axG",@progbits,_ZNSt8_Rb_treeINSt7__cxx1112basic_stringIcSt11char_traitsIcESaIcEEESt4pairIKS5_P8gzFile_sESt10_Select1stISA_ESt4lessIS5_ESaISA_EE3endEv,comdat
	.weak	_ZNSt8_Rb_treeINSt7__cxx1112basic_stringIcSt11char_traitsIcESaIcEEESt4pairIKS5_P8gzFile_sESt10_Select1stISA_ESt4lessIS5_ESaISA_EE3endEv # -- Begin function _ZNSt8_Rb_treeINSt7__cxx1112basic_stringIcSt11char_traitsIcESaIcEEESt4pairIKS5_P8gzFile_sESt10_Select1stISA_ESt4lessIS5_ESaISA_EE3endEv
	.p2align	4, 0x90
	.type	_ZNSt8_Rb_treeINSt7__cxx1112basic_stringIcSt11char_traitsIcESaIcEEESt4pairIKS5_P8gzFile_sESt10_Select1stISA_ESt4lessIS5_ESaISA_EE3endEv,@function
_ZNSt8_Rb_treeINSt7__cxx1112basic_stringIcSt11char_traitsIcESaIcEEESt4pairIKS5_P8gzFile_sESt10_Select1stISA_ESt4lessIS5_ESaISA_EE3endEv: # @_ZNSt8_Rb_treeINSt7__cxx1112basic_stringIcSt11char_traitsIcESaIcEEESt4pairIKS5_P8gzFile_sESt10_Select1stISA_ESt4lessIS5_ESaISA_EE3endEv
.Lfunc_begin107:
	.cfi_startproc
# %bb.0:
	pushq	%rax
	.cfi_def_cfa_offset 16
	leaq	8(%rdi), %rsi
	movq	%rsp, %rdi
	callq	_ZNSt17_Rb_tree_iteratorISt4pairIKNSt7__cxx1112basic_stringIcSt11char_traitsIcESaIcEEEP8gzFile_sEEC2EPSt18_Rb_tree_node_base
	movq	(%rsp), %rax
	popq	%rcx
	retq
.Lfunc_end107:
	.size	_ZNSt8_Rb_treeINSt7__cxx1112basic_stringIcSt11char_traitsIcESaIcEEESt4pairIKS5_P8gzFile_sESt10_Select1stISA_ESt4lessIS5_ESaISA_EE3endEv, .Lfunc_end107-_ZNSt8_Rb_treeINSt7__cxx1112basic_stringIcSt11char_traitsIcESaIcEEESt4pairIKS5_P8gzFile_sESt10_Select1stISA_ESt4lessIS5_ESaISA_EE3endEv
	.cfi_endproc
                                        # -- End function
	.section	.text._ZNSt8_Rb_treeINSt7__cxx1112basic_stringIcSt11char_traitsIcESaIcEEESt4pairIKS5_P8gzFile_sESt10_Select1stISA_ESt4lessIS5_ESaISA_EE4findERS7_,"axG",@progbits,_ZNSt8_Rb_treeINSt7__cxx1112basic_stringIcSt11char_traitsIcESaIcEEESt4pairIKS5_P8gzFile_sESt10_Select1stISA_ESt4lessIS5_ESaISA_EE4findERS7_,comdat
	.weak	_ZNSt8_Rb_treeINSt7__cxx1112basic_stringIcSt11char_traitsIcESaIcEEESt4pairIKS5_P8gzFile_sESt10_Select1stISA_ESt4lessIS5_ESaISA_EE4findERS7_ # -- Begin function _ZNSt8_Rb_treeINSt7__cxx1112basic_stringIcSt11char_traitsIcESaIcEEESt4pairIKS5_P8gzFile_sESt10_Select1stISA_ESt4lessIS5_ESaISA_EE4findERS7_
	.p2align	4, 0x90
	.type	_ZNSt8_Rb_treeINSt7__cxx1112basic_stringIcSt11char_traitsIcESaIcEEESt4pairIKS5_P8gzFile_sESt10_Select1stISA_ESt4lessIS5_ESaISA_EE4findERS7_,@function
_ZNSt8_Rb_treeINSt7__cxx1112basic_stringIcSt11char_traitsIcESaIcEEESt4pairIKS5_P8gzFile_sESt10_Select1stISA_ESt4lessIS5_ESaISA_EE4findERS7_: # @_ZNSt8_Rb_treeINSt7__cxx1112basic_stringIcSt11char_traitsIcESaIcEEESt4pairIKS5_P8gzFile_sESt10_Select1stISA_ESt4lessIS5_ESaISA_EE4findERS7_
.Lfunc_begin108:
	.cfi_startproc
# %bb.0:
	pushq	%r15
	.cfi_def_cfa_offset 16
	pushq	%r14
	.cfi_def_cfa_offset 24
	pushq	%rbx
	.cfi_def_cfa_offset 32
	subq	$16, %rsp
	.cfi_def_cfa_offset 48
	.cfi_offset %rbx, -32
	.cfi_offset %r14, -24
	.cfi_offset %r15, -16
	movq	%rsi, %r14
	movq	%rdi, %rbx
	callq	_ZNSt8_Rb_treeINSt7__cxx1112basic_stringIcSt11char_traitsIcESaIcEEESt4pairIKS5_P8gzFile_sESt10_Select1stISA_ESt4lessIS5_ESaISA_EE8_M_beginEv
	movq	%rax, %r15
	movq	%rbx, %rdi
	callq	_ZNSt8_Rb_treeINSt7__cxx1112basic_stringIcSt11char_traitsIcESaIcEEESt4pairIKS5_P8gzFile_sESt10_Select1stISA_ESt4lessIS5_ESaISA_EE6_M_endEv
	movq	%rbx, %rdi
	movq	%r15, %rsi
	movq	%rax, %rdx
	movq	%r14, %rcx
	callq	_ZNSt8_Rb_treeINSt7__cxx1112basic_stringIcSt11char_traitsIcESaIcEEESt4pairIKS5_P8gzFile_sESt10_Select1stISA_ESt4lessIS5_ESaISA_EE14_M_lower_boundEPSt13_Rb_tree_nodeISA_EPSt18_Rb_tree_node_baseRS7_
	movq	%rax, (%rsp)
	movq	%rbx, %rdi
	callq	_ZNSt8_Rb_treeINSt7__cxx1112basic_stringIcSt11char_traitsIcESaIcEEESt4pairIKS5_P8gzFile_sESt10_Select1stISA_ESt4lessIS5_ESaISA_EE3endEv
	movq	%rax, 8(%rsp)
	movq	%rsp, %rdi
	leaq	8(%rsp), %rsi
	callq	_ZSteqRKSt17_Rb_tree_iteratorISt4pairIKNSt7__cxx1112basic_stringIcSt11char_traitsIcESaIcEEEP8gzFile_sEESD_
	testb	%al, %al
	jne	.LBB108_2
# %bb.1:
	movq	(%rsp), %rdi
	callq	_ZNSt8_Rb_treeINSt7__cxx1112basic_stringIcSt11char_traitsIcESaIcEEESt4pairIKS5_P8gzFile_sESt10_Select1stISA_ESt4lessIS5_ESaISA_EE6_S_keyEPKSt18_Rb_tree_node_base
	movq	%rbx, %rdi
	movq	%r14, %rsi
	movq	%rax, %rdx
	callq	_ZNKSt4lessINSt7__cxx1112basic_stringIcSt11char_traitsIcESaIcEEEEclERKS5_S8_
	testb	%al, %al
	je	.LBB108_3
.LBB108_2:
	movq	%rbx, %rdi
	callq	_ZNSt8_Rb_treeINSt7__cxx1112basic_stringIcSt11char_traitsIcESaIcEEESt4pairIKS5_P8gzFile_sESt10_Select1stISA_ESt4lessIS5_ESaISA_EE3endEv
	jmp	.LBB108_4
.LBB108_3:
	movq	(%rsp), %rax
.LBB108_4:
	addq	$16, %rsp
	popq	%rbx
	popq	%r14
	popq	%r15
	retq
.Lfunc_end108:
	.size	_ZNSt8_Rb_treeINSt7__cxx1112basic_stringIcSt11char_traitsIcESaIcEEESt4pairIKS5_P8gzFile_sESt10_Select1stISA_ESt4lessIS5_ESaISA_EE4findERS7_, .Lfunc_end108-_ZNSt8_Rb_treeINSt7__cxx1112basic_stringIcSt11char_traitsIcESaIcEEESt4pairIKS5_P8gzFile_sESt10_Select1stISA_ESt4lessIS5_ESaISA_EE4findERS7_
	.cfi_endproc
                                        # -- End function
	.text
	.globl	trace_logger_register_labelmap # -- Begin function trace_logger_register_labelmap
	.p2align	4, 0x90
	.type	trace_logger_register_labelmap,@function
trace_logger_register_labelmap:         # @trace_logger_register_labelmap
.Lfunc_begin109:
	.cfi_startproc
# %bb.0:
	movq	%rsi, %rax
	movq	%rdi, %rcx
	movl	$_Z12labelmap_strB5cxx11, %edi
	movq	%rcx, %rsi
	movq	%rax, %rdx
	jmp	_ZNSt7__cxx1112basic_stringIcSt11char_traitsIcESaIcEE6assignEPKcm # TAILCALL
.Lfunc_end109:
	.size	trace_logger_register_labelmap, .Lfunc_end109-trace_logger_register_labelmap
	.cfi_endproc
                                        # -- End function
	.globl	trace_logger_init       # -- Begin function trace_logger_init
	.p2align	4, 0x90
	.type	trace_logger_init,@function
trace_logger_init:                      # @trace_logger_init
.Lfunc_begin110:
	.cfi_startproc
# %bb.0:
	pushq	%rax
	.cfi_def_cfa_offset 16
	movl	$lock, %edi
	xorl	%esi, %esi
	callq	pthread_mutex_init
	testl	%eax, %eax
	jne	.LBB110_1
# %bb.2:
	movq	default_trace_name(%rip), %rdi
	callq	_Z12create_tracePKc
	movl	$_Z8fin_mainv, %edi
	popq	%rax
	jmp	atexit                  # TAILCALL
.LBB110_1:
	movl	$.L.str.9, %edi
	callq	perror
	movl	$-1, %edi
	callq	exit
.Lfunc_end110:
	.size	trace_logger_init, .Lfunc_end110-trace_logger_init
	.cfi_endproc
                                        # -- End function
	.globl	_Z8fin_mainv            # -- Begin function _Z8fin_mainv
	.p2align	4, 0x90
	.type	_Z8fin_mainv,@function
_Z8fin_mainv:                           # @_Z8fin_mainv
.Lfunc_begin111:
	.cfi_startproc
# %bb.0:
	pushq	%r14
	.cfi_def_cfa_offset 16
	pushq	%rbx
	.cfi_def_cfa_offset 24
	subq	$24, %rsp
	.cfi_def_cfa_offset 48
	.cfi_offset %rbx, -24
	.cfi_offset %r14, -16
	callq	_ZTW5trace
	cmpq	$0, (%rax)
	je	.LBB111_2
# %bb.1:
	callq	_Z12fin_toplevelv
.LBB111_2:
	movl	$_Z8gz_filesB5cxx11, %edi
	callq	_ZNSt3mapINSt7__cxx1112basic_stringIcSt11char_traitsIcESaIcEEEP8gzFile_sSt4lessIS5_ESaISt4pairIKS5_S7_EEE5beginEv
	movq	%rax, 16(%rsp)
	movl	$_Z8gz_filesB5cxx11, %edi
	callq	_ZNSt3mapINSt7__cxx1112basic_stringIcSt11char_traitsIcESaIcEEEP8gzFile_sSt4lessIS5_ESaISt4pairIKS5_S7_EEE3endEv
	movq	%rax, 8(%rsp)
	leaq	16(%rsp), %rdi
	leaq	8(%rsp), %rsi
	callq	_ZStneRKSt17_Rb_tree_iteratorISt4pairIKNSt7__cxx1112basic_stringIcSt11char_traitsIcESaIcEEEP8gzFile_sEESD_
	testb	%al, %al
	je	.LBB111_5
# %bb.3:
	leaq	16(%rsp), %rbx
	leaq	8(%rsp), %r14
	.p2align	4, 0x90
.LBB111_4:                              # =>This Inner Loop Header: Depth=1
	movq	%rbx, %rdi
	callq	_ZNKSt17_Rb_tree_iteratorISt4pairIKNSt7__cxx1112basic_stringIcSt11char_traitsIcESaIcEEEP8gzFile_sEEptEv
	movq	32(%rax), %rdi
	callq	gzclose
	movq	%rbx, %rdi
	callq	_ZNSt17_Rb_tree_iteratorISt4pairIKNSt7__cxx1112basic_stringIcSt11char_traitsIcESaIcEEEP8gzFile_sEEppEv
	movl	$_Z8gz_filesB5cxx11, %edi
	callq	_ZNSt3mapINSt7__cxx1112basic_stringIcSt11char_traitsIcESaIcEEEP8gzFile_sSt4lessIS5_ESaISt4pairIKS5_S7_EEE3endEv
	movq	%rax, 8(%rsp)
	movq	%rbx, %rdi
	movq	%r14, %rsi
	callq	_ZStneRKSt17_Rb_tree_iteratorISt4pairIKNSt7__cxx1112basic_stringIcSt11char_traitsIcESaIcEEEP8gzFile_sEESD_
	testb	%al, %al
	jne	.LBB111_4
.LBB111_5:
	addq	$24, %rsp
	popq	%rbx
	popq	%r14
	retq
.Lfunc_end111:
	.size	_Z8fin_mainv, .Lfunc_end111-_Z8fin_mainv
	.cfi_endproc
                                        # -- End function
	.globl	_Z12fin_toplevelv       # -- Begin function _Z12fin_toplevelv
	.p2align	4, 0x90
	.type	_Z12fin_toplevelv,@function
_Z12fin_toplevelv:                      # @_Z12fin_toplevelv
.Lfunc_begin112:
	.cfi_startproc
# %bb.0:
	pushq	%rbx
	.cfi_def_cfa_offset 16
	.cfi_offset %rbx, -16
	callq	_ZTW5trace
	movq	(%rax), %rbx
	testq	%rbx, %rbx
	je	.LBB112_2
# %bb.1:
	movq	%rbx, %rdi
	callq	_ZN10trace_infoD2Ev
	movq	%rbx, %rdi
	callq	_ZdlPv
.LBB112_2:
	callq	_ZTW5trace
	movq	$0, (%rax)
	popq	%rbx
	retq
.Lfunc_end112:
	.size	_Z12fin_toplevelv, .Lfunc_end112-_Z12fin_toplevelv
	.cfi_endproc
                                        # -- End function
	.section	.text._ZNSt3mapINSt7__cxx1112basic_stringIcSt11char_traitsIcESaIcEEEP8gzFile_sSt4lessIS5_ESaISt4pairIKS5_S7_EEE5beginEv,"axG",@progbits,_ZNSt3mapINSt7__cxx1112basic_stringIcSt11char_traitsIcESaIcEEEP8gzFile_sSt4lessIS5_ESaISt4pairIKS5_S7_EEE5beginEv,comdat
	.weak	_ZNSt3mapINSt7__cxx1112basic_stringIcSt11char_traitsIcESaIcEEEP8gzFile_sSt4lessIS5_ESaISt4pairIKS5_S7_EEE5beginEv # -- Begin function _ZNSt3mapINSt7__cxx1112basic_stringIcSt11char_traitsIcESaIcEEEP8gzFile_sSt4lessIS5_ESaISt4pairIKS5_S7_EEE5beginEv
	.p2align	4, 0x90
	.type	_ZNSt3mapINSt7__cxx1112basic_stringIcSt11char_traitsIcESaIcEEEP8gzFile_sSt4lessIS5_ESaISt4pairIKS5_S7_EEE5beginEv,@function
_ZNSt3mapINSt7__cxx1112basic_stringIcSt11char_traitsIcESaIcEEEP8gzFile_sSt4lessIS5_ESaISt4pairIKS5_S7_EEE5beginEv: # @_ZNSt3mapINSt7__cxx1112basic_stringIcSt11char_traitsIcESaIcEEEP8gzFile_sSt4lessIS5_ESaISt4pairIKS5_S7_EEE5beginEv
.Lfunc_begin113:
	.cfi_startproc
# %bb.0:
	jmp	_ZNSt8_Rb_treeINSt7__cxx1112basic_stringIcSt11char_traitsIcESaIcEEESt4pairIKS5_P8gzFile_sESt10_Select1stISA_ESt4lessIS5_ESaISA_EE5beginEv # TAILCALL
.Lfunc_end113:
	.size	_ZNSt3mapINSt7__cxx1112basic_stringIcSt11char_traitsIcESaIcEEEP8gzFile_sSt4lessIS5_ESaISt4pairIKS5_S7_EEE5beginEv, .Lfunc_end113-_ZNSt3mapINSt7__cxx1112basic_stringIcSt11char_traitsIcESaIcEEEP8gzFile_sSt4lessIS5_ESaISt4pairIKS5_S7_EEE5beginEv
	.cfi_endproc
                                        # -- End function
	.section	.text._ZNKSt17_Rb_tree_iteratorISt4pairIKNSt7__cxx1112basic_stringIcSt11char_traitsIcESaIcEEEP8gzFile_sEEptEv,"axG",@progbits,_ZNKSt17_Rb_tree_iteratorISt4pairIKNSt7__cxx1112basic_stringIcSt11char_traitsIcESaIcEEEP8gzFile_sEEptEv,comdat
	.weak	_ZNKSt17_Rb_tree_iteratorISt4pairIKNSt7__cxx1112basic_stringIcSt11char_traitsIcESaIcEEEP8gzFile_sEEptEv # -- Begin function _ZNKSt17_Rb_tree_iteratorISt4pairIKNSt7__cxx1112basic_stringIcSt11char_traitsIcESaIcEEEP8gzFile_sEEptEv
	.p2align	4, 0x90
	.type	_ZNKSt17_Rb_tree_iteratorISt4pairIKNSt7__cxx1112basic_stringIcSt11char_traitsIcESaIcEEEP8gzFile_sEEptEv,@function
_ZNKSt17_Rb_tree_iteratorISt4pairIKNSt7__cxx1112basic_stringIcSt11char_traitsIcESaIcEEEP8gzFile_sEEptEv: # @_ZNKSt17_Rb_tree_iteratorISt4pairIKNSt7__cxx1112basic_stringIcSt11char_traitsIcESaIcEEEP8gzFile_sEEptEv
.Lfunc_begin114:
	.cfi_startproc
# %bb.0:
	movq	(%rdi), %rdi
	jmp	_ZNSt13_Rb_tree_nodeISt4pairIKNSt7__cxx1112basic_stringIcSt11char_traitsIcESaIcEEEP8gzFile_sEE9_M_valptrEv # TAILCALL
.Lfunc_end114:
	.size	_ZNKSt17_Rb_tree_iteratorISt4pairIKNSt7__cxx1112basic_stringIcSt11char_traitsIcESaIcEEEP8gzFile_sEEptEv, .Lfunc_end114-_ZNKSt17_Rb_tree_iteratorISt4pairIKNSt7__cxx1112basic_stringIcSt11char_traitsIcESaIcEEEP8gzFile_sEEptEv
	.cfi_endproc
                                        # -- End function
	.section	.text._ZN10trace_infoD2Ev,"axG",@progbits,_ZN10trace_infoD2Ev,comdat
	.weak	_ZN10trace_infoD2Ev     # -- Begin function _ZN10trace_infoD2Ev
	.p2align	4, 0x90
	.type	_ZN10trace_infoD2Ev,@function
_ZN10trace_infoD2Ev:                    # @_ZN10trace_infoD2Ev
.Lfunc_begin115:
	.cfi_startproc
# %bb.0:
	pushq	%rbx
	.cfi_def_cfa_offset 16
	.cfi_offset %rbx, -16
	movq	%rdi, %rbx
	leaq	48(%rbx), %rdi
	callq	_ZNSt7__cxx1112basic_stringIcSt11char_traitsIcESaIcEED2Ev
	movq	%rbx, %rdi
	popq	%rbx
	jmp	_ZNSt7__cxx1112basic_stringIcSt11char_traitsIcESaIcEED2Ev # TAILCALL
.Lfunc_end115:
	.size	_ZN10trace_infoD2Ev, .Lfunc_end115-_ZN10trace_infoD2Ev
	.cfi_endproc
                                        # -- End function
	.text
	.globl	llvmtracer_set_trace_name # -- Begin function llvmtracer_set_trace_name
	.p2align	4, 0x90
	.type	llvmtracer_set_trace_name,@function
llvmtracer_set_trace_name:              # @llvmtracer_set_trace_name
.Lfunc_begin116:
	.cfi_startproc
# %bb.0:
	pushq	%rbx
	.cfi_def_cfa_offset 16
	.cfi_offset %rbx, -16
	movq	%rdi, %rbx
	callq	_ZTW5trace
	cmpq	$0, (%rax)
	je	.LBB116_1
# %bb.2:
	callq	_ZTW5trace
	movq	(%rax), %rdi
	movq	%rbx, %rsi
	popq	%rbx
	jmp	_ZNSt7__cxx1112basic_stringIcSt11char_traitsIcESaIcEEaSEPKc # TAILCALL
.LBB116_1:
	movq	%rbx, %rdi
	popq	%rbx
	jmp	_Z12create_tracePKc     # TAILCALL
.Lfunc_end116:
	.size	llvmtracer_set_trace_name, .Lfunc_end116-llvmtracer_set_trace_name
	.cfi_endproc
                                        # -- End function
	.globl	_Z10log_or_notbbiPc     # -- Begin function _Z10log_or_notbbiPc
	.p2align	4, 0x90
	.type	_Z10log_or_notbbiPc,@function
_Z10log_or_notbbiPc:                    # @_Z10log_or_notbbiPc
.Lfunc_begin117:
	.cfi_startproc
# %bb.0:
	pushq	%rbx
	.cfi_def_cfa_offset 16
	.cfi_offset %rbx, -16
	movq	%rcx, %rbx
	testl	%edi, %edi
	je	.LBB117_1
# %bb.2:
	testb	%sil, %sil
	je	.LBB117_3
# %bb.4:
	xorl	%eax, %eax
	cmpl	$1, %edx
	jne	.LBB117_7
# %bb.5:
	callq	_ZTW5trace
	movq	(%rax), %rdi
	addq	$48, %rdi
	callq	_ZNKSt7__cxx1112basic_stringIcSt11char_traitsIcESaIcEE6lengthEv
	testq	%rax, %rax
	je	.LBB117_8
# %bb.6:
	callq	_ZTW5trace
	movq	(%rax), %rdi
	addq	$48, %rdi
	callq	_ZNKSt7__cxx1112basic_stringIcSt11char_traitsIcESaIcEE5c_strEv
	movq	%rbx, %rdi
	movq	%rax, %rsi
	callq	strcmp
	movl	%eax, %ecx
	movl	$1, %eax
	testl	%ecx, %ecx
	jne	.LBB117_9
.LBB117_7:
	popq	%rbx
	retq
.LBB117_1:
	xorb	$1, %sil
	movzbl	%sil, %eax
	popq	%rbx
	retq
.LBB117_3:
	callq	_ZTW5trace
	movq	(%rax), %rax
	movl	80(%rax), %eax
	popq	%rbx
	retq
.LBB117_8:
	movl	$.L.str.10, %edi
	movl	$.L.str.4, %esi
	movl	$132, %edx
	movl	$.L__PRETTY_FUNCTION__._Z10log_or_notbbiPc, %ecx
	callq	__assert_fail
.LBB117_9:
	movl	$.L.str.11, %edi
	movl	$.L.str.4, %esi
	movl	$137, %edx
	movl	$.L__PRETTY_FUNCTION__._Z10log_or_notbbiPc, %ecx
	callq	__assert_fail
.Lfunc_end117:
	.size	_Z10log_or_notbbiPc, .Lfunc_end117-_Z10log_or_notbbiPc
	.cfi_endproc
                                        # -- End function
	.globl	_Z20convert_bytes_to_hexPcPhi # -- Begin function _Z20convert_bytes_to_hexPcPhi
	.p2align	4, 0x90
	.type	_Z20convert_bytes_to_hexPcPhi,@function
_Z20convert_bytes_to_hexPcPhi:          # @_Z20convert_bytes_to_hexPcPhi
.Lfunc_begin118:
	.cfi_startproc
# %bb.0:
	pushq	%r15
	.cfi_def_cfa_offset 16
	pushq	%r14
	.cfi_def_cfa_offset 24
	pushq	%rbx
	.cfi_def_cfa_offset 32
	.cfi_offset %rbx, -32
	.cfi_offset %r14, -24
	.cfi_offset %r15, -16
	movq	%rdi, %r14
	movb	$0, 2(%r14)
	movq	%rsi, %rbx
	movw	$30768, (%r14)          # imm = 0x7830
	addq	$2, %r14
	testl	%edx, %edx
	jle	.LBB118_1
# %bb.3:
	movl	%edx, %r15d
	.p2align	4, 0x90
.LBB118_4:                              # =>This Inner Loop Header: Depth=1
	movzbl	(%rbx), %edx
	movl	$.L.str.13, %esi
	xorl	%eax, %eax
	movq	%r14, %rdi
	callq	sprintf
	cltq
	addq	%r14, %rax
	addq	$1, %rbx
	movq	%rax, %r14
	addq	$-1, %r15
	jne	.LBB118_4
	jmp	.LBB118_2
.LBB118_1:
	movq	%r14, %rax
.LBB118_2:
	movb	$0, (%rax)
	popq	%rbx
	popq	%r14
	popq	%r15
	retq
.Lfunc_end118:
	.size	_Z20convert_bytes_to_hexPcPhi, .Lfunc_end118-_Z20convert_bytes_to_hexPcPhi
	.cfi_endproc
                                        # -- End function
	.globl	trace_logger_update_status # -- Begin function trace_logger_update_status
	.p2align	4, 0x90
	.type	trace_logger_update_status,@function
trace_logger_update_status:             # @trace_logger_update_status
.Lfunc_begin119:
	.cfi_startproc
# %bb.0:
	pushq	%rbp
	.cfi_def_cfa_offset 16
	pushq	%r15
	.cfi_def_cfa_offset 24
	pushq	%r14
	.cfi_def_cfa_offset 32
	pushq	%r12
	.cfi_def_cfa_offset 40
	pushq	%rbx
	.cfi_def_cfa_offset 48
	.cfi_offset %rbx, -48
	.cfi_offset %r12, -40
	.cfi_offset %r14, -32
	.cfi_offset %r15, -24
	.cfi_offset %rbp, -16
	movl	%ecx, %r12d
	movl	%edx, %ebx
	movl	%esi, %r15d
	movq	%rdi, %r14
	callq	_ZTW5trace
	cmpq	$0, (%rax)
	jne	.LBB119_3
# %bb.1:
	testb	%bl, %bl
	je	.LBB119_14
# %bb.2:
	movq	default_trace_name(%rip), %rdi
	callq	_Z12create_tracePKc
.LBB119_3:
	callq	_ZTW5trace
	movq	(%rax), %rax
	movl	80(%rax), %ebp
	movzbl	%r12b, %edi
	movzbl	%bl, %esi
	movl	%r15d, %edx
	movq	%r14, %rcx
	callq	_Z10log_or_notbbiPc
	movl	%eax, %ebx
	callq	_ZTW5trace
	movq	(%rax), %rax
	movl	%ebx, 80(%rax)
	cmpl	$1, %ebp
	je	.LBB119_7
# %bb.4:
	testl	%ebp, %ebp
	jne	.LBB119_10
# %bb.5:
	callq	_ZTW5trace
	movq	(%rax), %rax
	cmpl	$1, 80(%rax)
	jne	.LBB119_10
# %bb.6:
	callq	_ZTW5trace
	movq	(%rax), %rdi
	callq	_ZNKSt7__cxx1112basic_stringIcSt11char_traitsIcESaIcEE5c_strEv
	movq	%rax, %rbx
	callq	_ZTW5trace
	movq	(%rax), %rax
	movq	40(%rax), %rdx
	movl	$.L.str.14, %edi
	jmp	.LBB119_9
.LBB119_7:
	callq	_ZTW5trace
	movq	(%rax), %rax
	cmpl	$1, 80(%rax)
	je	.LBB119_10
# %bb.8:
	callq	_ZTW5trace
	movq	(%rax), %rdi
	callq	_ZNKSt7__cxx1112basic_stringIcSt11char_traitsIcESaIcEE5c_strEv
	movq	%rax, %rbx
	callq	_ZTW5trace
	movq	(%rax), %rax
	movq	40(%rax), %rdx
	movl	$.L.str.15, %edi
.LBB119_9:
	xorl	%eax, %eax
	movq	%rbx, %rsi
	callq	printf
	movq	stdout(%rip), %rdi
	callq	fflush
.LBB119_10:
	callq	_ZTW5trace
	movq	(%rax), %rdi
	addq	$48, %rdi
	callq	_ZNKSt7__cxx1112basic_stringIcSt11char_traitsIcESaIcEE6lengthEv
	testq	%rax, %rax
	jne	.LBB119_13
# %bb.11:
	callq	_ZTW5trace
	movq	(%rax), %rax
	cmpl	$0, 80(%rax)
	je	.LBB119_12
.LBB119_13:
	callq	_ZTW5trace
	movq	(%rax), %rax
	cmpl	$1, 80(%rax)
	jne	.LBB119_14
# %bb.15:
	callq	_ZTW5trace
	movq	(%rax), %rdi
	addq	$48, %rdi
	movl	$.L.str.16, %esi
	callq	_ZNSt7__cxx1112basic_stringIcSt11char_traitsIcESaIcEEaSEPKc
	popq	%rbx
	popq	%r12
	popq	%r14
	popq	%r15
	popq	%rbp
	jmp	_Z12fin_toplevelv       # TAILCALL
.LBB119_12:
	callq	_ZTW5trace
	movq	(%rax), %rdi
	addq	$48, %rdi
	movq	%r14, %rsi
	callq	_ZNSt7__cxx1112basic_stringIcSt11char_traitsIcESaIcEEaSEPKc
.LBB119_14:
	popq	%rbx
	popq	%r12
	popq	%r14
	popq	%r15
	popq	%rbp
	retq
.Lfunc_end119:
	.size	trace_logger_update_status, .Lfunc_end119-trace_logger_update_status
	.cfi_endproc
                                        # -- End function
	.globl	_Z10do_not_logv         # -- Begin function _Z10do_not_logv
	.p2align	4, 0x90
	.type	_Z10do_not_logv,@function
_Z10do_not_logv:                        # @_Z10do_not_logv
.Lfunc_begin120:
	.cfi_startproc
# %bb.0:
	pushq	%rax
	.cfi_def_cfa_offset 16
	callq	_ZTW5trace
	cmpq	$0, (%rax)
	je	.LBB120_1
# %bb.2:
	callq	_ZTW5trace
	movq	(%rax), %rax
	cmpl	$1, 80(%rax)
	sete	%al
	popq	%rcx
	retq
.LBB120_1:
	movb	$1, %al
	popq	%rcx
	retq
.Lfunc_end120:
	.size	_Z10do_not_logv, .Lfunc_end120-_Z10do_not_logv
	.cfi_endproc
                                        # -- End function
	.globl	trace_logger_log_entry  # -- Begin function trace_logger_log_entry
	.p2align	4, 0x90
	.type	trace_logger_log_entry,@function
trace_logger_log_entry:                 # @trace_logger_log_entry
.Lfunc_begin121:
	.cfi_startproc
# %bb.0:
	pushq	%rbp
	.cfi_def_cfa_offset 16
	pushq	%rbx
	.cfi_def_cfa_offset 24
	pushq	%rax
	.cfi_def_cfa_offset 32
	.cfi_offset %rbx, -24
	.cfi_offset %rbp, -16
	movl	%esi, %ebp
	movq	%rdi, %rbx
	callq	_ZTW5trace
	cmpq	$0, (%rax)
	jne	.LBB121_2
# %bb.1:
	movq	default_trace_name(%rip), %rdi
	callq	_Z12create_tracePKc
.LBB121_2:
	callq	_Z10do_not_logv
	testb	%al, %al
	je	.LBB121_4
# %bb.3:
	addq	$8, %rsp
	popq	%rbx
	popq	%rbp
	retq
.LBB121_4:
	callq	_Z15open_trace_filev
	callq	_ZTW5trace
	movq	(%rax), %rax
	movq	32(%rax), %rdi
	movl	$.L.str.17, %esi
	xorl	%eax, %eax
	movq	%rbx, %rdx
	movl	%ebp, %ecx
	addq	$8, %rsp
	popq	%rbx
	popq	%rbp
	jmp	gzprintf                # TAILCALL
.Lfunc_end121:
	.size	trace_logger_log_entry, .Lfunc_end121-trace_logger_log_entry
	.cfi_endproc
                                        # -- End function
	.globl	trace_logger_log0       # -- Begin function trace_logger_log0
	.p2align	4, 0x90
	.type	trace_logger_log0,@function
trace_logger_log0:                      # @trace_logger_log0
.Lfunc_begin122:
	.cfi_startproc
# %bb.0:
	pushq	%rbp
	.cfi_def_cfa_offset 16
	pushq	%r15
	.cfi_def_cfa_offset 24
	pushq	%r14
	.cfi_def_cfa_offset 32
	pushq	%r13
	.cfi_def_cfa_offset 40
	pushq	%r12
	.cfi_def_cfa_offset 48
	pushq	%rbx
	.cfi_def_cfa_offset 56
	pushq	%rax
	.cfi_def_cfa_offset 64
	.cfi_offset %rbx, -56
	.cfi_offset %r12, -48
	.cfi_offset %r13, -40
	.cfi_offset %r14, -32
	.cfi_offset %r15, -24
	.cfi_offset %rbp, -16
	movl	%r8d, %r14d
	movq	%rcx, %r15
	movq	%rdx, %r12
	movq	%rsi, %rbx
	movl	%edi, %ebp
	callq	_ZTW5trace
	cmpq	$0, (%rax)
	je	.LBB122_3
# %bb.1:
	callq	_Z10do_not_logv
	testb	%al, %al
	jne	.LBB122_3
# %bb.2:
	callq	_ZTW5trace
	movq	(%rax), %rax
	movq	32(%rax), %r13
	callq	_ZTW5trace
	movq	(%rax), %r10
	movl	$.L.str.18, %esi
	movl	$0, %eax
	movq	%r13, %rdi
	movl	%ebp, %edx
	movq	%rbx, %rcx
	movq	%r12, %r8
	movq	%r15, %r9
	pushq	40(%r10)
	.cfi_adjust_cfa_offset 8
	pushq	%r14
	.cfi_adjust_cfa_offset 8
	callq	gzprintf
	addq	$16, %rsp
	.cfi_adjust_cfa_offset -16
	callq	_ZTW5trace
	movq	(%rax), %rax
	addq	$1, 40(%rax)
.LBB122_3:
	addq	$8, %rsp
	popq	%rbx
	popq	%r12
	popq	%r13
	popq	%r14
	popq	%r15
	popq	%rbp
	retq
.Lfunc_end122:
	.size	trace_logger_log0, .Lfunc_end122-trace_logger_log0
	.cfi_endproc
                                        # -- End function
	.globl	trace_logger_log_int    # -- Begin function trace_logger_log_int
	.p2align	4, 0x90
	.type	trace_logger_log_int,@function
trace_logger_log_int:                   # @trace_logger_log_int
.Lfunc_begin123:
	.cfi_startproc
# %bb.0:
	pushq	%rbp
	.cfi_def_cfa_offset 16
	pushq	%r15
	.cfi_def_cfa_offset 24
	pushq	%r14
	.cfi_def_cfa_offset 32
	pushq	%r13
	.cfi_def_cfa_offset 40
	pushq	%r12
	.cfi_def_cfa_offset 48
	pushq	%rbx
	.cfi_def_cfa_offset 56
	subq	$24, %rsp
	.cfi_def_cfa_offset 80
	.cfi_offset %rbx, -56
	.cfi_offset %r12, -48
	.cfi_offset %r13, -40
	.cfi_offset %r14, -32
	.cfi_offset %r15, -24
	.cfi_offset %rbp, -16
	movl	%r9d, 12(%rsp)          # 4-byte Spill
	movq	%r8, %r13
	movl	%ecx, %ebx
	movq	%rdx, %r12
	movl	%esi, %r14d
	movl	%edi, %r15d
	movq	80(%rsp), %rbp
	callq	_ZTW5trace
	cmpq	$0, (%rax)
	je	.LBB123_13
# %bb.1:
	callq	_Z10do_not_logv
	testb	%al, %al
	je	.LBB123_2
.LBB123_13:
	addq	$24, %rsp
	popq	%rbx
	popq	%r12
	popq	%r13
	popq	%r14
	popq	%r15
	popq	%rbp
	retq
.LBB123_2:
	movq	%rbp, 16(%rsp)          # 8-byte Spill
	callq	_ZTW5trace
	movq	(%rax), %rax
	movq	32(%rax), %rbp
	cmpl	$24601, %r15d           # imm = 0x6019
	je	.LBB123_6
# %bb.3:
	cmpl	$19134, %r15d           # imm = 0x4ABE
	jne	.LBB123_7
# %bb.4:
	movl	$.L.str.19, %esi
	jmp	.LBB123_5
.LBB123_6:
	movl	$.L.str.20, %esi
.LBB123_5:
	xorl	%eax, %eax
	movq	%rbp, %rdi
	movl	%r14d, %edx
	movq	%r12, %rcx
	movl	%ebx, %r8d
	callq	gzprintf
	testl	%ebx, %ebx
	je	.LBB123_10
.LBB123_9:
	movl	$.L.str.22, %esi
	xorl	%eax, %eax
	movq	%rbp, %rdi
	movq	%r13, %rdx
	callq	gzprintf
	cmpl	$0, 12(%rsp)            # 4-byte Folded Reload
	je	.LBB123_12
.LBB123_14:
	movl	$.L.str.24, %esi
	xorl	%eax, %eax
	movq	%rbp, %rdi
	movq	16(%rsp), %rdx          # 8-byte Reload
	addq	$24, %rsp
	popq	%rbx
	popq	%r12
	popq	%r13
	popq	%r14
	popq	%r15
	popq	%rbp
	jmp	gzprintf                # TAILCALL
.LBB123_7:
	movl	$.L.str.21, %esi
	xorl	%eax, %eax
	movq	%rbp, %rdi
	movl	%r15d, %edx
	movl	%r14d, %ecx
	movq	%r12, %r8
	movl	%ebx, %r9d
	callq	gzprintf
	testl	%ebx, %ebx
	jne	.LBB123_9
.LBB123_10:
	movl	$.L.str.23, %esi
	xorl	%eax, %eax
	movq	%rbp, %rdi
	callq	gzprintf
	cmpl	$0, 12(%rsp)            # 4-byte Folded Reload
	jne	.LBB123_14
.LBB123_12:
	movl	$.L.str.25, %esi
	xorl	%eax, %eax
	movq	%rbp, %rdi
	addq	$24, %rsp
	popq	%rbx
	popq	%r12
	popq	%r13
	popq	%r14
	popq	%r15
	popq	%rbp
	jmp	gzprintf                # TAILCALL
.Lfunc_end123:
	.size	trace_logger_log_int, .Lfunc_end123-trace_logger_log_int
	.cfi_endproc
                                        # -- End function
	.globl	trace_logger_log_ptr    # -- Begin function trace_logger_log_ptr
	.p2align	4, 0x90
	.type	trace_logger_log_ptr,@function
trace_logger_log_ptr:                   # @trace_logger_log_ptr
.Lfunc_begin124:
	.cfi_startproc
# %bb.0:
	pushq	%rbp
	.cfi_def_cfa_offset 16
	pushq	%r15
	.cfi_def_cfa_offset 24
	pushq	%r14
	.cfi_def_cfa_offset 32
	pushq	%r13
	.cfi_def_cfa_offset 40
	pushq	%r12
	.cfi_def_cfa_offset 48
	pushq	%rbx
	.cfi_def_cfa_offset 56
	subq	$24, %rsp
	.cfi_def_cfa_offset 80
	.cfi_offset %rbx, -56
	.cfi_offset %r12, -48
	.cfi_offset %r13, -40
	.cfi_offset %r14, -32
	.cfi_offset %r15, -24
	.cfi_offset %rbp, -16
	movl	%r9d, 12(%rsp)          # 4-byte Spill
	movq	%r8, %r13
	movl	%ecx, %ebx
	movq	%rdx, %r12
	movl	%esi, %r14d
	movl	%edi, %r15d
	movq	80(%rsp), %rbp
	callq	_ZTW5trace
	cmpq	$0, (%rax)
	je	.LBB124_13
# %bb.1:
	callq	_Z10do_not_logv
	testb	%al, %al
	je	.LBB124_2
.LBB124_13:
	addq	$24, %rsp
	popq	%rbx
	popq	%r12
	popq	%r13
	popq	%r14
	popq	%r15
	popq	%rbp
	retq
.LBB124_2:
	movq	%rbp, 16(%rsp)          # 8-byte Spill
	callq	_ZTW5trace
	movq	(%rax), %rax
	movq	32(%rax), %rbp
	cmpl	$24601, %r15d           # imm = 0x6019
	je	.LBB124_6
# %bb.3:
	cmpl	$19134, %r15d           # imm = 0x4ABE
	jne	.LBB124_7
# %bb.4:
	movl	$.L.str.26, %esi
	jmp	.LBB124_5
.LBB124_6:
	movl	$.L.str.27, %esi
.LBB124_5:
	xorl	%eax, %eax
	movq	%rbp, %rdi
	movl	%r14d, %edx
	movq	%r12, %rcx
	movl	%ebx, %r8d
	callq	gzprintf
	testl	%ebx, %ebx
	je	.LBB124_10
.LBB124_9:
	movl	$.L.str.22, %esi
	xorl	%eax, %eax
	movq	%rbp, %rdi
	movq	%r13, %rdx
	callq	gzprintf
	cmpl	$0, 12(%rsp)            # 4-byte Folded Reload
	je	.LBB124_12
.LBB124_14:
	movl	$.L.str.24, %esi
	xorl	%eax, %eax
	movq	%rbp, %rdi
	movq	16(%rsp), %rdx          # 8-byte Reload
	addq	$24, %rsp
	popq	%rbx
	popq	%r12
	popq	%r13
	popq	%r14
	popq	%r15
	popq	%rbp
	jmp	gzprintf                # TAILCALL
.LBB124_7:
	movl	$.L.str.28, %esi
	xorl	%eax, %eax
	movq	%rbp, %rdi
	movl	%r15d, %edx
	movl	%r14d, %ecx
	movq	%r12, %r8
	movl	%ebx, %r9d
	callq	gzprintf
	testl	%ebx, %ebx
	jne	.LBB124_9
.LBB124_10:
	movl	$.L.str.23, %esi
	xorl	%eax, %eax
	movq	%rbp, %rdi
	callq	gzprintf
	cmpl	$0, 12(%rsp)            # 4-byte Folded Reload
	jne	.LBB124_14
.LBB124_12:
	movl	$.L.str.25, %esi
	xorl	%eax, %eax
	movq	%rbp, %rdi
	addq	$24, %rsp
	popq	%rbx
	popq	%r12
	popq	%r13
	popq	%r14
	popq	%r15
	popq	%rbp
	jmp	gzprintf                # TAILCALL
.Lfunc_end124:
	.size	trace_logger_log_ptr, .Lfunc_end124-trace_logger_log_ptr
	.cfi_endproc
                                        # -- End function
	.globl	trace_logger_log_string # -- Begin function trace_logger_log_string
	.p2align	4, 0x90
	.type	trace_logger_log_string,@function
trace_logger_log_string:                # @trace_logger_log_string
.Lfunc_begin125:
	.cfi_startproc
# %bb.0:
	pushq	%rbp
	.cfi_def_cfa_offset 16
	pushq	%r15
	.cfi_def_cfa_offset 24
	pushq	%r14
	.cfi_def_cfa_offset 32
	pushq	%r13
	.cfi_def_cfa_offset 40
	pushq	%r12
	.cfi_def_cfa_offset 48
	pushq	%rbx
	.cfi_def_cfa_offset 56
	subq	$24, %rsp
	.cfi_def_cfa_offset 80
	.cfi_offset %rbx, -56
	.cfi_offset %r12, -48
	.cfi_offset %r13, -40
	.cfi_offset %r14, -32
	.cfi_offset %r15, -24
	.cfi_offset %rbp, -16
	movl	%r9d, 12(%rsp)          # 4-byte Spill
	movq	%r8, %r13
	movl	%ecx, %ebx
	movq	%rdx, %r12
	movl	%esi, %r14d
	movl	%edi, %r15d
	movq	80(%rsp), %rbp
	callq	_ZTW5trace
	cmpq	$0, (%rax)
	je	.LBB125_13
# %bb.1:
	callq	_Z10do_not_logv
	testb	%al, %al
	je	.LBB125_2
.LBB125_13:
	addq	$24, %rsp
	popq	%rbx
	popq	%r12
	popq	%r13
	popq	%r14
	popq	%r15
	popq	%rbp
	retq
.LBB125_2:
	movq	%rbp, 16(%rsp)          # 8-byte Spill
	callq	_ZTW5trace
	movq	(%rax), %rax
	movq	32(%rax), %rbp
	cmpl	$24601, %r15d           # imm = 0x6019
	je	.LBB125_6
# %bb.3:
	cmpl	$19134, %r15d           # imm = 0x4ABE
	jne	.LBB125_7
# %bb.4:
	movl	$.L.str.29, %esi
	jmp	.LBB125_5
.LBB125_6:
	movl	$.L.str.30, %esi
.LBB125_5:
	xorl	%eax, %eax
	movq	%rbp, %rdi
	movl	%r14d, %edx
	movq	%r12, %rcx
	movl	%ebx, %r8d
	callq	gzprintf
	testl	%ebx, %ebx
	je	.LBB125_10
.LBB125_9:
	movl	$.L.str.22, %esi
	xorl	%eax, %eax
	movq	%rbp, %rdi
	movq	%r13, %rdx
	callq	gzprintf
	cmpl	$0, 12(%rsp)            # 4-byte Folded Reload
	je	.LBB125_12
.LBB125_14:
	movl	$.L.str.24, %esi
	xorl	%eax, %eax
	movq	%rbp, %rdi
	movq	16(%rsp), %rdx          # 8-byte Reload
	addq	$24, %rsp
	popq	%rbx
	popq	%r12
	popq	%r13
	popq	%r14
	popq	%r15
	popq	%rbp
	jmp	gzprintf                # TAILCALL
.LBB125_7:
	movl	$.L.str.31, %esi
	xorl	%eax, %eax
	movq	%rbp, %rdi
	movl	%r15d, %edx
	movl	%r14d, %ecx
	movq	%r12, %r8
	movl	%ebx, %r9d
	callq	gzprintf
	testl	%ebx, %ebx
	jne	.LBB125_9
.LBB125_10:
	movl	$.L.str.23, %esi
	xorl	%eax, %eax
	movq	%rbp, %rdi
	callq	gzprintf
	cmpl	$0, 12(%rsp)            # 4-byte Folded Reload
	jne	.LBB125_14
.LBB125_12:
	movl	$.L.str.25, %esi
	xorl	%eax, %eax
	movq	%rbp, %rdi
	addq	$24, %rsp
	popq	%rbx
	popq	%r12
	popq	%r13
	popq	%r14
	popq	%r15
	popq	%rbp
	jmp	gzprintf                # TAILCALL
.Lfunc_end125:
	.size	trace_logger_log_string, .Lfunc_end125-trace_logger_log_string
	.cfi_endproc
                                        # -- End function
	.globl	trace_logger_log_double # -- Begin function trace_logger_log_double
	.p2align	4, 0x90
	.type	trace_logger_log_double,@function
trace_logger_log_double:                # @trace_logger_log_double
.Lfunc_begin126:
	.cfi_startproc
# %bb.0:
	pushq	%rbp
	.cfi_def_cfa_offset 16
	pushq	%r15
	.cfi_def_cfa_offset 24
	pushq	%r14
	.cfi_def_cfa_offset 32
	pushq	%r13
	.cfi_def_cfa_offset 40
	pushq	%r12
	.cfi_def_cfa_offset 48
	pushq	%rbx
	.cfi_def_cfa_offset 56
	subq	$24, %rsp
	.cfi_def_cfa_offset 80
	.cfi_offset %rbx, -56
	.cfi_offset %r12, -48
	.cfi_offset %r13, -40
	.cfi_offset %r14, -32
	.cfi_offset %r15, -24
	.cfi_offset %rbp, -16
	movq	%r9, %rbp
	movl	%r8d, %ebx
	movq	%rcx, %r13
	movl	%edx, %r12d
	movsd	%xmm0, (%rsp)           # 8-byte Spill
	movl	%esi, %r15d
	movl	%edi, %r14d
	callq	_ZTW5trace
	cmpq	$0, (%rax)
	je	.LBB126_13
# %bb.1:
	callq	_Z10do_not_logv
	testb	%al, %al
	je	.LBB126_2
.LBB126_13:
	addq	$24, %rsp
	popq	%rbx
	popq	%r12
	popq	%r13
	popq	%r14
	popq	%r15
	popq	%rbp
	retq
.LBB126_2:
	movl	%ebx, 12(%rsp)          # 4-byte Spill
	movq	%rbp, 16(%rsp)          # 8-byte Spill
	callq	_ZTW5trace
	movq	(%rax), %rax
	movq	32(%rax), %rbx
	cmpl	$24601, %r14d           # imm = 0x6019
	je	.LBB126_6
# %bb.3:
	cmpl	$19134, %r14d           # imm = 0x4ABE
	jne	.LBB126_7
# %bb.4:
	movl	$.L.str.32, %esi
	jmp	.LBB126_5
.LBB126_6:
	movl	$.L.str.33, %esi
.LBB126_5:
	movb	$1, %al
	movq	%rbx, %rdi
	movl	%r15d, %edx
	movsd	(%rsp), %xmm0           # 8-byte Reload
                                        # xmm0 = mem[0],zero
	movl	%r12d, %ecx
	callq	gzprintf
	testl	%r12d, %r12d
	je	.LBB126_10
.LBB126_9:
	movl	$.L.str.22, %esi
	xorl	%eax, %eax
	movq	%rbx, %rdi
	movq	%r13, %rdx
	callq	gzprintf
	cmpl	$0, 12(%rsp)            # 4-byte Folded Reload
	je	.LBB126_12
.LBB126_14:
	movl	$.L.str.24, %esi
	xorl	%eax, %eax
	movq	%rbx, %rdi
	movq	16(%rsp), %rdx          # 8-byte Reload
	addq	$24, %rsp
	popq	%rbx
	popq	%r12
	popq	%r13
	popq	%r14
	popq	%r15
	popq	%rbp
	jmp	gzprintf                # TAILCALL
.LBB126_7:
	movl	$.L.str.34, %esi
	movb	$1, %al
	movq	%rbx, %rdi
	movl	%r14d, %edx
	movl	%r15d, %ecx
	movsd	(%rsp), %xmm0           # 8-byte Reload
                                        # xmm0 = mem[0],zero
	movl	%r12d, %r8d
	callq	gzprintf
	testl	%r12d, %r12d
	jne	.LBB126_9
.LBB126_10:
	movl	$.L.str.23, %esi
	xorl	%eax, %eax
	movq	%rbx, %rdi
	callq	gzprintf
	cmpl	$0, 12(%rsp)            # 4-byte Folded Reload
	jne	.LBB126_14
.LBB126_12:
	movl	$.L.str.25, %esi
	xorl	%eax, %eax
	movq	%rbx, %rdi
	addq	$24, %rsp
	popq	%rbx
	popq	%r12
	popq	%r13
	popq	%r14
	popq	%r15
	popq	%rbp
	jmp	gzprintf                # TAILCALL
.Lfunc_end126:
	.size	trace_logger_log_double, .Lfunc_end126-trace_logger_log_double
	.cfi_endproc
                                        # -- End function
	.globl	trace_logger_log_vector # -- Begin function trace_logger_log_vector
	.p2align	4, 0x90
	.type	trace_logger_log_vector,@function
trace_logger_log_vector:                # @trace_logger_log_vector
.Lfunc_begin127:
	.cfi_startproc
# %bb.0:
	pushq	%rbp
	.cfi_def_cfa_offset 16
	.cfi_offset %rbp, -16
	movq	%rsp, %rbp
	.cfi_def_cfa_register %rbp
	pushq	%r15
	pushq	%r14
	pushq	%r13
	pushq	%r12
	pushq	%rbx
	subq	$24, %rsp
	.cfi_offset %rbx, -56
	.cfi_offset %r12, -48
	.cfi_offset %r13, -40
	.cfi_offset %r14, -32
	.cfi_offset %r15, -24
	movl	%r9d, %r15d
	movq	%r8, %rbx
	movl	%ecx, -44(%rbp)         # 4-byte Spill
	movq	%rdx, %r12
	movl	%esi, %r13d
	movl	%edi, %r14d
	callq	_ZTW5trace
	cmpq	$0, (%rax)
	je	.LBB127_15
# %bb.1:
	callq	_Z10do_not_logv
	testb	%al, %al
	jne	.LBB127_15
# %bb.2:
	movq	%rbx, -56(%rbp)         # 8-byte Spill
	movl	%r15d, -48(%rbp)        # 4-byte Spill
	movq	%rsp, -64(%rbp)         # 8-byte Spill
	movl	%r13d, %edx
	sarl	$31, %edx
	movl	%edx, %eax
	shrl	$30, %eax
	addl	%r13d, %eax
	sarl	$2, %eax
	addl	$3, %eax
	addq	$15, %rax
	movabsq	$8589934576, %rcx       # imm = 0x1FFFFFFF0
	andq	%rax, %rcx
	movq	%rsp, %r15
	subq	%rcx, %r15
	movq	%r15, %rsp
	shrl	$29, %edx
	addl	%r13d, %edx
	sarl	$3, %edx
	movq	%r15, %rdi
	movq	%r12, %rsi
	callq	_Z20convert_bytes_to_hexPcPhi
	callq	_ZTW5trace
	movq	(%rax), %rax
	movq	32(%rax), %r12
	cmpl	$24601, %r14d           # imm = 0x6019
	je	.LBB127_6
# %bb.3:
	cmpl	$19134, %r14d           # imm = 0x4ABE
	jne	.LBB127_7
# %bb.4:
	movl	$.L.str.29, %esi
	jmp	.LBB127_5
.LBB127_6:
	movl	$.L.str.30, %esi
.LBB127_5:
	xorl	%eax, %eax
	movq	%r12, %rdi
	movl	%r13d, %edx
	movq	%r15, %rcx
	movl	-44(%rbp), %ebx         # 4-byte Reload
	movl	%ebx, %r8d
	callq	gzprintf
	jmp	.LBB127_8
.LBB127_7:
	movl	$.L.str.31, %esi
	xorl	%eax, %eax
	movq	%r12, %rdi
	movl	%r14d, %edx
	movl	%r13d, %ecx
	movq	%r15, %r8
	movl	-44(%rbp), %ebx         # 4-byte Reload
	movl	%ebx, %r9d
	callq	gzprintf
.LBB127_8:
	testl	%ebx, %ebx
	movl	-48(%rbp), %ebx         # 4-byte Reload
	movq	-56(%rbp), %rdx         # 8-byte Reload
	je	.LBB127_10
# %bb.9:
	movl	$.L.str.22, %esi
	xorl	%eax, %eax
	movq	%r12, %rdi
	callq	gzprintf
	testl	%ebx, %ebx
	je	.LBB127_13
.LBB127_12:
	movq	16(%rbp), %rdx
	movl	$.L.str.24, %esi
	xorl	%eax, %eax
	movq	%r12, %rdi
	callq	gzprintf
	jmp	.LBB127_14
.LBB127_10:
	movl	$.L.str.23, %esi
	xorl	%eax, %eax
	movq	%r12, %rdi
	callq	gzprintf
	testl	%ebx, %ebx
	jne	.LBB127_12
.LBB127_13:
	movl	$.L.str.25, %esi
	xorl	%eax, %eax
	movq	%r12, %rdi
	callq	gzprintf
.LBB127_14:
	movq	-64(%rbp), %rsp         # 8-byte Reload
.LBB127_15:
	leaq	-40(%rbp), %rsp
	popq	%rbx
	popq	%r12
	popq	%r13
	popq	%r14
	popq	%r15
	popq	%rbp
	retq
.Lfunc_end127:
	.size	trace_logger_log_vector, .Lfunc_end127-trace_logger_log_vector
	.cfi_endproc
                                        # -- End function
	.type	trace,@object           # @trace
	.section	.tbss,"awT",@nobits
	.globl	trace
	.p2align	3
trace:
	.quad	0
	.size	trace, 8

	.type	_Z8gz_filesB5cxx11,@object # @_Z8gz_filesB5cxx11
	.bss
	.globl	_Z8gz_filesB5cxx11
	.p2align	3
_Z8gz_filesB5cxx11:
	.zero	48
	.size	_Z8gz_filesB5cxx11, 48

	.type	lock,@object            # @lock
	.globl	lock
	.p2align	3
lock:
	.zero	40
	.size	lock, 40

	.type	_Z12labelmap_strB5cxx11,@object # @_Z12labelmap_strB5cxx11
	.globl	_Z12labelmap_strB5cxx11
	.p2align	3
_Z12labelmap_strB5cxx11:
	.zero	32
	.size	_Z12labelmap_strB5cxx11, 32

	.type	default_trace_name,@object # @default_trace_name
	.data
	.globl	default_trace_name
	.p2align	3
default_trace_name:
	.quad	.L.str
	.size	default_trace_name, 8

	.type	.L.str,@object          # @.str
	.section	.rodata.str1.1,"aMS",@progbits,1
.L.str:
	.asciz	"dynamic_trace.gz"
	.size	.L.str, 17

	.section	.init_array,"aw",@init_array
	.p2align	3
	.quad	_GLOBAL__sub_I_trace_logger.cpp
	.type	.L.str.3,@object        # @.str.3
	.section	.rodata.str1.1,"aMS",@progbits,1
.L.str.3:
	.asciz	"!trace && \"Trace has already been created!\""
	.size	.L.str.3, 44

	.type	.L.str.4,@object        # @.str.4
.L.str.4:
	.asciz	"/home/yingj4/LLVM-Tracer/profile-func/trace_logger.cpp"
	.size	.L.str.4, 55

	.type	.L__PRETTY_FUNCTION__._Z12create_tracePKc,@object # @__PRETTY_FUNCTION__._Z12create_tracePKc
.L__PRETTY_FUNCTION__._Z12create_tracePKc:
	.asciz	"void create_trace(const char *)"
	.size	.L__PRETTY_FUNCTION__._Z12create_tracePKc, 32

	.type	.L.str.5,@object        # @.str.5
.L.str.5:
	.asciz	"%%%% LABEL MAP START %%%%\n"
	.size	.L.str.5, 27

	.type	.L.str.6,@object        # @.str.6
.L.str.6:
	.asciz	"%%%% LABEL MAP END %%%%\n\n"
	.size	.L.str.6, 26

	.type	.L.str.7,@object        # @.str.7
.L.str.7:
	.asciz	"w"
	.size	.L.str.7, 2

	.type	.L.str.8,@object        # @.str.8
.L.str.8:
	.asciz	"Failed to open logfile \"dynamic_trace\""
	.size	.L.str.8, 39

	.type	_ZStL19piecewise_construct,@object # @_ZStL19piecewise_construct
	.section	.rodata,"a",@progbits
_ZStL19piecewise_construct:
	.zero	1
	.size	_ZStL19piecewise_construct, 1

	.type	.L.str.36,@object       # @.str.36
	.section	.rodata.str1.1,"aMS",@progbits,1
.L.str.36:
	.asciz	"map::at"
	.size	.L.str.36, 8

	.type	.L.str.9,@object        # @.str.9
.L.str.9:
	.asciz	"Failed to initialize the mutex\n"
	.size	.L.str.9, 32

	.type	.L.str.10,@object       # @.str.10
.L.str.10:
	.asciz	"false && \"Returning from within a toplevel function before it was called!\""
	.size	.L.str.10, 75

	.type	.L__PRETTY_FUNCTION__._Z10log_or_notbbiPc,@object # @__PRETTY_FUNCTION__._Z10log_or_notbbiPc
.L__PRETTY_FUNCTION__._Z10log_or_notbbiPc:
	.asciz	"logging_status log_or_not(bool, bool, int, char *)"
	.size	.L__PRETTY_FUNCTION__._Z10log_or_notbbiPc, 51

	.type	.L.str.11,@object       # @.str.11
.L.str.11:
	.asciz	"false && \"Cannot call a top level function from within another one!\""
	.size	.L.str.11, 69

	.type	.L.str.12,@object       # @.str.12
.L.str.12:
	.asciz	"0x"
	.size	.L.str.12, 3

	.type	.L.str.13,@object       # @.str.13
.L.str.13:
	.asciz	"%02x"
	.size	.L.str.13, 5

	.type	.L.str.14,@object       # @.str.14
.L.str.14:
	.asciz	"%s: Stopping logging at inst %ld.\n"
	.size	.L.str.14, 35

	.type	.L.str.15,@object       # @.str.15
.L.str.15:
	.asciz	"%s: Starting to log at inst = %ld.\n"
	.size	.L.str.15, 36

	.type	.L.str.16,@object       # @.str.16
.L.str.16:
	.zero	1
	.size	.L.str.16, 1

	.type	.L.str.17,@object       # @.str.17
.L.str.17:
	.asciz	"\nentry,%s,%d,\n"
	.size	.L.str.17, 15

	.type	.L.str.18,@object       # @.str.18
.L.str.18:
	.asciz	"\n0,%d,%s,%s,%s,%d,%ld\n"
	.size	.L.str.18, 23

	.type	.L.str.19,@object       # @.str.19
.L.str.19:
	.asciz	"r,%d,%ld,%d"
	.size	.L.str.19, 12

	.type	.L.str.20,@object       # @.str.20
.L.str.20:
	.asciz	"f,%d,%ld,%d"
	.size	.L.str.20, 12

	.type	.L.str.21,@object       # @.str.21
.L.str.21:
	.asciz	"%d,%d,%ld,%d"
	.size	.L.str.21, 13

	.type	.L.str.22,@object       # @.str.22
.L.str.22:
	.asciz	",%s"
	.size	.L.str.22, 4

	.type	.L.str.23,@object       # @.str.23
.L.str.23:
	.asciz	", "
	.size	.L.str.23, 3

	.type	.L.str.24,@object       # @.str.24
.L.str.24:
	.asciz	",%s,\n"
	.size	.L.str.24, 6

	.type	.L.str.25,@object       # @.str.25
.L.str.25:
	.asciz	",\n"
	.size	.L.str.25, 3

	.type	.L.str.26,@object       # @.str.26
.L.str.26:
	.asciz	"r,%d,%#llx,%d"
	.size	.L.str.26, 14

	.type	.L.str.27,@object       # @.str.27
.L.str.27:
	.asciz	"f,%d,%#llx,%d"
	.size	.L.str.27, 14

	.type	.L.str.28,@object       # @.str.28
.L.str.28:
	.asciz	"%d,%d,%#llx,%d"
	.size	.L.str.28, 15

	.type	.L.str.29,@object       # @.str.29
.L.str.29:
	.asciz	"r,%d,%s,%d"
	.size	.L.str.29, 11

	.type	.L.str.30,@object       # @.str.30
.L.str.30:
	.asciz	"f,%d,%s,%d"
	.size	.L.str.30, 11

	.type	.L.str.31,@object       # @.str.31
.L.str.31:
	.asciz	"%d,%d,%s,%d"
	.size	.L.str.31, 12

	.type	.L.str.32,@object       # @.str.32
.L.str.32:
	.asciz	"r,%d,%f,%d"
	.size	.L.str.32, 11

	.type	.L.str.33,@object       # @.str.33
.L.str.33:
	.asciz	"f,%d,%f,%d"
	.size	.L.str.33, 11

	.type	.L.str.34,@object       # @.str.34
.L.str.34:
	.asciz	"%d,%d,%f,%d"
	.size	.L.str.34, 12

	.section	".note.GNU-stack","",@progbits